 VirtuaNES

 Timestamp is 4b318786 (Wed Dec 23 10:59:18 2009)

 Preferred load address is 00400000

 Start         Length     Name                   Class
 0001:00000000 000d973aH .textbss                DATA
 0002:00000000 001b8f8eH .text                   CODE
 0002:001b8f90 000072f2H .text$x                 CODE
 0002:001c0290 000015bbH .text$yc                CODE
 0002:001c1850 0000147bH .text$yd                CODE
 0003:00000000 00000104H .CRT$XCA                DATA
 0003:00000104 00000104H .CRT$XCC                DATA
 0003:00000208 0000014cH .CRT$XCU                DATA
 0003:00000354 00000104H .CRT$XCZ                DATA
 0003:00000458 00000104H .CRT$XIA                DATA
 0003:0000055c 00000118H .CRT$XIC                DATA
 0003:00000674 00000104H .CRT$XIY                DATA
 0003:00000778 00000104H .CRT$XIZ                DATA
 0003:0000087c 00000104H .CRT$XPA                DATA
 0003:00000980 00000109H .CRT$XPX                DATA
 0003:00000a8c 00000104H .CRT$XPXA               DATA
 0003:00000b90 00000104H .CRT$XPZ                DATA
 0003:00000c94 00000104H .CRT$XTA                DATA
 0003:00000d98 00000104H .CRT$XTZ                DATA
 0003:00000ea0 0002b66cH .rdata                  DATA
 0003:0002c50c 00000139H .rdata$debug            DATA
 0003:0002c648 000057bfH .rdata$r                DATA
 0003:00031e08 00000104H .rtc$IAA                DATA
 0003:00031f0c 00000250H .rtc$IMZ                DATA
 0003:0003215c 00000104H .rtc$IZZ                DATA
 0003:00032260 00000104H .rtc$TAA                DATA
 0003:00032364 00000250H .rtc$TMZ                DATA
 0003:000325b4 00000104H .rtc$TZZ                DATA
 0003:000326b8 00006b80H .xdata$x                DATA
 0003:00039238 00000000H .edata                  DATA
 0004:00000000 0000f29eH .data                   DATA
 0004:0000f2a0 00119e24H .bss                    DATA
 0005:00000000 0000012cH .idata$2                DATA
 0005:0000012c 00000014H .idata$3                DATA
 0005:00000140 00000838H .idata$4                DATA
 0005:00000978 00000838H .idata$5                DATA
 0005:000011b0 00001718H .idata$6                DATA
 0006:00000000 00000400H .rsrc$01                DATA
 0006:00000400 00001d63H .rsrc$02                DATA

  Address         Publics by Value              Rva+Base       Lib:Object

 0000:00000000       ___safe_se_handler_count   00000000     <absolute>
 0000:00000000       __except_list              00000000     <absolute>
 0000:00000000       ___safe_se_handler_table   00000000     <absolute>
 0000:00000000       ___ImageBase               00400000     <linker-defined>
 0001:00000000       __enc$textbss$begin        00401000     <linker-defined>
 0001:000d973a       __enc$textbss$end          004da73a     <linker-defined>
 0002:0000cc10       ?DispatchDlg@CAboutDlg@@MAEHPAUHWND__@@IIJ@Z 004e7c10 f   AboutDlg.obj
 0002:0000cda0       ?DoModal@CAboutDlg@@UAEHPAUHWND__@@@Z 004e7da0 f   AboutDlg.obj
 0002:0000ce20       ?GetPlugin@CApp@@SAPAUHINSTANCE__@@XZ 004e7e20 f i AboutDlg.obj
 0002:0000ce60       ?OnInitDialog@CAboutDlg@@IAEHPAUHWND__@@IJAAH@Z 004e7e60 f   AboutDlg.obj
 0002:0000d0e0       ?ReadLow@smb2j@@UAEEG@Z    004e80e0 f   MapperFactory.obj
 0002:0000d180       ?LoadIconA@CApp@@SAPAUHICON__@@I@Z 004e8180 f i AboutDlg.obj
 0002:0000d1e0       ?Attach@CHyperLink@@QAEHPAUHWND__@@PBD1@Z 004e81e0 f i AboutDlg.obj
 0002:0000d520       ?CalcLabelRectangle@CHyperLink@@IAEHXZ 004e8520 f i AboutDlg.obj
 0002:0000d7a0       ?HyperLinkProc@CHyperLink@@KGJPAUHWND__@@IIJ@Z 004e87a0 f i AboutDlg.obj
 0002:0000dc40       ?Detach@CHyperLink@@QAEHXZ 004e8c40 f i AboutDlg.obj
 0002:0000dd90       ?OnOK@CAboutDlg@@IAEXPAUHWND__@@I@Z 004e8d90 f   AboutDlg.obj
 0002:0000de00       ?OnCancel@CAboutDlg@@IAEXPAUHWND__@@I@Z 004e8e00 f   AboutDlg.obj
 0002:0000de70       ?OnWebsite@CAboutDlg@@IAEXPAUHWND__@@I@Z 004e8e70 f   AboutDlg.obj
 0002:0000dee0       ??0?$basic_string@DU?$char_traits@D@std@@V?$allocator@D@2@@std@@QAE@XZ 004e8ee0 f i AboutDlg.obj
 0002:0000dfa0       ??1?$basic_string@DU?$char_traits@D@std@@V?$allocator@D@2@@std@@QAE@XZ 004e8fa0 f i AboutDlg.obj
 0002:0000e050       ??4?$basic_string@DU?$char_traits@D@std@@V?$allocator@D@2@@std@@QAEAAV01@ABV01@@Z 004e9050 f i AboutDlg.obj
 0002:0000e0b0       ??4?$basic_string@DU?$char_traits@D@std@@V?$allocator@D@2@@std@@QAEAAV01@PBD@Z 004e90b0 f i AboutDlg.obj
 0002:0000e110       ??Y?$basic_string@DU?$char_traits@D@std@@V?$allocator@D@2@@std@@QAEAAV01@PBD@Z 004e9110 f i AboutDlg.obj
 0002:0000e170       ?c_str@?$basic_string@DU?$char_traits@D@std@@V?$allocator@D@2@@std@@QBEPBDXZ 004e9170 f i AboutDlg.obj
 0002:0000e1c0       ?allocate@?$_DebugHeapAllocator@D@std@@QAAPADIPBX@Z 004e91c0 f i AboutDlg.obj
 0002:0000e280       ??0bad_alloc@std@@QAE@PBD@Z 004e9280 f i AboutDlg.obj
 0002:0000e2f0       ??1bad_alloc@std@@UAE@XZ   004e92f0 f i AboutDlg.obj
 0002:0000e350       ??_Gbad_alloc@std@@UAEPAXI@Z 004e9350 f i AboutDlg.obj
 0002:0000e350       ??_Ebad_alloc@std@@UAEPAXI@Z 004e9350 f i AboutDlg.obj
 0002:0000e3c0       ?allocate@?$_DebugHeapAllocator@D@std@@QAEPADI@Z 004e93c0 f i AboutDlg.obj
 0002:0000e480       ?deallocate@?$_DebugHeapAllocator@D@std@@QAEXPADI@Z 004e9480 f i AboutDlg.obj
 0002:0000e4e0       ??1?$_String_val@DV?$allocator@D@std@@@std@@QAE@XZ 004e94e0 f i AboutDlg.obj
 0002:0000e530       ??0bad_alloc@std@@QAE@ABV01@@Z 004e9530 f i AboutDlg.obj
 0002:0000e5a0       ??0?$_DebugHeapAllocator@D@std@@QAE@XZ 004e95a0 f i AboutDlg.obj
 0002:0000e600       ??1_String_base@std@@QAE@XZ 004e9600 f i AboutDlg.obj
 0002:0000e650       ??1_Container_base_secure@std@@QAE@XZ 004e9650 f i AboutDlg.obj
 0002:0000e6a0       ?_Orphan_all@_Container_base_secure@std@@QBEXXZ 004e96a0 f i AboutDlg.obj
 0002:0000e780       ?append@?$basic_string@DU?$char_traits@D@std@@V?$allocator@D@2@@std@@QAEAAV12@PBD@Z 004e9780 f i AboutDlg.obj
 0002:0000e810       ?length@?$char_traits@D@std@@SAIPBD@Z 004e9810 f i AboutDlg.obj
 0002:0000e860       ?assign@?$basic_string@DU?$char_traits@D@std@@V?$allocator@D@2@@std@@QAEAAV12@ABV12@@Z 004e9860 f i AboutDlg.obj
 0002:0000e8c0       ?assign@?$basic_string@DU?$char_traits@D@std@@V?$allocator@D@2@@std@@QAEAAV12@ABV12@II@Z 004e98c0 f i AboutDlg.obj
 0002:0000e9e0       ?size@?$basic_string@DU?$char_traits@D@std@@V?$allocator@D@2@@std@@QBEIXZ 004e99e0 f i AboutDlg.obj
 0002:0000ea20       ?assign@?$basic_string@DU?$char_traits@D@std@@V?$allocator@D@2@@std@@QAEAAV12@PBD@Z 004e9a20 f i AboutDlg.obj
 0002:0000eab0       ?_Tidy@?$basic_string@DU?$char_traits@D@std@@V?$allocator@D@2@@std@@IAEX_NI@Z 004e9ab0 f i AboutDlg.obj
 0002:0000eb80       ?_Myptr@?$basic_string@DU?$char_traits@D@std@@V?$allocator@D@2@@std@@IBEPBDXZ 004e9b80 f i AboutDlg.obj
 0002:0000ebf0       ??0?$_String_val@DV?$allocator@D@std@@@std@@IAE@V?$allocator@D@1@@Z 004e9bf0 f i AboutDlg.obj
 0002:0000ec60       ??0?$allocator@D@std@@QAE@XZ 004e9c60 f i AboutDlg.obj
 0002:0000eca0       ??0_String_base@std@@QAE@XZ 004e9ca0 f i AboutDlg.obj
 0002:0000ed00       ??0_Container_base_secure@std@@QAE@XZ 004e9d00 f i AboutDlg.obj
 0002:0000ed50       ??0?$_DebugHeapAllocator@D@std@@QAE@ABV01@@Z 004e9d50 f i AboutDlg.obj
 0002:0000edb0       ?append@?$basic_string@DU?$char_traits@D@std@@V?$allocator@D@2@@std@@QAEAAV12@PBDI@Z 004e9db0 f i AboutDlg.obj
 0002:0000ef10       ?assign@?$basic_string@DU?$char_traits@D@std@@V?$allocator@D@2@@std@@QAEAAV12@PBDI@Z 004e9f10 f i AboutDlg.obj
 0002:0000f010       ?erase@?$basic_string@DU?$char_traits@D@std@@V?$allocator@D@2@@std@@QAEAAV12@II@Z 004ea010 f i AboutDlg.obj
 0002:0000f100       ?_Eos@?$basic_string@DU?$char_traits@D@std@@V?$allocator@D@2@@std@@IAEXI@Z 004ea100 f i AboutDlg.obj
 0002:0000f180       ?assign@?$char_traits@D@std@@SAXAADABD@Z 004ea180 f i AboutDlg.obj
 0002:0000f1c0       ?_Grow@?$basic_string@DU?$char_traits@D@std@@V?$allocator@D@2@@std@@IAE_NI_N@Z 004ea1c0 f i AboutDlg.obj
 0002:0000f2c0       ?_Myptr@?$basic_string@DU?$char_traits@D@std@@V?$allocator@D@2@@std@@IAEPADXZ 004ea2c0 f i AboutDlg.obj
 0002:0000f330       ??0?$allocator@D@std@@QAE@ABV01@@Z 004ea330 f i AboutDlg.obj
 0002:0000f370       ?deallocate@?$allocator@D@std@@QAEXPADI@Z 004ea370 f i AboutDlg.obj
 0002:0000f3d0       ?append@?$basic_string@DU?$char_traits@D@std@@V?$allocator@D@2@@std@@QAEAAV12@ABV12@II@Z 004ea3d0 f i AboutDlg.obj
 0002:0000f510       ?max_size@?$basic_string@DU?$char_traits@D@std@@V?$allocator@D@2@@std@@QBEIXZ 004ea510 f i AboutDlg.obj
 0002:0000f5a0       ?_Copy@?$basic_string@DU?$char_traits@D@std@@V?$allocator@D@2@@std@@IAEXII@Z 004ea5a0 f i AboutDlg.obj
 0002:0000f7d0       ?_Inside@?$basic_string@DU?$char_traits@D@std@@V?$allocator@D@2@@std@@IAE_NPBD@Z 004ea7d0 f i AboutDlg.obj
 0002:0000f850       ?allocate@?$allocator@D@std@@QAEPADI@Z 004ea850 f i AboutDlg.obj
 0002:0000f8b0       ?max_size@?$allocator@D@std@@QBEIXZ 004ea8b0 f i AboutDlg.obj
 0002:0000f920       ??$_Debug_pointer@D@std@@YAXPBDPB_WI@Z 004ea920 f i AboutDlg.obj
 0002:0000f980       ??$?HDU?$char_traits@D@std@@V?$allocator@D@1@@std@@YA?AV?$basic_string@DU?$char_traits@D@std@@V?$allocator@D@2@@0@PBDABV10@@Z 004ea980 f i AboutDlg.obj
 0002:0000fa80       ??0?$basic_string@DU?$char_traits@D@std@@V?$allocator@D@2@@std@@QAE@PBD@Z 004eaa80 f i AboutDlg.obj
 0002:0000fb50       ??0?$basic_string@DU?$char_traits@D@std@@V?$allocator@D@2@@std@@QAE@ABV01@@Z 004eab50 f i AboutDlg.obj
 0002:0000fc20       ??0?$_String_val@DV?$allocator@D@std@@@std@@QAE@ABV01@@Z 004eac20 f i AboutDlg.obj
 0002:0000fca0       ??$_DebugHeapDelete@X@std@@YAXPAX@Z 004eaca0 f i AboutDlg.obj
 0002:0000fd00       ??$copy_s@U?$char_traits@D@std@@@_Traits_helper@std@@YAPADPADIPBDI@Z 004ead00 f i AboutDlg.obj
 0002:0000fd80       ??$move_s@U?$char_traits@D@std@@@_Traits_helper@std@@YAPADPADIPBDI@Z 004ead80 f i AboutDlg.obj
 0002:0000fe00       ??$_Allocate@D@std@@YAPADIPAD@Z 004eae00 f i AboutDlg.obj
 0002:0000fea0       ??Y?$basic_string@DU?$char_traits@D@std@@V?$allocator@D@2@@std@@QAEAAV01@ABV01@@Z 004eaea0 f i AboutDlg.obj
 0002:0000ff00       ?append@?$basic_string@DU?$char_traits@D@std@@V?$allocator@D@2@@std@@QAEAAV12@ABV12@@Z 004eaf00 f i AboutDlg.obj
 0002:0000ff60       ??$_Char_traits_cat@U?$char_traits@D@std@@@std@@YA?AU_Secure_char_traits_tag@0@XZ 004eaf60 f i AboutDlg.obj
 0002:0000ffd0       ??$copy_s@U?$char_traits@D@std@@@_Traits_helper@std@@YAPADPADIPBDIU_Secure_char_traits_tag@1@@Z 004eafd0 f i AboutDlg.obj
 0002:00010030       ?_Copy_s@?$char_traits@D@std@@SAPADPADIPBDI@Z 004eb030 f i AboutDlg.obj
 0002:00010090       ??$move_s@U?$char_traits@D@std@@@_Traits_helper@std@@YAPADPADIPBDIU_Secure_char_traits_tag@1@@Z 004eb090 f i AboutDlg.obj
 0002:000100f0       ?_Move_s@?$char_traits@D@std@@SAPADPADIPBDI@Z 004eb0f0 f i AboutDlg.obj
 0002:00010150       ?LoadErrorString@CApp@@SAXXZ 004eb150 f   App.obj
 0002:00010200       ?LoadStringA@CApp@@SAHIPADH@Z 004eb200 f i App.obj
 0002:00010270       ?GetErrorString@CApp@@SAPADH@Z 004eb270 f   App.obj
 0002:000102f0       ?ZlibUnZip@@YAHPBDPAPAEPAK@Z 004eb2f0 f   Archive.obj
 0002:00010680       ?UnCompress@@YAHPBDPAPAEPAK@Z 004eb680 f   Archive.obj
 0002:000111a0       ?DispatchDlg@CAviConvDlg@@MAEHPAUHWND__@@IIJ@Z 004ec1a0 f   AviConvDlg.obj
 0002:000114c0       ??0CAviConvDlg@@QAE@XZ     004ec4c0 f   AviConvDlg.obj
 0002:00011730       ?Create@CWnd@@UAEHPAUHWND__@@@Z 004ec730 f i AviConvDlg.obj
 0002:00011770       ?Destroy@CWnd@@UAEXXZ      004ec770 f i AviConvDlg.obj
 0002:000117b0       ?PreTranslateMessage@CWnd@@UAEHPAUtagMSG@@@Z 004ec7b0 f i AviConvDlg.obj
 0002:000117f0       ?DispatchWnd@CWnd@@MAEJPAUHWND__@@IIJ@Z 004ec7f0 f i AviConvDlg.obj
 0002:00011860       ??_GCAviConvDlg@@UAEPAXI@Z 004ec860 f i AviConvDlg.obj
 0002:00011860       ??_ECAviConvDlg@@UAEPAXI@Z 004ec860 f i AviConvDlg.obj
 0002:000118d0       ??1CAviConvDlg@@UAE@XZ     004ec8d0 f   AviConvDlg.obj
 0002:00011a60       ?DoModal@CAviConvDlg@@UAEHPAUHWND__@@@Z 004eca60 f   AviConvDlg.obj
 0002:00011ae0       ?OnInitDialog@CAviConvDlg@@IAEHPAUHWND__@@IJAAH@Z 004ecae0 f   AviConvDlg.obj
 0002:00012090       ?OnCancel@CAviConvDlg@@IAEXPAUHWND__@@I@Z 004ed090 f   AviConvDlg.obj
 0002:000122a0       ?OnRomFileBrowse@CAviConvDlg@@IAEXPAUHWND__@@I@Z 004ed2a0 f   AviConvDlg.obj
 0002:00012570       ?GetModulePath@CApp@@SAPBDXZ 004ed570 f i AviConvDlg.obj
 0002:000125b0       ?OnMovieFileBrowse@CAviConvDlg@@IAEXPAUHWND__@@I@Z 004ed5b0 f   AviConvDlg.obj
 0002:000128a0       ?OnAviFileBrowse@CAviConvDlg@@IAEXPAUHWND__@@I@Z 004ed8a0 f   AviConvDlg.obj
 0002:00012b90       ?OnVideoCompressSelect@CAviConvDlg@@IAEXPAUHWND__@@I@Z 004edb90 f   AviConvDlg.obj
 0002:00012c40       ?OnConvertDone@CAviConvDlg@@IAEHPAUHWND__@@IJAAH@Z 004edc40 f   AviConvDlg.obj
 0002:00012f30       ?OnConvertError@CAviConvDlg@@IAEHPAUHWND__@@IJAAH@Z 004edf30 f   AviConvDlg.obj
 0002:000130f0       ?OnConvertStart@CAviConvDlg@@IAEXPAUHWND__@@I@Z 004ee0f0 f   AviConvDlg.obj
 0002:00013870       ?SetScreenPtr@PPU@@QAEXPAE0@Z 004ee870 f i AviConvDlg.obj
 0002:000138c0       ?OnTimer@CAviConvDlg@@IAEHPAUHWND__@@IJAAH@Z 004ee8c0 f   AviConvDlg.obj
 0002:00013b50       ?ThreadProc@CAviConvDlg@@KGKPAX@Z 004eeb50 f   AviConvDlg.obj
 0002:00014130       ?IsMoviePlay@NES@@QAEHXZ   004ef130 f i AviConvDlg.obj
 0002:00014170       ?ControlEnable@CAviConvDlg@@IAEXH@Z 004ef170 f   AviConvDlg.obj
 0002:00014440       ??0CAVIWriter@@QAE@XZ      004ef440 f   AviWriter.obj
 0002:00014610       ??_GCAVIWriter@@UAEPAXI@Z  004ef610 f i AviWriter.obj
 0002:00014610       ??_ECAVIWriter@@UAEPAXI@Z  004ef610 f i AviWriter.obj
 0002:00014680       ??1CAVIWriter@@UAE@XZ      004ef680 f   AviWriter.obj
 0002:000146e0       ?Open@CAVIWriter@@QAE_NPBD@Z 004ef6e0 f   AviWriter.obj
 0002:000148d0       ?Close@CAVIWriter@@QAEXXZ  004ef8d0 f   AviWriter.obj
 0002:000149b0       ?SelectVideoFormat@CAVIWriter@@QAE_NPAUHWND__@@@Z 004ef9b0 f   AviWriter.obj
 0002:00014b50       ?SetVideoFormat@CAVIWriter@@QAEXPAUtagBITMAPINFOHEADER@@@Z 004efb50 f   AviWriter.obj
 0002:00014ba0       ?SetAudioFormat@CAVIWriter@@QAEXKGH@Z 004efba0 f   AviWriter.obj
 0002:00014d40       ?SetFrameRate@CAVIWriter@@QAEXKK@Z 004efd40 f   AviWriter.obj
 0002:00014da0       ?WriteVideo@CAVIWriter@@QAE_NPBD@Z 004efda0 f   AviWriter.obj
 0002:00014e60       ?WriteAudio@CAVIWriter@@QAE_NPBDH@Z 004efe60 f   AviWriter.obj
 0002:00014f30       ?WriteFrame@CAVIWriter@@QAE_NPBD0H@Z 004eff30 f   AviWriter.obj
 0002:00014fc0       ?DispatchDlg@CChatDlg@@MAEHPAUHWND__@@IIJ@Z 004effc0 f   ChatDlg.obj
 0002:00015510       ?Create@CChatDlg@@UAEHPAUHWND__@@@Z 004f0510 f   ChatDlg.obj
 0002:000155c0       ?Destroy@CChatDlg@@UAEXXZ  004f05c0 f   ChatDlg.obj
 0002:00015670       ?SetEditText@CChatDlg@@QAEXXZ 004f0670 f   ChatDlg.obj
 0002:00015b50       ?IsConnect@CNetPlay@@QAEHXZ 004f0b50 f i ChatDlg.obj
 0002:00015bc0       ?OnCopyData@CChatDlg@@IAEHPAUHWND__@@IJAAH@Z 004f0bc0 f   ChatDlg.obj
 0002:00015d20       ?GetHWnd@CApp@@SAPAUHWND__@@XZ 004f0d20 f i ChatDlg.obj
 0002:00015d60       ?OnInitDialog@CChatDlg@@IAEHPAUHWND__@@IJAAH@Z 004f0d60 f   ChatDlg.obj
 0002:00016050       ?SetChatWnd@CNetPlay@@QAEXPAUHWND__@@@Z 004f1050 f i ChatDlg.obj
 0002:000160a0       ?OnDestroy@CChatDlg@@IAEHPAUHWND__@@IJAAH@Z 004f10a0 f   ChatDlg.obj
 0002:000160e0       ?OnClose@CChatDlg@@IAEHPAUHWND__@@IJAAH@Z 004f10e0 f   ChatDlg.obj
 0002:00016150       ?OnActivate@CChatDlg@@IAEHPAUHWND__@@IJAAH@Z 004f1150 f   ChatDlg.obj
 0002:00016220       ?InputKeyboardDisable@CConfig@@QAEXH@Z 004f1220 f i ChatDlg.obj
 0002:00016270       ?OnSetCursor@CChatDlg@@IAEHPAUHWND__@@IJAAH@Z 004f1270 f   ChatDlg.obj
 0002:000162b0       ?OnSize@CChatDlg@@IAEHPAUHWND__@@IJAAH@Z 004f12b0 f   ChatDlg.obj
 0002:00016570       ?OnControlColorStatic@CChatDlg@@IAEHPAUHWND__@@IJAAH@Z 004f1570 f   ChatDlg.obj
 0002:00016630       ?OnMessageFocus@CChatDlg@@IAEXPAUHWND__@@I@Z 004f1630 f   ChatDlg.obj
 0002:000166b0       ?OnOK@CChatDlg@@IAEXPAUHWND__@@I@Z 004f16b0 f   ChatDlg.obj
 0002:00016710       ?OnCancel@CChatDlg@@IAEXPAUHWND__@@I@Z 004f1710 f   ChatDlg.obj
 0002:00016780       ?OnSend@CChatDlg@@IAEXPAUHWND__@@I@Z 004f1780 f   ChatDlg.obj
 0002:00016810       ??$?HDU?$char_traits@D@std@@V?$allocator@D@1@@std@@YA?AV?$basic_string@DU?$char_traits@D@std@@V?$allocator@D@2@@0@ABV10@PBD@Z 004f1810 f i ChatDlg.obj
 0002:00016910       ?DispatchDlg@CSearchDlg@@MAEHPAUHWND__@@IIJ@Z 004f1910 f   CheatDlg.obj
 0002:00016d90       ?Create@CSearchDlg@@UAEHPAUHWND__@@@Z 004f1d90 f   CheatDlg.obj
 0002:00016e50       ?Destroy@CSearchDlg@@UAEXXZ 004f1e50 f   CheatDlg.obj
 0002:00016f30       ?OnListUpdate@CSearchDlg@@IAEXXZ 004f1f30 f   CheatDlg.obj
 0002:00017630       ?GetNesMemory@CSearchDlg@@IAEKHK@Z 004f2630 f   CheatDlg.obj
 0002:000176f0       ?GetNES@CEmuThread@@QAEPAVNES@@XZ 004f26f0 f i CheatDlg.obj
 0002:00017730       ?GetSearchMemory@CSearchDlg@@IAEKHK@Z 004f2730 f   CheatDlg.obj
 0002:00017850       ?GetSearchMemoryOld@CSearchDlg@@IAEKHK@Z 004f2850 f   CheatDlg.obj
 0002:00017970       ?CompareData@CSearchDlg@@IAEHHKK@Z 004f2970 f   CheatDlg.obj
 0002:00017a70       ?CompareRange@CSearchDlg@@IAEHHKKK@Z 004f2a70 f   CheatDlg.obj
 0002:00017e50       ?OnInitDialog@CSearchDlg@@IAEHPAUHWND__@@IJAAH@Z 004f2e50 f   CheatDlg.obj
 0002:00018550       ?LoadMenuA@CApp@@SAPAUHMENU__@@I@Z 004f3550 f i CheatDlg.obj
 0002:000185b0       ?OnActivate@CSearchDlg@@IAEHPAUHWND__@@IJAAH@Z 004f35b0 f   CheatDlg.obj
 0002:000186d0       ?IsRunning@CEmuThread@@QAEHXZ 004f36d0 f i CheatDlg.obj
 0002:00018720       ?OnClose@CSearchDlg@@IAEHPAUHWND__@@IJAAH@Z 004f3720 f   CheatDlg.obj
 0002:00018790       ?OnContextMenu@CSearchDlg@@IAEHPAUHWND__@@IJAAH@Z 004f3790 f   CheatDlg.obj
 0002:000189d0       ?OnOK@CSearchDlg@@IAEXPAUHWND__@@I@Z 004f39d0 f   CheatDlg.obj
 0002:00018a10       ?OnCancel@CSearchDlg@@IAEXPAUHWND__@@I@Z 004f3a10 f   CheatDlg.obj
 0002:00018a80       ?OnRadixCommand@CSearchDlg@@IAEXPAUHWND__@@I@Z 004f3a80 f   CheatDlg.obj
 0002:00018b00       ?OnLengthCommand@CSearchDlg@@IAEXPAUHWND__@@I@Z 004f3b00 f   CheatDlg.obj
 0002:00018b70       ?OnStart@CSearchDlg@@IAEXPAUHWND__@@I@Z 004f3b70 f   CheatDlg.obj
 0002:00018da0       ?OnUpdate@CSearchDlg@@IAEXPAUHWND__@@I@Z 004f3da0 f   CheatDlg.obj
 0002:00018f90       ?OnUndo@CSearchDlg@@IAEXPAUHWND__@@I@Z 004f3f90 f   CheatDlg.obj
 0002:00019040       ?OnSearchCommand@CSearchDlg@@IAEXPAUHWND__@@I@Z 004f4040 f   CheatDlg.obj
 0002:00019410       ?OnSearchData@CSearchDlg@@IAEXPAUHWND__@@I@Z 004f4410 f   CheatDlg.obj
 0002:00019890       ?OnWriteData@CSearchDlg@@IAEXPAUHWND__@@I@Z 004f4890 f   CheatDlg.obj
 0002:00019a90       ?OnCodeAppend@CSearchDlg@@IAEXPAUHWND__@@I@Z 004f4a90 f   CheatDlg.obj
 0002:00019c70       ??0CCheatCodeEditDlg@@QAE@XZ 004f4c70 f i CheatDlg.obj
 0002:00019d30       ??1CCheatCodeEditDlg@@UAE@XZ 004f4d30 f i CheatDlg.obj
 0002:00019de0       ??0CHEATCODE@@QAE@ABV0@@Z  004f4de0 f i CheatDlg.obj
 0002:00019e90       ??1CHEATCODE@@QAE@XZ       004f4e90 f i CheatDlg.obj
 0002:00019ef0       ??_GCCheatCodeEditDlg@@UAEPAXI@Z 004f4ef0 f i CheatDlg.obj
 0002:00019ef0       ??_ECCheatCodeEditDlg@@UAEPAXI@Z 004f4ef0 f i CheatDlg.obj
 0002:00019f60       ??0CHEATCODE@@QAE@XZ       004f4f60 f i CheatDlg.obj
 0002:00019fc0       ?OnDoubleClickListView@CSearchDlg@@IAEXPAUHWND__@@IPAUtagNMHDR@@AAJ@Z 004f4fc0 f   CheatDlg.obj
 0002:0001a110       ?DispatchDlg@CCheatCodeEditDlg@@MAEHPAUHWND__@@IIJ@Z 004f5110 f   CheatDlg.obj
 0002:0001a260       ?DoModal@CCheatCodeEditDlg@@UAEHPAUHWND__@@@Z 004f5260 f   CheatDlg.obj
 0002:0001a2e0       ?OnInitDialog@CCheatCodeEditDlg@@IAEHPAUHWND__@@IJAAH@Z 004f52e0 f   CheatDlg.obj
 0002:0001a650       ?OnOK@CCheatCodeEditDlg@@IAEXPAUHWND__@@I@Z 004f5650 f   CheatDlg.obj
 0002:0001aa30       ?OnCancel@CCheatCodeEditDlg@@IAEXPAUHWND__@@I@Z 004f5a30 f   CheatDlg.obj
 0002:0001aaa0       ?DispatchDlg@CCheatCodeInputDlg@@MAEHPAUHWND__@@IIJ@Z 004f5aa0 f   CheatDlg.obj
 0002:0001abf0       ?DoModal@CCheatCodeInputDlg@@UAEHPAUHWND__@@@Z 004f5bf0 f   CheatDlg.obj
 0002:0001ac70       ?OnInitDialog@CCheatCodeInputDlg@@IAEHPAUHWND__@@IJAAH@Z 004f5c70 f   CheatDlg.obj
 0002:0001ad20       ?OnOK@CCheatCodeInputDlg@@IAEXPAUHWND__@@I@Z 004f5d20 f   CheatDlg.obj
 0002:0001ae70       ?OnCancel@CCheatCodeInputDlg@@IAEXPAUHWND__@@I@Z 004f5e70 f   CheatDlg.obj
 0002:0001aee0       ?DispatchDlg@CCheatCodeDlg@@MAEHPAUHWND__@@IIJ@Z 004f5ee0 f   CheatDlg.obj
 0002:0001b380       ?DoModal@CCheatCodeDlg@@UAEHPAUHWND__@@@Z 004f6380 f   CheatDlg.obj
 0002:0001b410       ?OnListUpdate@CCheatCodeDlg@@IAEXXZ 004f6410 f   CheatDlg.obj
 0002:0001b7c0       ?OnInitDialog@CCheatCodeDlg@@IAEHPAUHWND__@@IJAAH@Z 004f67c0 f   CheatDlg.obj
 0002:0001bc10       ?GetInstance@CApp@@SAPAUHINSTANCE__@@XZ 004f6c10 f i CheatDlg.obj
 0002:0001bc50       ?OnDestroy@CCheatCodeDlg@@IAEHPAUHWND__@@IJAAH@Z 004f6c50 f   CheatDlg.obj
 0002:0001bd10       ?OnTimer@CCheatCodeDlg@@IAEHPAUHWND__@@IJAAH@Z 004f6d10 f   CheatDlg.obj
 0002:0001bd90       ?OnKeyDownListView@CCheatCodeDlg@@IAEXPAUHWND__@@IPAUtagNMHDR@@AAJ@Z 004f6d90 f   CheatDlg.obj
 0002:0001c060       ?OnClickListView@CCheatCodeDlg@@IAEXPAUHWND__@@IPAUtagNMHDR@@AAJ@Z 004f7060 f   CheatDlg.obj
 0002:0001c320       ?OnDblClkListView@CCheatCodeDlg@@IAEXPAUHWND__@@IPAUtagNMHDR@@AAJ@Z 004f7320 f   CheatDlg.obj
 0002:0001c430       ?OnOK@CCheatCodeDlg@@IAEXPAUHWND__@@I@Z 004f7430 f   CheatDlg.obj
 0002:0001c4b0       ?OnCancel@CCheatCodeDlg@@IAEXPAUHWND__@@I@Z 004f74b0 f   CheatDlg.obj
 0002:0001c600       ?OnEnable@CCheatCodeDlg@@IAEXPAUHWND__@@I@Z 004f7600 f   CheatDlg.obj
 0002:0001c670       ?OnDisable@CCheatCodeDlg@@IAEXPAUHWND__@@I@Z 004f7670 f   CheatDlg.obj
 0002:0001c6e0       ?OnClear@CCheatCodeDlg@@IAEXPAUHWND__@@I@Z 004f76e0 f   CheatDlg.obj
 0002:0001c750       ?OnRemove@CCheatCodeDlg@@IAEXPAUHWND__@@I@Z 004f7750 f   CheatDlg.obj
 0002:0001c880       ?OnInput@CCheatCodeDlg@@IAEXPAUHWND__@@I@Z 004f7880 f   CheatDlg.obj
 0002:0001cdf0       ??0CCheatCodeInputDlg@@QAE@XZ 004f7df0 f i CheatDlg.obj
 0002:0001cec0       ??1CCheatCodeInputDlg@@UAE@XZ 004f7ec0 f i CheatDlg.obj
 0002:0001cf80       ??_ECCheatCodeInputDlg@@UAEPAXI@Z 004f7f80 f i CheatDlg.obj
 0002:0001cf80       ??_GCCheatCodeInputDlg@@UAEPAXI@Z 004f7f80 f i CheatDlg.obj
 0002:0001cff0       ?OnEdit@CCheatCodeDlg@@IAEXPAUHWND__@@I@Z 004f7ff0 f   CheatDlg.obj
 0002:0001d230       ?OnLoad@CCheatCodeDlg@@IAEXPAUHWND__@@I@Z 004f8230 f   CheatDlg.obj
 0002:0001dd60       ?GetRomPath@ROM@@QAEPBDXZ  004f8d60 f i CheatDlg.obj
 0002:0001dda0       ?GetRomName@ROM@@QAEPBDXZ  004f8da0 f i CheatDlg.obj
 0002:0001dde0       ?OnSave@CCheatCodeDlg@@IAEXPAUHWND__@@I@Z 004f8de0 f   CheatDlg.obj
 0002:0001e450       ?size@?$vector@VCHEATCODE@@V?$allocator@VCHEATCODE@@@std@@@std@@QBEIXZ 004f9450 f i CheatDlg.obj
 0002:0001e4a0       ??A?$vector@VCHEATCODE@@V?$allocator@VCHEATCODE@@@std@@@std@@QAEAAVCHEATCODE@@I@Z 004f94a0 f i CheatDlg.obj
 0002:0001e5e0       ?push_back@?$vector@VCHEATCODE@@V?$allocator@VCHEATCODE@@@std@@@std@@QAEXABVCHEATCODE@@@Z 004f95e0 f i CheatDlg.obj
 0002:0001e750       ?clear@?$vector@VCHEATCODE@@V?$allocator@VCHEATCODE@@@std@@@std@@QAEXXZ 004f9750 f i CheatDlg.obj
 0002:0001e8e0       ??1?$_Vector_iterator@VCHEATCODE@@V?$allocator@VCHEATCODE@@@std@@@std@@QAE@XZ 004f98e0 f i CheatDlg.obj
 0002:0001e930       ??0?$_Vector_const_iterator@VCHEATCODE@@V?$allocator@VCHEATCODE@@@std@@@std@@QAE@ABV01@@Z 004f9930 f i CheatDlg.obj
 0002:0001e9a0       ??1?$_Vector_const_iterator@VCHEATCODE@@V?$allocator@VCHEATCODE@@@std@@@std@@QAE@XZ 004f99a0 f i CheatDlg.obj
 0002:0001e9f0       ??0?$_Ranit@VCHEATCODE@@HPBV1@ABV1@@std@@QAE@ABU01@@Z 004f99f0 f i CheatDlg.obj
 0002:0001ea50       ??1?$_Ranit@VCHEATCODE@@HPBV1@ABV1@@std@@QAE@XZ 004f9a50 f i CheatDlg.obj
 0002:0001eaa0       ??0?$_Iterator_with_base@Urandom_access_iterator_tag@std@@VCHEATCODE@@HPBV3@ABV3@V_Iterator_base@2@@std@@QAE@ABU01@@Z 004f9aa0 f i CheatDlg.obj
 0002:0001eb00       ??0_Iterator_base@std@@QAE@ABV01@@Z 004f9b00 f i CheatDlg.obj
 0002:0001eb80       ??4_Iterator_base@std@@QAEAAV01@ABV01@@Z 004f9b80 f i CheatDlg.obj
 0002:0001ec90       ?_Adopt@_Iterator_base@std@@QAEXPBV_Container_base_secure@2@@Z 004f9c90 f i CheatDlg.obj
 0002:0001edc0       ?_Orphan_me@_Iterator_base@std@@QAEXXZ 004f9dc0 f i CheatDlg.obj
 0002:0001ee90       ??1?$_Iterator_with_base@Urandom_access_iterator_tag@std@@VCHEATCODE@@HPBV3@ABV3@V_Iterator_base@2@@std@@QAE@XZ 004f9e90 f i CheatDlg.obj
 0002:0001eee0       ??1_Iterator_base@std@@QAE@XZ 004f9ee0 f i CheatDlg.obj
 0002:0001efd0       ?capacity@?$vector@VCHEATCODE@@V?$allocator@VCHEATCODE@@@std@@@std@@QBEIXZ 004f9fd0 f i CheatDlg.obj
 0002:0001f050       ?begin@?$vector@VCHEATCODE@@V?$allocator@VCHEATCODE@@@std@@@std@@QAE?AV?$_Vector_iterator@VCHEATCODE@@V?$allocator@VCHEATCODE@@@std@@@2@XZ 004fa050 f i CheatDlg.obj
 0002:0001f0e0       ?end@?$vector@VCHEATCODE@@V?$allocator@VCHEATCODE@@@std@@@std@@QAE?AV?$_Vector_iterator@VCHEATCODE@@V?$allocator@VCHEATCODE@@@std@@@2@XZ 004fa0e0 f i CheatDlg.obj
 0002:0001f170       ?insert@?$vector@VCHEATCODE@@V?$allocator@VCHEATCODE@@@std@@@std@@QAE?AV?$_Vector_iterator@VCHEATCODE@@V?$allocator@VCHEATCODE@@@std@@@2@V?$_Vector_const_iterator@VCHEATCODE@@V?$allocator@VCHEATCODE@@@std@@@2@ABVCHEATCODE@@@Z 004fa170 f i CheatDlg.obj
 0002:0001f370       ?erase@?$vector@VCHEATCODE@@V?$allocator@VCHEATCODE@@@std@@@std@@QAE?AV?$_Vector_iterator@VCHEATCODE@@V?$allocator@VCHEATCODE@@@std@@@2@V?$_Vector_const_iterator@VCHEATCODE@@V?$allocator@VCHEATCODE@@@std@@@2@0@Z 004fa370 f i CheatDlg.obj
 0002:0001f600       ?_Ufill@?$vector@VCHEATCODE@@V?$allocator@VCHEATCODE@@@std@@@std@@IAEPAVCHEATCODE@@PAV3@IABV3@@Z 004fa600 f i CheatDlg.obj
 0002:0001f680       ?_Orphan_range@?$vector@VCHEATCODE@@V?$allocator@VCHEATCODE@@@std@@@std@@IBEXPAVCHEATCODE@@0@Z 004fa680 f i CheatDlg.obj
 0002:0001f780       ?_Make_iter@?$vector@VCHEATCODE@@V?$allocator@VCHEATCODE@@@std@@@std@@QBE?AV?$_Vector_iterator@VCHEATCODE@@V?$allocator@VCHEATCODE@@@std@@@2@V?$_Vector_const_iterator@VCHEATCODE@@V?$allocator@VCHEATCODE@@@std@@@2@@Z 004fa780 f i CheatDlg.obj
 0002:0001f850       ?_Destroy@?$vector@VCHEATCODE@@V?$allocator@VCHEATCODE@@@std@@@std@@IAEXPAVCHEATCODE@@0@Z 004fa850 f i CheatDlg.obj
 0002:0001f8c0       ?_Insert_n@?$vector@VCHEATCODE@@V?$allocator@VCHEATCODE@@@std@@@std@@IAEXV?$_Vector_const_iterator@VCHEATCODE@@V?$allocator@VCHEATCODE@@@std@@@2@IABVCHEATCODE@@@Z 004fa8c0 f i CheatDlg.obj
 0002:0001fee0       ??0?$_Vector_iterator@VCHEATCODE@@V?$allocator@VCHEATCODE@@@std@@@std@@QAE@PAVCHEATCODE@@PBV_Container_base_secure@1@@Z 004faee0 f i CheatDlg.obj
 0002:0001ff40       ??H?$_Vector_iterator@VCHEATCODE@@V?$allocator@VCHEATCODE@@@std@@@std@@QBE?AV01@H@Z 004faf40 f i CheatDlg.obj
 0002:00020060       ??G?$_Vector_const_iterator@VCHEATCODE@@V?$allocator@VCHEATCODE@@@std@@@std@@QBEHABV01@@Z 004fb060 f i CheatDlg.obj
 0002:000200d0       ??9?$_Vector_const_iterator@VCHEATCODE@@V?$allocator@VCHEATCODE@@@std@@@std@@QBE_NABV01@@Z 004fb0d0 f i CheatDlg.obj
 0002:00020140       ??M?$_Vector_const_iterator@VCHEATCODE@@V?$allocator@VCHEATCODE@@@std@@@std@@QBE_NABV01@@Z 004fb140 f i CheatDlg.obj
 0002:000201b0       ??0?$_Vector_iterator@VCHEATCODE@@V?$allocator@VCHEATCODE@@@std@@@std@@QAE@ABV01@@Z 004fb1b0 f i CheatDlg.obj
 0002:00020210       ?max_size@?$vector@VCHEATCODE@@V?$allocator@VCHEATCODE@@@std@@@std@@QBEIXZ 004fb210 f i CheatDlg.obj
 0002:00020270       ?_Xlen@?$vector@VCHEATCODE@@V?$allocator@VCHEATCODE@@@std@@@std@@KAXXZ 004fb270 f i CheatDlg.obj
 0002:00020350       ??0length_error@std@@QAE@ABV?$basic_string@DU?$char_traits@D@std@@V?$allocator@D@2@@1@@Z 004fb350 f i CheatDlg.obj
 0002:000203c0       ??0logic_error@std@@QAE@ABV?$basic_string@DU?$char_traits@D@std@@V?$allocator@D@2@@1@@Z 004fb3c0 f i CheatDlg.obj
 0002:00020480       ?what@logic_error@std@@UBEPBDXZ 004fb480 f i CheatDlg.obj
 0002:000204e0       ??_Elogic_error@std@@UAEPAXI@Z 004fb4e0 f i CheatDlg.obj
 0002:000204e0       ??_Glogic_error@std@@UAEPAXI@Z 004fb4e0 f i CheatDlg.obj
 0002:00020550       ??1logic_error@std@@UAE@XZ 004fb550 f i CheatDlg.obj
 0002:000205c0       ??1length_error@std@@UAE@XZ 004fb5c0 f i CheatDlg.obj
 0002:00020620       ??_Glength_error@std@@UAEPAXI@Z 004fb620 f i CheatDlg.obj
 0002:00020620       ??_Elength_error@std@@UAEPAXI@Z 004fb620 f i CheatDlg.obj
 0002:00020690       ??0logic_error@std@@QAE@ABV01@@Z 004fb690 f i CheatDlg.obj
 0002:00020760       ?deallocate@?$allocator@VCHEATCODE@@@std@@QAEXPAVCHEATCODE@@I@Z 004fb760 f i CheatDlg.obj
 0002:000207c0       ?allocate@?$allocator@VCHEATCODE@@@std@@QAEPAVCHEATCODE@@I@Z 004fb7c0 f i CheatDlg.obj
 0002:00020820       ??Y?$_Vector_iterator@VCHEATCODE@@V?$allocator@VCHEATCODE@@@std@@@std@@QAEAAV01@H@Z 004fb820 f i CheatDlg.obj
 0002:00020880       ??0?$_Vector_const_iterator@VCHEATCODE@@V?$allocator@VCHEATCODE@@@std@@@std@@QAE@PAVCHEATCODE@@PBV_Container_base_secure@1@@Z 004fb880 f i CheatDlg.obj
 0002:000209b0       ??8?$_Vector_const_iterator@VCHEATCODE@@V?$allocator@VCHEATCODE@@@std@@@std@@QBE_NABV01@@Z 004fb9b0 f i CheatDlg.obj
 0002:00020a20       ?_Compat@?$_Vector_const_iterator@VCHEATCODE@@V?$allocator@VCHEATCODE@@@std@@@std@@QBEXABV12@@Z 004fba20 f i CheatDlg.obj
 0002:00020af0       ??0length_error@std@@QAE@ABV01@@Z 004fbaf0 f i CheatDlg.obj
 0002:00020b60       ??0?$_Ranit@VCHEATCODE@@HPBV1@ABV1@@std@@QAE@XZ 004fbb60 f i CheatDlg.obj
 0002:00020bc0       ??0?$_Iterator_with_base@Urandom_access_iterator_tag@std@@VCHEATCODE@@HPBV3@ABV3@V_Iterator_base@2@@std@@QAE@XZ 004fbbc0 f i CheatDlg.obj
 0002:00020c20       ??0_Iterator_base@std@@QAE@XZ 004fbc20 f i CheatDlg.obj
 0002:00020c70       ?max_size@?$allocator@VCHEATCODE@@@std@@QBEIXZ 004fbc70 f i CheatDlg.obj
 0002:00020ce0       ??Y?$_Vector_const_iterator@VCHEATCODE@@V?$allocator@VCHEATCODE@@@std@@@std@@QAEAAV01@H@Z 004fbce0 f i CheatDlg.obj
 0002:00020e50       ?_Getmycont@_Iterator_base@std@@QBEPBV_Container_base_secure@2@XZ 004fbe50 f i CheatDlg.obj
 0002:00020e90       ?_Has_container@_Iterator_base@std@@QBE_NXZ 004fbe90 f i CheatDlg.obj
 0002:00020ee0       ??$unchecked_copy@PAVCHEATCODE@@PAV1@@stdext@@YAPAVCHEATCODE@@PAV1@00@Z 004fbee0 f i CheatDlg.obj
 0002:00020fb0       ??$unchecked_uninitialized_fill_n@PAVCHEATCODE@@IV1@V?$allocator@VCHEATCODE@@@std@@@stdext@@YAXPAVCHEATCODE@@IABV1@AAV?$allocator@VCHEATCODE@@@std@@@Z 004fbfb0 f i CheatDlg.obj
 0002:00021050       ??$_Destroy_range@V?$allocator@VCHEATCODE@@@std@@@std@@YAXPAVCHEATCODE@@0AAV?$allocator@VCHEATCODE@@@0@@Z 004fc050 f i CheatDlg.obj
 0002:000210d0       ??$_Umove@PAVCHEATCODE@@@?$vector@VCHEATCODE@@V?$allocator@VCHEATCODE@@@std@@@std@@IAEPAVCHEATCODE@@PAV2@00@Z 004fc0d0 f i CheatDlg.obj
 0002:00021140       ??$fill@PAVCHEATCODE@@V1@@std@@YAXPAVCHEATCODE@@0ABV1@@Z 004fc140 f i CheatDlg.obj
 0002:000211b0       ??$_Unchecked_move_backward@PAVCHEATCODE@@PAV1@@stdext@@YAPAVCHEATCODE@@PAV1@00@Z 004fc1b0 f i CheatDlg.obj
 0002:00021280       ??$_Allocate@VCHEATCODE@@@std@@YAPAVCHEATCODE@@IPAV1@@Z 004fc280 f i CheatDlg.obj
 0002:00021320       ??$_Checked_base@PAVCHEATCODE@@@std@@YAPAVCHEATCODE@@AAPAV1@@Z 004fc320 f i CheatDlg.obj
 0002:000213b0       ??$_Iter_random@PAVCHEATCODE@@PAV1@@std@@YA?AUrandom_access_iterator_tag@0@ABQAVCHEATCODE@@0@Z 004fc3b0 f i CheatDlg.obj
 0002:00021420       ??$_Ptr_cat@PAVCHEATCODE@@PAV1@@std@@YA?AU_Nonscalar_ptr_iterator_tag@0@AAPAVCHEATCODE@@0@Z 004fc420 f i CheatDlg.obj
 0002:00021490       ??$_Copy_opt@PAVCHEATCODE@@PAV1@@std@@YAPAVCHEATCODE@@PAV1@00Urandom_access_iterator_tag@0@U_Nonscalar_ptr_iterator_tag@0@U_Range_checked_iterator_tag@0@@Z 004fc490 f i CheatDlg.obj
 0002:00021550       ??$_Uninit_fill_n@PAVCHEATCODE@@IV1@V?$allocator@VCHEATCODE@@@std@@@std@@YAXPAVCHEATCODE@@IABV1@AAV?$allocator@VCHEATCODE@@@0@U_Nonscalar_ptr_iterator_tag@0@U_Range_checked_iterator_tag@0@@Z 004fc550 f i CheatDlg.obj
 0002:00021660       ??$_Destroy_range@V?$allocator@VCHEATCODE@@@std@@@std@@YAXPAVCHEATCODE@@0AAV?$allocator@VCHEATCODE@@@0@U_Nonscalar_ptr_iterator_tag@0@@Z 004fc660 f i CheatDlg.obj
 0002:000216d0       ??$_Unchecked_uninitialized_move@PAVCHEATCODE@@PAV1@V?$allocator@VCHEATCODE@@@std@@@stdext@@YAPAVCHEATCODE@@PAV1@00AAV?$allocator@VCHEATCODE@@@std@@@Z 004fc6d0 f i CheatDlg.obj
 0002:00021780       ??$_Fill@PAVCHEATCODE@@V1@@std@@YAXPAVCHEATCODE@@0ABV1@@Z 004fc780 f i CheatDlg.obj
 0002:00021810       ??$_Move_cat@PAVCHEATCODE@@@std@@YA?AU_Undefined_move_tag@0@ABQAVCHEATCODE@@@Z 004fc810 f i CheatDlg.obj
 0002:00021880       ??$_Move_backward_opt@PAVCHEATCODE@@PAV1@Urandom_access_iterator_tag@std@@U_Undefined_move_tag@3@@std@@YAPAVCHEATCODE@@PAV1@00Urandom_access_iterator_tag@0@U_Undefined_move_tag@0@U_Range_checked_iterator_tag@0@@Z 004fc880 f i CheatDlg.obj
 0002:00021920       ??4CHEATCODE@@QAEAAV0@ABV0@@Z 004fc920 f i CheatDlg.obj
 0002:000219d0       ?construct@?$allocator@VCHEATCODE@@@std@@QAEXPAVCHEATCODE@@ABV3@@Z 004fc9d0 f i CheatDlg.obj
 0002:00021a30       ?destroy@?$allocator@VCHEATCODE@@@std@@QAEXPAVCHEATCODE@@@Z 004fca30 f i CheatDlg.obj
 0002:00021a90       ??$_Checked_base@PAVCHEATCODE@@@std@@YAPAVCHEATCODE@@AAPAV1@U_Unchanged_checked_iterator_base_type_tag@0@@Z 004fca90 f i CheatDlg.obj
 0002:00021ad0       ??$_Copy_opt@PAVCHEATCODE@@PAV1@Uforward_iterator_tag@std@@@std@@YAPAVCHEATCODE@@PAV1@00Uforward_iterator_tag@0@U_Nonscalar_ptr_iterator_tag@0@U_Range_checked_iterator_tag@0@@Z 004fcad0 f i CheatDlg.obj
 0002:00021b70       ??$_Uninit_move@PAVCHEATCODE@@PAV1@V?$allocator@VCHEATCODE@@@std@@U_Undefined_move_tag@3@@std@@YAPAVCHEATCODE@@PAV1@00AAV?$allocator@VCHEATCODE@@@0@U_Undefined_move_tag@0@U_Range_checked_iterator_tag@0@@Z 004fcb70 f i CheatDlg.obj
 0002:00021bd0       ??$_Debug_range@PAVCHEATCODE@@@std@@YAXPAVCHEATCODE@@0PB_WI@Z 004fcbd0 f i CheatDlg.obj
 0002:00021c50       ??$_Copy_backward_opt@PAVCHEATCODE@@PAV1@@std@@YAPAVCHEATCODE@@PAV1@00Urandom_access_iterator_tag@0@U_Nonscalar_ptr_iterator_tag@0@U_Range_checked_iterator_tag@0@@Z 004fcc50 f i CheatDlg.obj
 0002:00021d10       ??$_Construct@VCHEATCODE@@V1@@std@@YAXPAVCHEATCODE@@ABV1@@Z 004fcd10 f i CheatDlg.obj
 0002:00021e00       ??2@YAPAXIPAX@Z            004fce00 f i CheatDlg.obj
 0002:00021e40       ??3@YAXPAX0@Z              004fce40 f i CheatDlg.obj
 0002:00021e70       ??$_Destroy@VCHEATCODE@@@std@@YAXPAVCHEATCODE@@@Z 004fce70 f i CheatDlg.obj
 0002:00021ec0       ??_GCHEATCODE@@QAEPAXI@Z   004fcec0 f i CheatDlg.obj
 0002:00021f30       ??$unchecked_uninitialized_copy@PAVCHEATCODE@@PAV1@V?$allocator@VCHEATCODE@@@std@@@stdext@@YAPAVCHEATCODE@@PAV1@00AAV?$allocator@VCHEATCODE@@@std@@@Z 004fcf30 f i CheatDlg.obj
 0002:00021fe0       ??$_Iter_cat@PAVCHEATCODE@@@std@@YA?AUrandom_access_iterator_tag@0@ABQAVCHEATCODE@@@Z 004fcfe0 f i CheatDlg.obj
 0002:00022050       ??$_Debug_range2@PAVCHEATCODE@@@std@@YAXPAVCHEATCODE@@0PB_WIUrandom_access_iterator_tag@0@@Z 004fd050 f i CheatDlg.obj
 0002:000220f0       ??$_Copy_backward_opt@PAVCHEATCODE@@PAV1@Uforward_iterator_tag@std@@@std@@YAPAVCHEATCODE@@PAV1@00Uforward_iterator_tag@0@U_Nonscalar_ptr_iterator_tag@0@U_Range_checked_iterator_tag@0@@Z 004fd0f0 f i CheatDlg.obj
 0002:00022190       ??$_Uninit_copy@PAVCHEATCODE@@PAV1@V?$allocator@VCHEATCODE@@@std@@@std@@YAPAVCHEATCODE@@PAV1@00AAV?$allocator@VCHEATCODE@@@0@U_Nonscalar_ptr_iterator_tag@0@U_Range_checked_iterator_tag@0@@Z 004fd190 f i CheatDlg.obj
 0002:000222e0       ??$_Debug_pointer@VCHEATCODE@@@std@@YAXPAVCHEATCODE@@PB_WI@Z 004fd2e0 f i CheatDlg.obj
 0002:00022340       ?AddRef@COM@@SAJXZ         004fd340 f   Com.obj
 0002:000223f0       ?Release@COM@@SAXXZ        004fd3f0 f   Com.obj
 0002:00022490       ?Load@CConfig@@QAEXXZ      004fd490 f   Config.obj
 0002:00024b10       ?Save@CConfig@@QAEXXZ      004ffb10 f   Config.obj
 0002:00025f90       ?ButtonCheck@CConfig@@QAEHHH@Z 00500f90 f   Config.obj
 0002:000260f0       ?ExButtonCheck@CConfig@@QAEHHH@Z 005010f0 f   Config.obj
 0002:000261b0       ?NsfButtonCheck@CConfig@@QAEHH@Z 005011b0 f   Config.obj
 0002:00026250       ?ButtonCheck@CConfig@@QAEHHPAG@Z 00501250 f   Config.obj
 0002:000262f0       ?ShortcutToKeyName@CConfig@@QAE?AV?$basic_string@DU?$char_traits@D@std@@V?$allocator@D@2@@std@@H@Z 005012f0 f   Config.obj
 0002:000265e0       ?Load@CGameOption@@QAEXK@Z 005015e0 f   Config.obj
 0002:00026760       ?Save@CGameOption@@QAEXPBDK@Z 00501760 f   Config.obj
 0002:000268e0       ?Load@CGameOption@@QAEXKK@Z 005018e0 f   Config.obj
 0002:00026a40       ?Save@CGameOption@@QAEXPBDKK@Z 00501a40 f   Config.obj
 0002:00026ba0       ??0CConfig@@QAE@XZ         00501ba0 f i Config.obj
 0002:00026c10       ?Default@CConfig@@QAEXXZ   00501c10 f i Config.obj
 0002:00026d20       ?Default@CCfgGeneral@@QAEXXZ 00501d20 f i Config.obj
 0002:00026fa0       ?Default@CCfgPath@@QAEXXZ  00501fa0 f i Config.obj
 0002:00027170       ?Default@CCfgEmulator@@QAEXXZ 00502170 f i Config.obj
 0002:00027240       ?Default@CCfgGraphics@@QAEXXZ 00502240 f i Config.obj
 0002:000273a0       ?Default@CCfgSound@@QAEXXZ 005023a0 f i Config.obj
 0002:00027470       ?Default@CCfgShortCut@@QAEXXZ 00502470 f i Config.obj
 0002:00027b60       ?Default@CCfgLanguage@@QAEXXZ 00502b60 f i Config.obj
 0002:00027bb0       ?Default@CCfgController@@QAEXXZ 00502bb0 f i Config.obj
 0002:00027c60       ?DefaultController1@CCfgController@@QAEXXZ 00502c60 f i Config.obj
 0002:00027d70       ?DefaultController2@CCfgController@@QAEXXZ 00502d70 f i Config.obj
 0002:00027ec0       ?DefaultController3@CCfgController@@QAEXXZ 00502ec0 f i Config.obj
 0002:00027f50       ?DefaultController4@CCfgController@@QAEXXZ 00502f50 f i Config.obj
 0002:00027fe0       ?DefaultExController0@CCfgController@@QAEXXZ 00502fe0 f i Config.obj
 0002:00028050       ?DefaultExController1@CCfgController@@QAEXXZ 00503050 f i Config.obj
 0002:000280c0       ?DefaultExController2@CCfgController@@QAEXXZ 005030c0 f i Config.obj
 0002:00028130       ?DefaultExController3@CCfgController@@QAEXXZ 00503130 f i Config.obj
 0002:000281a0       ?DefaultNsfController@CCfgController@@QAEXXZ 005031a0 f i Config.obj
 0002:00028280       ?DefaultVSUnisystem@CCfgController@@QAEXXZ 00503280 f i Config.obj
 0002:00028300       ?Default@CCfgMovie@@QAEXXZ 00503300 f i Config.obj
 0002:000283a0       ?Default@CCfgLauncher@@QAEXXZ 005033a0 f i Config.obj
 0002:000284f0       ?Default@CCfgExtraSound@@QAEXXZ 005034f0 f i Config.obj
 0002:00028560       ?Default@CCfgNetPlay@@QAEXXZ 00503560 f i Config.obj
 0002:000286b0       ?DispatchDlg@CControllerPageDlg@@MAEHPAUHWND__@@IIJ@Z 005036b0 f   ControllerDlg.obj
 0002:00028820       ?Create@CControllerPageDlg@@QAEHIPAUHWND__@@@Z 00503820 f   ControllerDlg.obj
 0002:000288c0       ?Destroy@CControllerPageDlg@@UAEXXZ 005038c0 f   ControllerDlg.obj
 0002:00028920       ?OnClicked@CControllerPageDlg@@IAEXPAUHWND__@@I@Z 00503920 f   ControllerDlg.obj
 0002:000289f0       ?OnInitDialog@CControllerPageDlg@@IAEHPAUHWND__@@IJAAH@Z 005039f0 f   ControllerDlg.obj
 0002:00028a30       ?DispatchDlg@CControllerDlg@@MAEHPAUHWND__@@IIJ@Z 00503a30 f   ControllerDlg.obj
 0002:00028d90       ?DoModal@CControllerDlg@@UAEHPAUHWND__@@@Z 00503d90 f   ControllerDlg.obj
 0002:00028e30       ?PreTranslateMessage@CControllerDlg@@UAEHPAUtagMSG@@@Z 00503e30 f   ControllerDlg.obj
 0002:00028ea0       ?OnInitialMember@CControllerDlg@@IAEXXZ 00503ea0 f   ControllerDlg.obj
 0002:00029650       ?OnPageSetup@CControllerDlg@@IAEXI@Z 00504650 f   ControllerDlg.obj
 0002:000299f0       ?OnInitDialog@CControllerDlg@@IAEHPAUHWND__@@IJAAH@Z 005049f0 f   ControllerDlg.obj
 0002:00029a70       ?OnDestroy@CControllerDlg@@IAEHPAUHWND__@@IJAAH@Z 00504a70 f   ControllerDlg.obj
 0002:00029b10       ?OnSelectChange@CControllerDlg@@IAEXPAUHWND__@@IPAUtagNMHDR@@AAJ@Z 00504b10 f   ControllerDlg.obj
 0002:00029ca0       ?OnSettingSelectChange@CControllerDlg@@IAEXPAUHWND__@@I@Z 00504ca0 f   ControllerDlg.obj
 0002:00029d90       ?OnClicked@CControllerDlg@@IAEXPAUHWND__@@I@Z 00504d90 f   ControllerDlg.obj
 0002:00029e40       ?OnTimer@CControllerDlg@@IAEHPAUHWND__@@IJAAH@Z 00504e40 f   ControllerDlg.obj
 0002:0002a500       ?OnOK@CControllerDlg@@IAEXPAUHWND__@@I@Z 00505500 f   ControllerDlg.obj
 0002:0002a670       ?OnCancel@CControllerDlg@@IAEXPAUHWND__@@I@Z 00505670 f   ControllerDlg.obj
 0002:0002a750       ?OnDefault@CControllerDlg@@IAEXPAUHWND__@@I@Z 00505750 f   ControllerDlg.obj
 0002:0002a920       ?Crc@CRC@@SAKHPAE@Z        00505920 f   Crclib.obj
 0002:0002a9d0       ?CrcRev@CRC@@SAKHPAE@Z     005059d0 f   Crclib.obj
 0002:0002aa80       ?MakeTable@CRC@@KAXXZ      00505a80 f   Crclib.obj
 0002:0002ab40       ?MakeTableRev@CRC@@KAXXZ   00505b40 f   Crclib.obj
 0002:0002ac00       ?DispatchDlg@CDatachBarcodeDlg@@MAEHPAUHWND__@@IIJ@Z 00505c00 f   DatachBarcodeDlg.obj
 0002:0002aee0       ?Create@CDatachBarcodeDlg@@UAEHPAUHWND__@@@Z 00505ee0 f   DatachBarcodeDlg.obj
 0002:0002af90       ?Destroy@CDatachBarcodeDlg@@UAEXXZ 00505f90 f   DatachBarcodeDlg.obj
 0002:0002b040       ?OnInitDialog@CDatachBarcodeDlg@@IAEHPAUHWND__@@IJAAH@Z 00506040 f   DatachBarcodeDlg.obj
 0002:0002b1d0       ?OnActivate@CDatachBarcodeDlg@@IAEHPAUHWND__@@IJAAH@Z 005061d0 f   DatachBarcodeDlg.obj
 0002:0002b2c0       ?OnDestroy@CDatachBarcodeDlg@@IAEHPAUHWND__@@IJAAH@Z 005062c0 f   DatachBarcodeDlg.obj
 0002:0002b300       ?OnClose@CDatachBarcodeDlg@@IAEHPAUHWND__@@IJAAH@Z 00506300 f   DatachBarcodeDlg.obj
 0002:0002b390       ?OnCancel@CDatachBarcodeDlg@@IAEXPAUHWND__@@I@Z 00506390 f   DatachBarcodeDlg.obj
 0002:0002b410       ?OnCodeinput@CDatachBarcodeDlg@@IAEXPAUHWND__@@I@Z 00506410 f   DatachBarcodeDlg.obj
 0002:0002b510       ?OnCodeTransfer@CDatachBarcodeDlg@@IAEXPAUHWND__@@I@Z 00506510 f   DatachBarcodeDlg.obj
 0002:0002b620       ?OnCodeCreate@CDatachBarcodeDlg@@IAEXPAUHWND__@@I@Z 00506620 f   DatachBarcodeDlg.obj
 0002:0002b790       ??0CDebugOut@@QAE@XZ       00506790 f   DebugOut.obj
 0002:0002b820       ?Clear@CDebugOut@@QAEXXZ   00506820 f   DebugOut.obj
 0002:0002b8c0       ?Out@CDebugOut@@QAAXPADZZ  005068c0 f   DebugOut.obj
 0002:0002ba60       ?Out@CDebugOut@@QAEXABV?$basic_string@DU?$char_traits@D@std@@V?$allocator@D@2@@std@@@Z 00506a60 f   DebugOut.obj
 0002:0002bad0       ?DispatchDlg@CDipSwitchDlg@@MAEHPAUHWND__@@IIJ@Z 00506ad0 f   DipSwitchDlg.obj
 0002:0002bc50       ?DoModal@CDipSwitchDlg@@UAEHPAUHWND__@@@Z 00506c50 f   DipSwitchDlg.obj
 0002:0002bcd0       ?OnInitDialog@CDipSwitchDlg@@IAEHPAUHWND__@@IJAAH@Z 00506cd0 f   DipSwitchDlg.obj
 0002:0002c050       ?GetVSDipSwitch@NES@@QAEEXZ 00507050 f i DipSwitchDlg.obj
 0002:0002c090       ?GetVSDipSwitchTable@NES@@QAEPAUVSDIPSWITCH@@XZ 00507090 f i DipSwitchDlg.obj
 0002:0002c0d0       ?OnOK@CDipSwitchDlg@@IAEXPAUHWND__@@I@Z 005070d0 f   DipSwitchDlg.obj
 0002:0002c220       ?SetVSDipSwitch@NES@@QAEXE@Z 00507220 f i DipSwitchDlg.obj
 0002:0002c270       ?OnCancel@CDipSwitchDlg@@IAEXPAUHWND__@@I@Z 00507270 f   DipSwitchDlg.obj
 0002:0002c2e0       ??0CDirectDraw@@QAE@XZ     005072e0 f   DirectDraw.obj
 0002:0002c7f0       ??_GCDirectDraw@@UAEPAXI@Z 005077f0 f i DirectDraw.obj
 0002:0002c7f0       ??_ECDirectDraw@@UAEPAXI@Z 005077f0 f i DirectDraw.obj
 0002:0002c860       ??1CDirectDraw@@UAE@XZ     00507860 f   DirectDraw.obj
 0002:0002c920       ?EnumModesCallback@CDirectDraw@@KGJPAU_DDSURFACEDESC2@@PAX@Z 00507920 f   DirectDraw.obj
 0002:0002ca70       ?InitialDDraw@CDirectDraw@@QAEHPAUHWND__@@@Z 00507a70 f   DirectDraw.obj
 0002:0002d010       ?ReleaseDDraw@CDirectDraw@@QAEXXZ 00508010 f   DirectDraw.obj
 0002:0002d130       ?InitialSurface@CDirectDraw@@QAEHH@Z 00508130 f   DirectDraw.obj
 0002:0002e660       ?ReleaseSurface@CDirectDraw@@QAEHXZ 00509660 f   DirectDraw.obj
 0002:0002e9f0       ?RestoreSurfaceSub@CDirectDraw@@IAEHPAUIDirectDrawSurface7@@@Z 005099f0 f   DirectDraw.obj
 0002:0002ea90       ?RestoreSurface@CDirectDraw@@QAEHXZ 00509a90 f   DirectDraw.obj
 0002:0002ec80       ?BeginDisplayChange@CDirectDraw@@QAEHXZ 00509c80 f   DirectDraw.obj
 0002:0002ed80       ?EndDisplayChange@CDirectDraw@@QAEHXZ 00509d80 f   DirectDraw.obj
 0002:0002ee50       ?OnChangeDisplayMode@CDirectDraw@@QAEHXZ 00509e50 f   DirectDraw.obj
 0002:0002f000       ?SetDisplayMode@CDirectDraw@@QAEXKKKK@Z 0050a000 f   DirectDraw.obj
 0002:0002f080       ?GetDisplayMode@CDirectDraw@@QAEXAAK000@Z 0050a080 f   DirectDraw.obj
 0002:0002f100       ?GetDisplayMode@CDirectDraw@@QAEHHAAK000@Z 0050a100 f   DirectDraw.obj
 0002:0002f1f0       ?GetMatchDisplayMode@CDirectDraw@@QAEHKKKK@Z 0050a1f0 f   DirectDraw.obj
 0002:0002f300       ?IsNowDisplayMode@CDirectDraw@@QAEHKKKK@Z 0050a300 f   DirectDraw.obj
 0002:0002f390       ?GetBitMask@CDirectDraw@@IAEXKAAH0@Z 0050a390 f   DirectDraw.obj
 0002:0002f460       ?CalcPaletteTable@CDirectDraw@@QAEHXZ 0050a460 f   DirectDraw.obj
 0002:00030990       ?SetPaletteTable@CDirectDraw@@QAEXPAE@Z 0050b990 f   DirectDraw.obj
 0002:00030a40       ?SetPaletteTable@CDirectDraw@@QAEXPAUtagRGBQUAD@@@Z 0050ba40 f   DirectDraw.obj
 0002:00030b30       ?GetPaletteTable@CDirectDraw@@QAEXPAUtagRGBQUAD@@@Z 0050bb30 f   DirectDraw.obj
 0002:00030c00       ?SetPaletteFile@CDirectDraw@@QAEXPBD@Z 0050bc00 f   DirectDraw.obj
 0002:00030d60       ?SetFullScreenGDI@CDirectDraw@@QAEHH@Z 0050bd60 f   DirectDraw.obj
 0002:00031010       ?RealizePalette@CDirectDraw@@QAEXXZ 0050c010 f   DirectDraw.obj
 0002:000311d0       ?OnScreenDraw@CDirectDraw@@QAEXXZ 0050c1d0 f   DirectDraw.obj
 0002:00031260       ?SetPaletteMode@CDirectDraw@@QAEXHH@Z 0050c260 f   DirectDraw.obj
 0002:000312f0       ?GetPaletteData@CDirectDraw@@QAEXPAUtagRGBQUAD@@@Z 0050c2f0 f   DirectDraw.obj
 0002:00031440       ?GetPaletteData2@CDirectDraw@@QAEXPAUtagRGBQUAD@@@Z 0050c440 f   DirectDraw.obj
 0002:00031520       ?Blt@CDirectDraw@@QAEXXZ   0050c520 f   DirectDraw.obj
 0002:000326b0       ?IsMMX@CDirectDraw@@QAEHXZ 0050d6b0 f i DirectDraw.obj
 0002:000326f0       ?Flip@CDirectDraw@@QAEXXZ  0050d6f0 f   DirectDraw.obj
 0002:000330b0       ?GetZapperHit@CDirectDraw@@QAEEXZ 0050e0b0 f   DirectDraw.obj
 0002:00033270       ?GetZapperPos@CDirectDraw@@QAEXAAJ0@Z 0050e270 f   DirectDraw.obj
 0002:00033860       ?SetZapperPos@CDirectDraw@@QAEXJJ@Z 0050e860 f   DirectDraw.obj
 0002:000338c0       ?SetInfoString@CDirectDraw@@QAEXPBD@Z 0050e8c0 f   DirectDraw.obj
 0002:00033980       ?SetMessageString@CDirectDraw@@QAEXPBD@Z 0050e980 f   DirectDraw.obj
 0002:00033a80       ?RenderString@CDirectDraw@@IAEXHHPBD@Z 0050ea80 f   DirectDraw.obj
 0002:00033d10       ?SetLZSSChar@CDirectDraw@@IAEXPAEPAUIDirectDrawSurface7@@@Z 0050ed10 f   DirectDraw.obj
 0002:000342e0       ?GetPixel@CDirectDraw@@QAEEHH@Z 0050f2e0 f   DirectDraw.obj
 0002:00034370       ?Render16bpp@CDirectDraw@@IAEXPAE0@Z 0050f370 f   DirectDraw.obj
 0002:00034510       ?Render16bppPrefilter@CDirectDraw@@IAEXPAE0@Z 0050f510 f   DirectDraw.obj
 0002:000346b0       ?Render32bpp@CDirectDraw@@IAEXPAE0@Z 0050f6b0 f   DirectDraw.obj
 0002:00034850       ?Render8bpp_Normal@CDirectDraw@@IAEXPAE0AAU_DDSURFACEDESC2@@H@Z 0050f850 f   DirectDraw.obj
 0002:00034930       ?Render8bpp_Scanline@CDirectDraw@@IAEXPAE0AAU_DDSURFACEDESC2@@H@Z 0050f930 f   DirectDraw.obj
 0002:00034a50       ?Render8bpp_Double@CDirectDraw@@IAEXPAE0AAU_DDSURFACEDESC2@@H@Z 0050fa50 f   DirectDraw.obj
 0002:00034d10       ?Render8bpp_DoubleScanline@CDirectDraw@@IAEXPAE0AAU_DDSURFACEDESC2@@H@Z 0050fd10 f   DirectDraw.obj
 0002:00034fe0       ?Render16bpp_Normal@CDirectDraw@@IAEXPAE0AAU_DDSURFACEDESC2@@H@Z 0050ffe0 f   DirectDraw.obj
 0002:00035300       ?Render16bpp_Scanline@CDirectDraw@@IAEXPAE0AAU_DDSURFACEDESC2@@H@Z 00510300 f   DirectDraw.obj
 0002:000357d0       ?Render16bpp_Double@CDirectDraw@@IAEXPAE0AAU_DDSURFACEDESC2@@H@Z 005107d0 f   DirectDraw.obj
 0002:00035d00       ?Render16bpp_DoubleScanline@CDirectDraw@@IAEXPAE0AAU_DDSURFACEDESC2@@H@Z 00510d00 f   DirectDraw.obj
 0002:00036280       ?Render24bpp_Normal@CDirectDraw@@IAEXPAE0AAU_DDSURFACEDESC2@@H@Z 00511280 f   DirectDraw.obj
 0002:000365b0       ?Render24bpp_Scanline@CDirectDraw@@IAEXPAE0AAU_DDSURFACEDESC2@@H@Z 005115b0 f   DirectDraw.obj
 0002:00036ab0       ?Render24bpp_Double@CDirectDraw@@IAEXPAE0AAU_DDSURFACEDESC2@@H@Z 00511ab0 f   DirectDraw.obj
 0002:00036fd0       ?Render24bpp_DoubleScanline@CDirectDraw@@IAEXPAE0AAU_DDSURFACEDESC2@@H@Z 00511fd0 f   DirectDraw.obj
 0002:00037540       ?Render32bpp_Normal@CDirectDraw@@IAEXPAE0AAU_DDSURFACEDESC2@@H@Z 00512540 f   DirectDraw.obj
 0002:00037840       ?Render32bpp_Scanline@CDirectDraw@@IAEXPAE0AAU_DDSURFACEDESC2@@H@Z 00512840 f   DirectDraw.obj
 0002:00037cf0       ?Render32bpp_Double@CDirectDraw@@IAEXPAE0AAU_DDSURFACEDESC2@@H@Z 00512cf0 f   DirectDraw.obj
 0002:000381d0       ?Render32bpp_DoubleScanline@CDirectDraw@@IAEXPAE0AAU_DDSURFACEDESC2@@H@Z 005131d0 f   DirectDraw.obj
 0002:00038700       ?nx_2xSaI_16bpp@CDirectDraw@@IAEXPAE0AAU_DDSURFACEDESC2@@H@Z 00513700 f   DirectDraw.obj
 0002:00039050       ?nx_2xSaI_32bpp@CDirectDraw@@IAEXPAE0AAU_DDSURFACEDESC2@@H@Z 00514050 f   DirectDraw.obj
 0002:00039b60       ?nx_Super2xSaI_16bpp@CDirectDraw@@IAEXPAE0AAU_DDSURFACEDESC2@@H@Z 00514b60 f   DirectDraw.obj
 0002:0003a5a0       ?nx_Super2xSaI_32bpp@CDirectDraw@@IAEXPAE0AAU_DDSURFACEDESC2@@H@Z 005155a0 f   DirectDraw.obj
 0002:0003b190       ?nx_SuperEagle_16bpp@CDirectDraw@@IAEXPAE0AAU_DDSURFACEDESC2@@H@Z 00516190 f   DirectDraw.obj
 0002:0003bab0       ?nx_SuperEagle_32bpp@CDirectDraw@@IAEXPAE0AAU_DDSURFACEDESC2@@H@Z 00516ab0 f   DirectDraw.obj
 0002:0003c580       ?nx_Scale2x_16bpp@CDirectDraw@@IAEXPAE0AAU_DDSURFACEDESC2@@H@Z 00517580 f   DirectDraw.obj
 0002:0003caa0       ?nx_Scale2x_32bpp@CDirectDraw@@IAEXPAE0AAU_DDSURFACEDESC2@@H@Z 00517aa0 f   DirectDraw.obj
 0002:0003cfd0       ?nx_hq2x_16bpp@CDirectDraw@@IAEXPAE0AAU_DDSURFACEDESC2@@H@Z 00517fd0 f   DirectDraw.obj
 0002:00045340       ?nx_hq2x_32bpp@CDirectDraw@@IAEXPAE0AAU_DDSURFACEDESC2@@H@Z 00520340 f   DirectDraw.obj
 0002:0004c710       ?nx_lq2x_16bpp@CDirectDraw@@IAEXPAE0AAU_DDSURFACEDESC2@@H@Z 00527710 f   DirectDraw.obj
 0002:0004ff60       ?nx_lq2x_32bpp@CDirectDraw@@IAEXPAE0AAU_DDSURFACEDESC2@@H@Z 0052af60 f   DirectDraw.obj
 0002:00052eb0       ??0?$vector@UtagDISPLAYMODE@CDirectDraw@@V?$allocator@UtagDISPLAYMODE@CDirectDraw@@@std@@@std@@QAE@XZ 0052deb0 f i DirectDraw.obj
 0002:00052f70       ??1?$vector@UtagDISPLAYMODE@CDirectDraw@@V?$allocator@UtagDISPLAYMODE@CDirectDraw@@@std@@@std@@QAE@XZ 0052df70 f i DirectDraw.obj
 0002:00053010       ?size@?$vector@UtagDISPLAYMODE@CDirectDraw@@V?$allocator@UtagDISPLAYMODE@CDirectDraw@@@std@@@std@@QBEIXZ 0052e010 f i DirectDraw.obj
 0002:00053060       ??A?$vector@UtagDISPLAYMODE@CDirectDraw@@V?$allocator@UtagDISPLAYMODE@CDirectDraw@@@std@@@std@@QAEAAUtagDISPLAYMODE@CDirectDraw@@I@Z 0052e060 f i DirectDraw.obj
 0002:000531a0       ?push_back@?$vector@UtagDISPLAYMODE@CDirectDraw@@V?$allocator@UtagDISPLAYMODE@CDirectDraw@@@std@@@std@@QAEXABUtagDISPLAYMODE@CDirectDraw@@@Z 0052e1a0 f i DirectDraw.obj
 0002:00053310       ??1?$_Vector_val@UtagDISPLAYMODE@CDirectDraw@@V?$allocator@UtagDISPLAYMODE@CDirectDraw@@@std@@@std@@QAE@XZ 0052e310 f i DirectDraw.obj
 0002:00053360       ??1?$_Vector_iterator@UtagDISPLAYMODE@CDirectDraw@@V?$allocator@UtagDISPLAYMODE@CDirectDraw@@@std@@@std@@QAE@XZ 0052e360 f i DirectDraw.obj
 0002:000533b0       ??0?$_Vector_const_iterator@UtagDISPLAYMODE@CDirectDraw@@V?$allocator@UtagDISPLAYMODE@CDirectDraw@@@std@@@std@@QAE@ABV01@@Z 0052e3b0 f i DirectDraw.obj
 0002:00053420       ??1?$_Vector_const_iterator@UtagDISPLAYMODE@CDirectDraw@@V?$allocator@UtagDISPLAYMODE@CDirectDraw@@@std@@@std@@QAE@XZ 0052e420 f i DirectDraw.obj
 0002:00053470       ??0?$_Ranit@UtagDISPLAYMODE@CDirectDraw@@HPBU12@ABU12@@std@@QAE@ABU01@@Z 0052e470 f i DirectDraw.obj
 0002:000534d0       ??1?$_Ranit@UtagDISPLAYMODE@CDirectDraw@@HPBU12@ABU12@@std@@QAE@XZ 0052e4d0 f i DirectDraw.obj
 0002:00053520       ??0?$_Iterator_with_base@Urandom_access_iterator_tag@std@@UtagDISPLAYMODE@CDirectDraw@@HPBU34@ABU34@V_Iterator_base@2@@std@@QAE@ABU01@@Z 0052e520 f i DirectDraw.obj
 0002:00053580       ??1?$_Iterator_with_base@Urandom_access_iterator_tag@std@@UtagDISPLAYMODE@CDirectDraw@@HPBU34@ABU34@V_Iterator_base@2@@std@@QAE@XZ 0052e580 f i DirectDraw.obj
 0002:000535d0       ?capacity@?$vector@UtagDISPLAYMODE@CDirectDraw@@V?$allocator@UtagDISPLAYMODE@CDirectDraw@@@std@@@std@@QBEIXZ 0052e5d0 f i DirectDraw.obj
 0002:00053640       ?end@?$vector@UtagDISPLAYMODE@CDirectDraw@@V?$allocator@UtagDISPLAYMODE@CDirectDraw@@@std@@@std@@QAE?AV?$_Vector_iterator@UtagDISPLAYMODE@CDirectDraw@@V?$allocator@UtagDISPLAYMODE@CDirectDraw@@@std@@@2@XZ 0052e640 f i DirectDraw.obj
 0002:000536d0       ?insert@?$vector@UtagDISPLAYMODE@CDirectDraw@@V?$allocator@UtagDISPLAYMODE@CDirectDraw@@@std@@@std@@QAE?AV?$_Vector_iterator@UtagDISPLAYMODE@CDirectDraw@@V?$allocator@UtagDISPLAYMODE@CDirectDraw@@@std@@@2@V?$_Vector_const_iterator@UtagDISPLAYMODE@CDirectDraw@@V?$allocator@UtagDISPLAYMODE@CDirectDraw@@@std@@@2@ABUtagDISPLAYMODE@CDirectDraw@@@Z 0052e6d0 f i DirectDraw.obj
 0002:000538d0       ?_Buy@?$vector@UtagDISPLAYMODE@CDirectDraw@@V?$allocator@UtagDISPLAYMODE@CDirectDraw@@@std@@@std@@IAE_NI@Z 0052e8d0 f i DirectDraw.obj
 0002:000539b0       ?_Tidy@?$vector@UtagDISPLAYMODE@CDirectDraw@@V?$allocator@UtagDISPLAYMODE@CDirectDraw@@@std@@@std@@IAEXXZ 0052e9b0 f i DirectDraw.obj
 0002:00053a80       ?_Ufill@?$vector@UtagDISPLAYMODE@CDirectDraw@@V?$allocator@UtagDISPLAYMODE@CDirectDraw@@@std@@@std@@IAEPAUtagDISPLAYMODE@CDirectDraw@@PAU34@IABU34@@Z 0052ea80 f i DirectDraw.obj
 0002:00053b00       ?_Orphan_range@?$vector@UtagDISPLAYMODE@CDirectDraw@@V?$allocator@UtagDISPLAYMODE@CDirectDraw@@@std@@@std@@IBEXPAUtagDISPLAYMODE@CDirectDraw@@0@Z 0052eb00 f i DirectDraw.obj
 0002:00053c00       ??0?$_Vector_val@UtagDISPLAYMODE@CDirectDraw@@V?$allocator@UtagDISPLAYMODE@CDirectDraw@@@std@@@std@@IAE@V?$allocator@UtagDISPLAYMODE@CDirectDraw@@@1@@Z 0052ec00 f i DirectDraw.obj
 0002:00053c80       ??1?$_Container_base_aux_alloc_empty@V?$allocator@UtagDISPLAYMODE@CDirectDraw@@@std@@@std@@IAE@XZ 0052ec80 f i DirectDraw.obj
 0002:00053cd0       ??0?$allocator@UtagDISPLAYMODE@CDirectDraw@@@std@@QAE@XZ 0052ecd0 f i DirectDraw.obj
 0002:00053d10       ?begin@?$vector@UtagDISPLAYMODE@CDirectDraw@@V?$allocator@UtagDISPLAYMODE@CDirectDraw@@@std@@@std@@QAE?AV?$_Vector_iterator@UtagDISPLAYMODE@CDirectDraw@@V?$allocator@UtagDISPLAYMODE@CDirectDraw@@@std@@@2@XZ 0052ed10 f i DirectDraw.obj
 0002:00053da0       ?max_size@?$vector@UtagDISPLAYMODE@CDirectDraw@@V?$allocator@UtagDISPLAYMODE@CDirectDraw@@@std@@@std@@QBEIXZ 0052eda0 f i DirectDraw.obj
 0002:00053e00       ?_Destroy@?$vector@UtagDISPLAYMODE@CDirectDraw@@V?$allocator@UtagDISPLAYMODE@CDirectDraw@@@std@@@std@@IAEXPAUtagDISPLAYMODE@CDirectDraw@@0@Z 0052ee00 f i DirectDraw.obj
 0002:00053e70       ?_Insert_n@?$vector@UtagDISPLAYMODE@CDirectDraw@@V?$allocator@UtagDISPLAYMODE@CDirectDraw@@@std@@@std@@IAEXV?$_Vector_const_iterator@UtagDISPLAYMODE@CDirectDraw@@V?$allocator@UtagDISPLAYMODE@CDirectDraw@@@std@@@2@IABUtagDISPLAYMODE@CDirectDraw@@@Z 0052ee70 f i DirectDraw.obj
 0002:00054460       ?_Xlen@?$vector@UtagDISPLAYMODE@CDirectDraw@@V?$allocator@UtagDISPLAYMODE@CDirectDraw@@@std@@@std@@KAXXZ 0052f460 f i DirectDraw.obj
 0002:00054540       ??0?$_Container_base_aux_alloc_empty@V?$allocator@UtagDISPLAYMODE@CDirectDraw@@@std@@@std@@IAE@V?$allocator@UtagDISPLAYMODE@CDirectDraw@@@1@@Z 0052f540 f i DirectDraw.obj
 0002:000545a0       ??0?$allocator@UtagDISPLAYMODE@CDirectDraw@@@std@@QAE@ABV01@@Z 0052f5a0 f i DirectDraw.obj
 0002:000545e0       ?deallocate@?$allocator@UtagDISPLAYMODE@CDirectDraw@@@std@@QAEXPAUtagDISPLAYMODE@CDirectDraw@@I@Z 0052f5e0 f i DirectDraw.obj
 0002:00054640       ?allocate@?$allocator@UtagDISPLAYMODE@CDirectDraw@@@std@@QAEPAUtagDISPLAYMODE@CDirectDraw@@I@Z 0052f640 f i DirectDraw.obj
 0002:000546a0       ??0?$_Vector_iterator@UtagDISPLAYMODE@CDirectDraw@@V?$allocator@UtagDISPLAYMODE@CDirectDraw@@@std@@@std@@QAE@PAUtagDISPLAYMODE@CDirectDraw@@PBV_Container_base_secure@1@@Z 0052f6a0 f i DirectDraw.obj
 0002:00054700       ??H?$_Vector_iterator@UtagDISPLAYMODE@CDirectDraw@@V?$allocator@UtagDISPLAYMODE@CDirectDraw@@@std@@@std@@QBE?AV01@H@Z 0052f700 f i DirectDraw.obj
 0002:00054820       ??G?$_Vector_const_iterator@UtagDISPLAYMODE@CDirectDraw@@V?$allocator@UtagDISPLAYMODE@CDirectDraw@@@std@@@std@@QBEHABV01@@Z 0052f820 f i DirectDraw.obj
 0002:00054890       ??0?$_Vector_iterator@UtagDISPLAYMODE@CDirectDraw@@V?$allocator@UtagDISPLAYMODE@CDirectDraw@@@std@@@std@@QAE@ABV01@@Z 0052f890 f i DirectDraw.obj
 0002:000548f0       ?max_size@?$allocator@UtagDISPLAYMODE@CDirectDraw@@@std@@QBEIXZ 0052f8f0 f i DirectDraw.obj
 0002:00054960       ??Y?$_Vector_iterator@UtagDISPLAYMODE@CDirectDraw@@V?$allocator@UtagDISPLAYMODE@CDirectDraw@@@std@@@std@@QAEAAV01@H@Z 0052f960 f i DirectDraw.obj
 0002:000549c0       ??0?$_Vector_const_iterator@UtagDISPLAYMODE@CDirectDraw@@V?$allocator@UtagDISPLAYMODE@CDirectDraw@@@std@@@std@@QAE@PAUtagDISPLAYMODE@CDirectDraw@@PBV_Container_base_secure@1@@Z 0052f9c0 f i DirectDraw.obj
 0002:00054af0       ?_Compat@?$_Vector_const_iterator@UtagDISPLAYMODE@CDirectDraw@@V?$allocator@UtagDISPLAYMODE@CDirectDraw@@@std@@@std@@QBEXABV12@@Z 0052faf0 f i DirectDraw.obj
 0002:00054bc0       ??0?$_Ranit@UtagDISPLAYMODE@CDirectDraw@@HPBU12@ABU12@@std@@QAE@XZ 0052fbc0 f i DirectDraw.obj
 0002:00054c20       ??0?$_Iterator_with_base@Urandom_access_iterator_tag@std@@UtagDISPLAYMODE@CDirectDraw@@HPBU34@ABU34@V_Iterator_base@2@@std@@QAE@XZ 0052fc20 f i DirectDraw.obj
 0002:00054c80       ??Y?$_Vector_const_iterator@UtagDISPLAYMODE@CDirectDraw@@V?$allocator@UtagDISPLAYMODE@CDirectDraw@@@std@@@std@@QAEAAV01@H@Z 0052fc80 f i DirectDraw.obj
 0002:00054df0       ??$unchecked_uninitialized_fill_n@PAUtagDISPLAYMODE@CDirectDraw@@IU12@V?$allocator@UtagDISPLAYMODE@CDirectDraw@@@std@@@stdext@@YAXPAUtagDISPLAYMODE@CDirectDraw@@IABU12@AAV?$allocator@UtagDISPLAYMODE@CDirectDraw@@@std@@@Z 0052fdf0 f i DirectDraw.obj
 0002:00054e90       ??$_Destroy_range@V?$allocator@UtagDISPLAYMODE@CDirectDraw@@@std@@@std@@YAXPAUtagDISPLAYMODE@CDirectDraw@@0AAV?$allocator@UtagDISPLAYMODE@CDirectDraw@@@0@@Z 0052fe90 f i DirectDraw.obj
 0002:00054f10       ??$_Umove@PAUtagDISPLAYMODE@CDirectDraw@@@?$vector@UtagDISPLAYMODE@CDirectDraw@@V?$allocator@UtagDISPLAYMODE@CDirectDraw@@@std@@@std@@IAEPAUtagDISPLAYMODE@CDirectDraw@@PAU23@00@Z 0052ff10 f i DirectDraw.obj
 0002:00054f80       ??$fill@PAUtagDISPLAYMODE@CDirectDraw@@U12@@std@@YAXPAUtagDISPLAYMODE@CDirectDraw@@0ABU12@@Z 0052ff80 f i DirectDraw.obj
 0002:00054ff0       ??$_Unchecked_move_backward@PAUtagDISPLAYMODE@CDirectDraw@@PAU12@@stdext@@YAPAUtagDISPLAYMODE@CDirectDraw@@PAU12@00@Z 0052fff0 f i DirectDraw.obj
 0002:000550c0       ??$_Allocate@UtagDISPLAYMODE@CDirectDraw@@@std@@YAPAUtagDISPLAYMODE@CDirectDraw@@IPAU12@@Z 005300c0 f i DirectDraw.obj
 0002:00055160       ??$_Ptr_cat@PAUtagDISPLAYMODE@CDirectDraw@@PAU12@@std@@YA?AU_Nonscalar_ptr_iterator_tag@0@AAPAUtagDISPLAYMODE@CDirectDraw@@0@Z 00530160 f i DirectDraw.obj
 0002:000551d0       ??$_Uninit_fill_n@PAUtagDISPLAYMODE@CDirectDraw@@IU12@V?$allocator@UtagDISPLAYMODE@CDirectDraw@@@std@@@std@@YAXPAUtagDISPLAYMODE@CDirectDraw@@IABU12@AAV?$allocator@UtagDISPLAYMODE@CDirectDraw@@@0@U_Nonscalar_ptr_iterator_tag@0@U_Range_checked_iterator_tag@0@@Z 005301d0 f i DirectDraw.obj
 0002:000552e0       ??$_Destroy_range@V?$allocator@UtagDISPLAYMODE@CDirectDraw@@@std@@@std@@YAXPAUtagDISPLAYMODE@CDirectDraw@@0AAV?$allocator@UtagDISPLAYMODE@CDirectDraw@@@0@U_Nonscalar_ptr_iterator_tag@0@@Z 005302e0 f i DirectDraw.obj
 0002:00055350       ??$_Unchecked_uninitialized_move@PAUtagDISPLAYMODE@CDirectDraw@@PAU12@V?$allocator@UtagDISPLAYMODE@CDirectDraw@@@std@@@stdext@@YAPAUtagDISPLAYMODE@CDirectDraw@@PAU12@00AAV?$allocator@UtagDISPLAYMODE@CDirectDraw@@@std@@@Z 00530350 f i DirectDraw.obj
 0002:00055400       ??$_Checked_base@PAUtagDISPLAYMODE@CDirectDraw@@@std@@YAPAUtagDISPLAYMODE@CDirectDraw@@AAPAU12@@Z 00530400 f i DirectDraw.obj
 0002:00055490       ??$_Fill@PAUtagDISPLAYMODE@CDirectDraw@@U12@@std@@YAXPAUtagDISPLAYMODE@CDirectDraw@@0ABU12@@Z 00530490 f i DirectDraw.obj
 0002:00055530       ??$_Iter_random@PAUtagDISPLAYMODE@CDirectDraw@@PAU12@@std@@YA?AUrandom_access_iterator_tag@0@ABQAUtagDISPLAYMODE@CDirectDraw@@0@Z 00530530 f i DirectDraw.obj
 0002:000555a0       ??$_Move_cat@PAUtagDISPLAYMODE@CDirectDraw@@@std@@YA?AU_Undefined_move_tag@0@ABQAUtagDISPLAYMODE@CDirectDraw@@@Z 005305a0 f i DirectDraw.obj
 0002:00055610       ??$_Move_backward_opt@PAUtagDISPLAYMODE@CDirectDraw@@PAU12@Urandom_access_iterator_tag@std@@U_Undefined_move_tag@4@@std@@YAPAUtagDISPLAYMODE@CDirectDraw@@PAU12@00Urandom_access_iterator_tag@0@U_Undefined_move_tag@0@U_Range_checked_iterator_tag@0@@Z 00530610 f i DirectDraw.obj
 0002:000556b0       ?construct@?$allocator@UtagDISPLAYMODE@CDirectDraw@@@std@@QAEXPAUtagDISPLAYMODE@CDirectDraw@@ABU34@@Z 005306b0 f i DirectDraw.obj
 0002:00055710       ?destroy@?$allocator@UtagDISPLAYMODE@CDirectDraw@@@std@@QAEXPAUtagDISPLAYMODE@CDirectDraw@@@Z 00530710 f i DirectDraw.obj
 0002:00055770       ??$_Uninit_move@PAUtagDISPLAYMODE@CDirectDraw@@PAU12@V?$allocator@UtagDISPLAYMODE@CDirectDraw@@@std@@U_Undefined_move_tag@4@@std@@YAPAUtagDISPLAYMODE@CDirectDraw@@PAU12@00AAV?$allocator@UtagDISPLAYMODE@CDirectDraw@@@0@U_Undefined_move_tag@0@U_Range_checked_iterator_tag@0@@Z 00530770 f i DirectDraw.obj
 0002:000557d0       ??$_Checked_base@PAUtagDISPLAYMODE@CDirectDraw@@@std@@YAPAUtagDISPLAYMODE@CDirectDraw@@AAPAU12@U_Unchanged_checked_iterator_base_type_tag@0@@Z 005307d0 f i DirectDraw.obj
 0002:00055810       ??$_Debug_range@PAUtagDISPLAYMODE@CDirectDraw@@@std@@YAXPAUtagDISPLAYMODE@CDirectDraw@@0PB_WI@Z 00530810 f i DirectDraw.obj
 0002:00055890       ??$_Copy_backward_opt@PAUtagDISPLAYMODE@CDirectDraw@@PAU12@@std@@YAPAUtagDISPLAYMODE@CDirectDraw@@PAU12@00Urandom_access_iterator_tag@0@U_Nonscalar_ptr_iterator_tag@0@U_Range_checked_iterator_tag@0@@Z 00530890 f i DirectDraw.obj
 0002:00055950       ??$_Construct@UtagDISPLAYMODE@CDirectDraw@@U12@@std@@YAXPAUtagDISPLAYMODE@CDirectDraw@@ABU12@@Z 00530950 f i DirectDraw.obj
 0002:00055a00       ??$_Destroy@UtagDISPLAYMODE@CDirectDraw@@@std@@YAXPAUtagDISPLAYMODE@CDirectDraw@@@Z 00530a00 f i DirectDraw.obj
 0002:00055a30       ??$unchecked_uninitialized_copy@PAUtagDISPLAYMODE@CDirectDraw@@PAU12@V?$allocator@UtagDISPLAYMODE@CDirectDraw@@@std@@@stdext@@YAPAUtagDISPLAYMODE@CDirectDraw@@PAU12@00AAV?$allocator@UtagDISPLAYMODE@CDirectDraw@@@std@@@Z 00530a30 f i DirectDraw.obj
 0002:00055ae0       ??$_Iter_cat@PAUtagDISPLAYMODE@CDirectDraw@@@std@@YA?AUrandom_access_iterator_tag@0@ABQAUtagDISPLAYMODE@CDirectDraw@@@Z 00530ae0 f i DirectDraw.obj
 0002:00055b50       ??$_Debug_range2@PAUtagDISPLAYMODE@CDirectDraw@@@std@@YAXPAUtagDISPLAYMODE@CDirectDraw@@0PB_WIUrandom_access_iterator_tag@0@@Z 00530b50 f i DirectDraw.obj
 0002:00055bf0       ??$_Copy_backward_opt@PAUtagDISPLAYMODE@CDirectDraw@@PAU12@Uforward_iterator_tag@std@@@std@@YAPAUtagDISPLAYMODE@CDirectDraw@@PAU12@00Uforward_iterator_tag@0@U_Nonscalar_ptr_iterator_tag@0@U_Range_checked_iterator_tag@0@@Z 00530bf0 f i DirectDraw.obj
 0002:00055ca0       ??$_Uninit_copy@PAUtagDISPLAYMODE@CDirectDraw@@PAU12@V?$allocator@UtagDISPLAYMODE@CDirectDraw@@@std@@@std@@YAPAUtagDISPLAYMODE@CDirectDraw@@PAU12@00AAV?$allocator@UtagDISPLAYMODE@CDirectDraw@@@0@U_Nonscalar_ptr_iterator_tag@0@U_Range_checked_iterator_tag@0@@Z 00530ca0 f i DirectDraw.obj
 0002:00055df0       ??$_Debug_pointer@UtagDISPLAYMODE@CDirectDraw@@@std@@YAXPAUtagDISPLAYMODE@CDirectDraw@@PB_WI@Z 00530df0 f i DirectDraw.obj
 0002:00055e50       ??0CDirectInput@@QAE@XZ    00530e50 f   DirectInput.obj
 0002:00055f90       ??_ECDirectInput@@UAEPAXI@Z 00530f90 f i DirectInput.obj
 0002:00055f90       ??_GCDirectInput@@UAEPAXI@Z 00530f90 f i DirectInput.obj
 0002:00056000       ??1CDirectInput@@UAE@XZ    00531000 f   DirectInput.obj
 0002:000560d0       ?DIEnumDevicesCallback@CDirectInput@@KGHPAUDIDEVICEINSTANCEA@@PAX@Z 005310d0 f   DirectInput.obj
 0002:00056160       ?AddJoystickDevice@CDirectInput@@QAEHU_GUID@@@Z 00531160 f   DirectInput.obj
 0002:00056690       ?InitialDInput@CDirectInput@@QAEHPAUHWND__@@PAUHINSTANCE__@@@Z 00531690 f   DirectInput.obj
 0002:00056ba0       ?ReleaseDInput@CDirectInput@@QAEXXZ 00531ba0 f   DirectInput.obj
 0002:00056d20       ?Acquire@CDirectInput@@QAEXXZ 00531d20 f   DirectInput.obj
 0002:00056e20       ?Unacquire@CDirectInput@@QAEXXZ 00531e20 f   DirectInput.obj
 0002:00056f20       ?Poll@CDirectInput@@QAEXXZ 00531f20 f   DirectInput.obj
 0002:00057620       ?SearchKeyName@CDirectInput@@QAEPBDH@Z 00532620 f   DirectInput.obj
 0002:000577d0       ??0CWaveData@@QAE@XZ       005327d0 f   DirectSound.obj
 0002:00057850       ??_GCWaveData@@UAEPAXI@Z   00532850 f i DirectSound.obj
 0002:00057850       ??_ECWaveData@@UAEPAXI@Z   00532850 f i DirectSound.obj
 0002:000578c0       ??1CWaveData@@UAE@XZ       005328c0 f   DirectSound.obj
 0002:00057920       ?Load@CWaveData@@QAEHPBD@Z 00532920 f   DirectSound.obj
 0002:00057c60       ?Free@CWaveData@@QAEXXZ    00532c60 f   DirectSound.obj
 0002:00057cd0       ?GetSize@CWaveData@@QAEKXZ 00532cd0 f   DirectSound.obj
 0002:00057d20       ?GetFormat@CWaveData@@QAEPAUtWAVEFORMATEX@@XZ 00532d20 f   DirectSound.obj
 0002:00057d70       ?GetData@CWaveData@@QAEPAXXZ 00532d70 f   DirectSound.obj
 0002:00057dc0       ??0CDirectSound@@QAE@XZ    00532dc0 f   DirectSound.obj
 0002:00057f20       ??_ECDirectSound@@UAEPAXI@Z 00532f20 f i DirectSound.obj
 0002:00057f20       ??_GCDirectSound@@UAEPAXI@Z 00532f20 f i DirectSound.obj
 0002:00057f90       ??1CDirectSound@@UAE@XZ    00532f90 f   DirectSound.obj
 0002:00058050       ?InitialDSound@CDirectSound@@QAEHPAUHWND__@@@Z 00533050 f   DirectSound.obj
 0002:00058370       ?ReleaseDSound@CDirectSound@@QAEXXZ 00533370 f   DirectSound.obj
 0002:00058460       ?InitialBuffer@CDirectSound@@QAEHXZ 00533460 f   DirectSound.obj
 0002:00058910       ?ReleaseBuffer@CDirectSound@@QAEXXZ 00533910 f   DirectSound.obj
 0002:000589a0       ?SetSamplingRate@CDirectSound@@QAEHKK@Z 005339a0 f   DirectSound.obj
 0002:00058a50       ?GetSamplingRate@CDirectSound@@QAEXAAK0@Z 00533a50 f   DirectSound.obj
 0002:00058ab0       ?StreamPlay@CDirectSound@@QAEXXZ 00533ab0 f   DirectSound.obj
 0002:00058cc0       ?StreamStop@CDirectSound@@QAEXXZ 00533cc0 f   DirectSound.obj
 0002:00058e10       ?StreamPause@CDirectSound@@QAEXXZ 00533e10 f   DirectSound.obj
 0002:00058ec0       ?StreamResume@CDirectSound@@QAEXXZ 00533ec0 f   DirectSound.obj
 0002:00058f70       ?GetStreamLockPosition@CDirectSound@@QAEHPAK0@Z 00533f70 f   DirectSound.obj
 0002:000590c0       ?StreamLock@CDirectSound@@QAEHKKPAPAXPAK01K@Z 005340c0 f   DirectSound.obj
 0002:00059160       ?StreamUnlock@CDirectSound@@QAEHPAXK0K@Z 00534160 f   DirectSound.obj
 0002:000591f0       ?LoadEsf@CDirectSound@@QAEHPBDH@Z 005341f0 f   DirectSound.obj
 0002:000592f0       ?EsfPlay@CDirectSound@@QAEHH@Z 005342f0 f   DirectSound.obj
 0002:000594c0       ?EsfPlayLoop@CDirectSound@@QAEHH@Z 005344c0 f   DirectSound.obj
 0002:00059720       ?EsfStop@CDirectSound@@QAEHH@Z 00534720 f   DirectSound.obj
 0002:00059810       ?EsfAllStop@CDirectSound@@QAEXXZ 00534810 f   DirectSound.obj
 0002:000598a0       ?CreateESFBuffer@CDirectSound@@QAEHHPAUtWAVEFORMATEX@@PAXK@Z 005348a0 f   DirectSound.obj
 0002:00059b90       ?ReleaseEsfBuffer@CDirectSound@@QAEXXZ 00534b90 f   DirectSound.obj
 0002:00059c80       ?DispatchDlg@CEmulatorDlg@@MAEHPAUHWND__@@IIJ@Z 00534c80 f   EmulatorDlg.obj
 0002:00059e50       ?DoModal@CEmulatorDlg@@UAEHPAUHWND__@@@Z 00534e50 f   EmulatorDlg.obj
 0002:00059ed0       ?OnInitialMember@CEmulatorDlg@@IAEXXZ 00534ed0 f   EmulatorDlg.obj
 0002:0005a420       ?OnInitDialog@CEmulatorDlg@@IAEHPAUHWND__@@IJAAH@Z 00535420 f   EmulatorDlg.obj
 0002:0005a490       ?OnHScroll@CEmulatorDlg@@IAEHPAUHWND__@@IJAAH@Z 00535490 f   EmulatorDlg.obj
 0002:0005a5b0       ?OnOK@CEmulatorDlg@@IAEXPAUHWND__@@I@Z 005355b0 f   EmulatorDlg.obj
 0002:0005a940       ?OnCancel@CEmulatorDlg@@IAEXPAUHWND__@@I@Z 00535940 f   EmulatorDlg.obj
 0002:0005a9c0       ?OnDefault@CEmulatorDlg@@IAEXPAUHWND__@@I@Z 005359c0 f   EmulatorDlg.obj
 0002:0005aa20       ??0CEmuThread@@QAE@XZ      00535a20 f   EmuThread.obj
 0002:0005aaa0       ??1CEmuThread@@QAE@XZ      00535aa0 f   EmuThread.obj
 0002:0005aaf0       ?SetPriority@CEmuThread@@QAEXH@Z 00535af0 f   EmuThread.obj
 0002:0005ab80       ?Start@CEmuThread@@QAEHPAUHWND__@@PAVNES@@@Z 00535b80 f   EmuThread.obj
 0002:0005ae50       ?Stop@CEmuThread@@QAEXXZ   00535e50 f   EmuThread.obj
 0002:0005afc0       ?Pause@CEmuThread@@QAEXXZ  00535fc0 f   EmuThread.obj
 0002:0005b0c0       ?IsPausing@CEmuThread@@QAEHXZ 005360c0 f i EmuThread.obj
 0002:0005b110       ?Resume@CEmuThread@@QAEXXZ 00536110 f   EmuThread.obj
 0002:0005b210       ?Event@CEmuThread@@QAEXW4EMUEVENT@1@@Z 00536210 f   EmuThread.obj
 0002:0005b2e0       ?EventParam@CEmuThread@@QAEXW4EMUEVENT@1@J@Z 005362e0 f   EmuThread.obj
 0002:0005b3b0       ?EventParam2@CEmuThread@@QAEXW4EMUEVENT@1@JJ@Z 005363b0 f   EmuThread.obj
 0002:0005b480       ?DiskCommand@CEmuThread@@KAXE@Z 00536480 f   EmuThread.obj
 0002:0005b750       ?GetDiskNo@ROM@@QAEHXZ     00536750 f i EmuThread.obj
 0002:0005b790       ?FrameInput@CEmuThread@@KAHXZ 00536790 f   EmuThread.obj
 0002:0005bd40       ?SetZapperPos@NES@@QAEXJJ@Z 00536d40 f i EmuThread.obj
 0002:0005bd90       ?IsServer@CNetPlay@@QAEHXZ 00536d90 f i EmuThread.obj
 0002:0005bdd0       ?GetZapperMode@CDirectDraw@@QAEHXZ 00536dd0 f i EmuThread.obj
 0002:0005be10       ?ThreadProc@CEmuThread@@KGKPAX@Z 00536e10 f   EmuThread.obj
 0002:0005e1f0       ?IsDiskThrottle@NES@@QAEHXZ 005391f0 f i EmuThread.obj
 0002:0005e230       ?SetTurboFileBank@NES@@QAEXH@Z 00539230 f i EmuThread.obj
 0002:0005e280       ?GetRenderScreen@CDirectDraw@@QAEPAEXZ 00539280 f i EmuThread.obj
 0002:0005e2c0       ?GetLineColormode@CDirectDraw@@QAEPAEXZ 005392c0 f i EmuThread.obj
 0002:0005e300       ?SetDiskAccessLamp@CDirectDraw@@QAEXH@Z 00539300 f i EmuThread.obj
 0002:0005e350       ?StreamProcess@CEmuThread@@KAXH@Z 00539350 f   EmuThread.obj
 0002:0005e4f0       ?IsStreamPause@CDirectSound@@QAEHXZ 005394f0 f i EmuThread.obj
 0002:0005e530       ?empty@?$deque@VNETEV@@V?$allocator@VNETEV@@@std@@@std@@QBE_NXZ 00539530 f i EmuThread.obj
 0002:0005e580       ?front@?$deque@VNETEV@@V?$allocator@VNETEV@@@std@@@std@@QAEAAVNETEV@@XZ 00539580 f i EmuThread.obj
 0002:0005e660       ?pop_front@?$deque@VNETEV@@V?$allocator@VNETEV@@@std@@@std@@QAEXXZ 00539660 f i EmuThread.obj
 0002:0005e790       ?push_back@?$deque@VNETEV@@V?$allocator@VNETEV@@@std@@@std@@QAEXABVNETEV@@@Z 00539790 f i EmuThread.obj
 0002:0005e8e0       ?clear@?$deque@VNETEV@@V?$allocator@VNETEV@@@std@@@std@@QAEXXZ 005398e0 f i EmuThread.obj
 0002:0005e930       ??1?$_Deque_iterator@VNETEV@@V?$allocator@VNETEV@@@std@@$00@std@@QAE@XZ 00539930 f i EmuThread.obj
 0002:0005e980       ??1?$_Deque_const_iterator@VNETEV@@V?$allocator@VNETEV@@@std@@$00@std@@QAE@XZ 00539980 f i EmuThread.obj
 0002:0005e9d0       ??1?$_Ranit@VNETEV@@HPBV1@ABV1@@std@@QAE@XZ 005399d0 f i EmuThread.obj
 0002:0005ea20       ??1?$_Iterator_with_base@Urandom_access_iterator_tag@std@@VNETEV@@HPBV3@ABV3@V_Iterator_base@2@@std@@QAE@XZ 00539a20 f i EmuThread.obj
 0002:0005ea70       ?begin@?$deque@VNETEV@@V?$allocator@VNETEV@@@std@@@std@@QAE?AV?$_Deque_iterator@VNETEV@@V?$allocator@VNETEV@@@std@@$00@2@XZ 00539a70 f i EmuThread.obj
 0002:0005eb00       ?_Growmap@?$deque@VNETEV@@V?$allocator@VNETEV@@@std@@@std@@IAEXI@Z 00539b00 f i EmuThread.obj
 0002:0005ee00       ?_Tidy@?$deque@VNETEV@@V?$allocator@VNETEV@@@std@@@std@@IAEXXZ 00539e00 f i EmuThread.obj
 0002:0005ef20       ?_Orphan_off@?$deque@VNETEV@@V?$allocator@VNETEV@@@std@@@std@@IBEXI@Z 00539f20 f i EmuThread.obj
 0002:0005f0a0       ?allocate@?$allocator@VNETEV@@@std@@QAEPAVNETEV@@I@Z 0053a0a0 f i EmuThread.obj
 0002:0005f100       ?construct@?$allocator@VNETEV@@@std@@QAEXPAVNETEV@@ABV3@@Z 0053a100 f i EmuThread.obj
 0002:0005f160       ?destroy@?$allocator@VNETEV@@@std@@QAEXPAVNETEV@@@Z 0053a160 f i EmuThread.obj
 0002:0005f1c0       ??D?$_Deque_iterator@VNETEV@@V?$allocator@VNETEV@@@std@@$00@std@@QBEAAVNETEV@@XZ 0053a1c0 f i EmuThread.obj
 0002:0005f210       ?max_size@?$deque@VNETEV@@V?$allocator@VNETEV@@@std@@@std@@QBEIXZ 0053a210 f i EmuThread.obj
 0002:0005f270       ?pop_back@?$deque@VNETEV@@V?$allocator@VNETEV@@@std@@@std@@QAEXXZ 0053a270 f i EmuThread.obj
 0002:0005f3b0       ?_Xlen@?$deque@VNETEV@@V?$allocator@VNETEV@@@std@@@std@@KAXXZ 0053a3b0 f i EmuThread.obj
 0002:0005f490       ?deallocate@?$allocator@VNETEV@@@std@@QAEXPAVNETEV@@I@Z 0053a490 f i EmuThread.obj
 0002:0005f4f0       ?deallocate@?$allocator@PAVNETEV@@@std@@QAEXPAPAVNETEV@@I@Z 0053a4f0 f i EmuThread.obj
 0002:0005f550       ?allocate@?$allocator@PAVNETEV@@@std@@QAEPAPAVNETEV@@I@Z 0053a550 f i EmuThread.obj
 0002:0005f5b0       ?destroy@?$allocator@PAVNETEV@@@std@@QAEXPAPAVNETEV@@@Z 0053a5b0 f i EmuThread.obj
 0002:0005f610       ??0?$_Deque_iterator@VNETEV@@V?$allocator@VNETEV@@@std@@$00@std@@QAE@IPBV_Container_base_secure@1@@Z 0053a610 f i EmuThread.obj
 0002:0005f670       ??D?$_Deque_const_iterator@VNETEV@@V?$allocator@VNETEV@@@std@@$00@std@@QBEABVNETEV@@XZ 0053a670 f i EmuThread.obj
 0002:0005f7c0       ?max_size@?$allocator@VNETEV@@@std@@QBEIXZ 0053a7c0 f i EmuThread.obj
 0002:0005f830       ??0?$_Deque_const_iterator@VNETEV@@V?$allocator@VNETEV@@@std@@$00@std@@QAE@IPBV_Container_base_secure@1@@Z 0053a830 f i EmuThread.obj
 0002:0005f970       ??0?$_Ranit@VNETEV@@HPBV1@ABV1@@std@@QAE@XZ 0053a970 f i EmuThread.obj
 0002:0005f9d0       ??0?$_Iterator_with_base@Urandom_access_iterator_tag@std@@VNETEV@@HPBV3@ABV3@V_Iterator_base@2@@std@@QAE@XZ 0053a9d0 f i EmuThread.obj
 0002:0005fa30       ??$unchecked_uninitialized_copy@PAPAVNETEV@@PAPAV1@V?$allocator@PAVNETEV@@@std@@@stdext@@YAPAPAVNETEV@@PAPAV1@00AAV?$allocator@PAVNETEV@@@std@@@Z 0053aa30 f i EmuThread.obj
 0002:0005fae0       ??$unchecked_uninitialized_fill_n@PAPAVNETEV@@IPAV1@V?$allocator@PAVNETEV@@@std@@@stdext@@YAXPAPAVNETEV@@IABQAV1@AAV?$allocator@PAVNETEV@@@std@@@Z 0053aae0 f i EmuThread.obj
 0002:0005fb80       ??$_Destroy_range@V?$allocator@PAVNETEV@@@std@@@std@@YAXPAPAVNETEV@@0AAV?$allocator@PAVNETEV@@@0@@Z 0053ab80 f i EmuThread.obj
 0002:0005fc00       ??$_Allocate@VNETEV@@@std@@YAPAVNETEV@@IPAV1@@Z 0053ac00 f i EmuThread.obj
 0002:0005fca0       ??$_Construct@VNETEV@@V1@@std@@YAXPAVNETEV@@ABV1@@Z 0053aca0 f i EmuThread.obj
 0002:0005fd40       ??$_Destroy@VNETEV@@@std@@YAXPAVNETEV@@@Z 0053ad40 f i EmuThread.obj
 0002:0005fd70       ??$_Allocate@PAVNETEV@@@std@@YAPAPAVNETEV@@IPAPAV1@@Z 0053ad70 f i EmuThread.obj
 0002:0005fe10       ??$_Destroy@PAVNETEV@@@std@@YAXPAPAVNETEV@@@Z 0053ae10 f i EmuThread.obj
 0002:0005fe40       ??$_Checked_base@PAPAVNETEV@@@std@@YAPAPAVNETEV@@AAPAPAV1@@Z 0053ae40 f i EmuThread.obj
 0002:0005fed0       ??$_Ptr_cat@PAPAVNETEV@@PAPAV1@@std@@YA?AU_Scalar_ptr_iterator_tag@0@AAPAPAVNETEV@@0@Z 0053aed0 f i EmuThread.obj
 0002:0005ff40       ??$_Uninit_copy@PAPAVNETEV@@PAPAV1@V?$allocator@PAVNETEV@@@std@@@std@@YAPAPAVNETEV@@PAPAV1@00AAV?$allocator@PAVNETEV@@@0@U_Scalar_ptr_iterator_tag@0@U_Range_checked_iterator_tag@0@@Z 0053af40 f i EmuThread.obj
 0002:00060010       ??$_Uninit_fill_n@PAPAVNETEV@@IPAV1@V?$allocator@PAVNETEV@@@std@@@std@@YAXPAPAVNETEV@@IABQAV1@AAV?$allocator@PAVNETEV@@@0@U_Scalar_ptr_iterator_tag@0@U_Range_checked_iterator_tag@0@@Z 0053b010 f i EmuThread.obj
 0002:00060070       ??$_Destroy_range@V?$allocator@PAVNETEV@@@std@@@std@@YAXPAPAVNETEV@@0AAV?$allocator@PAVNETEV@@@0@U_Scalar_ptr_iterator_tag@0@@Z 0053b070 f i EmuThread.obj
 0002:000600a0       ??$_Checked_base@PAPAVNETEV@@@std@@YAPAPAVNETEV@@AAPAPAV1@U_Unchanged_checked_iterator_base_type_tag@0@@Z 0053b0a0 f i EmuThread.obj
 0002:000600e0       ??$_Debug_range@PAPAVNETEV@@@std@@YAXPAPAVNETEV@@0PB_WI@Z 0053b0e0 f i EmuThread.obj
 0002:00060160       ??$_Debug_pointer@PAVNETEV@@@std@@YAXPAPAVNETEV@@PB_WI@Z 0053b160 f i EmuThread.obj
 0002:000601c0       ??$unchecked_fill_n@PAPAVNETEV@@IPAV1@@stdext@@YAXPAPAVNETEV@@IABQAV1@@Z 0053b1c0 f i EmuThread.obj
 0002:00060250       ??$_Iter_cat@PAPAVNETEV@@@std@@YA?AUrandom_access_iterator_tag@0@ABQAPAVNETEV@@@Z 0053b250 f i EmuThread.obj
 0002:000602c0       ??$_Debug_range2@PAPAVNETEV@@@std@@YAXPAPAVNETEV@@0PB_WIUrandom_access_iterator_tag@0@@Z 0053b2c0 f i EmuThread.obj
 0002:00060360       ??$_Fill_n@PAPAVNETEV@@IPAV1@@std@@YAXPAPAVNETEV@@IABQAV1@Urandom_access_iterator_tag@0@U_Range_checked_iterator_tag@0@@Z 0053b360 f i EmuThread.obj
 0002:000603f0       ??$_Fill_n@PAPAVNETEV@@IPAV1@@std@@YAXPAPAVNETEV@@IABQAV1@U_Range_checked_iterator_tag@0@@Z 0053b3f0 f i EmuThread.obj
 0002:00060450       ??0?$deque@VNETEV@@V?$allocator@VNETEV@@@std@@@std@@QAE@XZ 0053b450 f i EmuThread.obj
 0002:000604f0       ??0?$_Deque_val@VNETEV@@V?$allocator@VNETEV@@@std@@@std@@IAE@V?$allocator@VNETEV@@@1@@Z 0053b4f0 f i EmuThread.obj
 0002:00060570       ??0?$allocator@VNETEV@@@std@@QAE@XZ 0053b570 f i EmuThread.obj
 0002:000605b0       ??0?$_Deque_map@VNETEV@@V?$allocator@VNETEV@@@std@@@std@@IAE@V?$allocator@VNETEV@@@1@@Z 0053b5b0 f i EmuThread.obj
 0002:00060630       ??0?$allocator@VNETEV@@@std@@QAE@ABV01@@Z 0053b630 f i EmuThread.obj
 0002:00060670       ??0?$_Container_base_aux_alloc_empty@V?$allocator@VNETEV@@@std@@@std@@IAE@V?$allocator@VNETEV@@@1@@Z 0053b670 f i EmuThread.obj
 0002:000606d0       ??$?0VNETEV@@@?$allocator@PAVNETEV@@@std@@QAE@ABV?$allocator@VNETEV@@@1@@Z 0053b6d0 f i EmuThread.obj
 0002:00060710       ??1?$deque@VNETEV@@V?$allocator@VNETEV@@@std@@@std@@QAE@XZ 0053b710 f i EmuThread.obj
 0002:000607b0       ??1?$_Deque_val@VNETEV@@V?$allocator@VNETEV@@@std@@@std@@QAE@XZ 0053b7b0 f i EmuThread.obj
 0002:00060800       ??1?$_Deque_map@VNETEV@@V?$allocator@VNETEV@@@std@@@std@@QAE@XZ 0053b800 f i EmuThread.obj
 0002:00060850       ??1?$_Container_base_aux_alloc_empty@V?$allocator@VNETEV@@@std@@@std@@IAE@XZ 0053b850 f i EmuThread.obj
 0002:000608a0       ?DispatchDlg@CFolderDlg@@MAEHPAUHWND__@@IIJ@Z 0053b8a0 f   FolderDlg.obj
 0002:00060be0       ??0CFolderDlg@@QAE@XZ      0053bbe0 f   FolderDlg.obj
 0002:00060c40       ??_GCFolderDlg@@UAEPAXI@Z  0053bc40 f i FolderDlg.obj
 0002:00060c40       ??_ECFolderDlg@@UAEPAXI@Z  0053bc40 f i FolderDlg.obj
 0002:00060cb0       ??1CFolderDlg@@UAE@XZ      0053bcb0 f   FolderDlg.obj
 0002:00060d10       ?DoModal@CFolderDlg@@UAEHPAUHWND__@@@Z 0053bd10 f   FolderDlg.obj
 0002:00060d90       ?OnInitialMember@CFolderDlg@@IAEXXZ 0053bd90 f   FolderDlg.obj
 0002:000610b0       ?PathCheck@CFolderDlg@@IAEXPAD@Z 0053c0b0 f   FolderDlg.obj
 0002:00061170       ?OnInitDialog@CFolderDlg@@IAEHPAUHWND__@@IJAAH@Z 0053c170 f   FolderDlg.obj
 0002:000611e0       ?OnOK@CFolderDlg@@IAEXPAUHWND__@@I@Z 0053c1e0 f   FolderDlg.obj
 0002:000615e0       ?OnCancel@CFolderDlg@@IAEXPAUHWND__@@I@Z 0053c5e0 f   FolderDlg.obj
 0002:00061660       ?OnDefault@CFolderDlg@@IAEXPAUHWND__@@I@Z 0053c660 f   FolderDlg.obj
 0002:000616c0       ?OnRomBrowse@CFolderDlg@@IAEXPAUHWND__@@I@Z 0053c6c0 f   FolderDlg.obj
 0002:00061930       ?OnSaveBrowse@CFolderDlg@@IAEXPAUHWND__@@I@Z 0053c930 f   FolderDlg.obj
 0002:00061ba0       ?OnStateBrowse@CFolderDlg@@IAEXPAUHWND__@@I@Z 0053cba0 f   FolderDlg.obj
 0002:00061e10       ?OnSnapshotBrowse@CFolderDlg@@IAEXPAUHWND__@@I@Z 0053ce10 f   FolderDlg.obj
 0002:00062080       ?OnMovieBrowse@CFolderDlg@@IAEXPAUHWND__@@I@Z 0053d080 f   FolderDlg.obj
 0002:000622f0       ?OnWaveBrowse@CFolderDlg@@IAEXPAUHWND__@@I@Z 0053d2f0 f   FolderDlg.obj
 0002:00062560       ?OnCheatBrowse@CFolderDlg@@IAEXPAUHWND__@@I@Z 0053d560 f   FolderDlg.obj
 0002:000627d0       ?OnIpsBrowse@CFolderDlg@@IAEXPAUHWND__@@I@Z 0053d7d0 f   FolderDlg.obj
 0002:00062a40       ?DispatchDlg@CGameOptionDlg@@MAEHPAUHWND__@@IIJ@Z 0053da40 f   GameOptionDlg.obj
 0002:00062c10       ?DoModal@CGameOptionDlg@@UAEHPAUHWND__@@@Z 0053dc10 f   GameOptionDlg.obj
 0002:00062c90       ?OnInitialMember@CGameOptionDlg@@IAEXXZ 0053dc90 f   GameOptionDlg.obj
 0002:00063020       ?OnInitDialog@CGameOptionDlg@@IAEHPAUHWND__@@IJAAH@Z 0053e020 f   GameOptionDlg.obj
 0002:00063080       ?OnOK@CGameOptionDlg@@IAEXPAUHWND__@@I@Z 0053e080 f   GameOptionDlg.obj
 0002:00063310       ?SetIrqType@NES@@QAEXH@Z   0053e310 f i GameOptionDlg.obj
 0002:00063360       ?SetFrameIRQmode@NES@@QAEXH@Z 0053e360 f i GameOptionDlg.obj
 0002:000633b0       ?SetRenderMethod@NES@@QAEXW4RENDERMETHOD@1@@Z 0053e3b0 f i GameOptionDlg.obj
 0002:00063400       ?GetPROM_CRC@ROM@@QAEKXZ   0053e400 f i GameOptionDlg.obj
 0002:00063440       ?GetMakerID@ROM@@QAEKXZ    0053e440 f i GameOptionDlg.obj
 0002:00063480       ?GetGameID@ROM@@QAEKXZ     0053e480 f i GameOptionDlg.obj
 0002:000634c0       ?GetMapperNo@ROM@@QAEHXZ   0053e4c0 f i GameOptionDlg.obj
 0002:00063500       ?OnCancel@CGameOptionDlg@@IAEXPAUHWND__@@I@Z 0053e500 f   GameOptionDlg.obj
 0002:00063570       ?OnDefault@CGameOptionDlg@@IAEXPAUHWND__@@I@Z 0053e570 f   GameOptionDlg.obj
 0002:00063600       ?OnNotSave@CGameOptionDlg@@IAEXPAUHWND__@@I@Z 0053e600 f   GameOptionDlg.obj
 0002:000637c0       ?DispatchDlg@CGraphicsDlg@@MAEHPAUHWND__@@IIJ@Z 0053e7c0 f   GraphicsDlg.obj
 0002:00063ba0       ?DoModal@CGraphicsDlg@@UAEHPAUHWND__@@@Z 0053eba0 f   GraphicsDlg.obj
 0002:00063c20       ?OnInitialMember@CGraphicsDlg@@IAEXXZ 0053ec20 f   GraphicsDlg.obj
 0002:00064150       ?OnUpdateComboBox@CGraphicsDlg@@IAEXXZ 0053f150 f   GraphicsDlg.obj
 0002:00064450       ?GetDisplayModeNum@CDirectDraw@@QAEHXZ 0053f450 f i GraphicsDlg.obj
 0002:000644b0       ?OnInitDialog@CGraphicsDlg@@IAEHPAUHWND__@@IJAAH@Z 0053f4b0 f   GraphicsDlg.obj
 0002:00064520       ?OnHScroll@CGraphicsDlg@@IAEHPAUHWND__@@IJAAH@Z 0053f520 f   GraphicsDlg.obj
 0002:00064680       ?SetScanlineColor@CDirectDraw@@QAEXH@Z 0053f680 f i GraphicsDlg.obj
 0002:000646d0       ?OnOK@CGraphicsDlg@@IAEXPAUHWND__@@I@Z 0053f6d0 f   GraphicsDlg.obj
 0002:00064bb0       ?OnCancel@CGraphicsDlg@@IAEXPAUHWND__@@I@Z 0053fbb0 f   GraphicsDlg.obj
 0002:00064c30       ?OnDefault@CGraphicsDlg@@IAEXPAUHWND__@@I@Z 0053fc30 f   GraphicsDlg.obj
 0002:00064c90       ?OnPaletteBrowse@CGraphicsDlg@@IAEXPAUHWND__@@I@Z 0053fc90 f   GraphicsDlg.obj
 0002:00065090       ?OnPaletteUseClick@CGraphicsDlg@@IAEXPAUHWND__@@I@Z 00540090 f   GraphicsDlg.obj
 0002:000651e0       ?OnNoSquareListClick@CGraphicsDlg@@IAEXPAUHWND__@@I@Z 005401e0 f   GraphicsDlg.obj
 0002:00065270       ?DispatchDlg@CJoyAxisDlg@@MAEHPAUHWND__@@IIJ@Z 00540270 f   JoyAxisDlg.obj
 0002:000654f0       ?DoModal@CJoyAxisDlg@@UAEHPAUHWND__@@@Z 005404f0 f   JoyAxisDlg.obj
 0002:00065570       ?OnJoySettingSetup@CJoyAxisDlg@@IAEXH@Z 00540570 f   JoyAxisDlg.obj
 0002:00065720       ?OnInitDialog@CJoyAxisDlg@@IAEHPAUHWND__@@IJAAH@Z 00540720 f   JoyAxisDlg.obj
 0002:000659c0       ?OnTimer@CJoyAxisDlg@@IAEHPAUHWND__@@IJAAH@Z 005409c0 f   JoyAxisDlg.obj
 0002:00065aa0       ?OnCheckChange@CJoyAxisDlg@@IAEXPAUHWND__@@I@Z 00540aa0 f   JoyAxisDlg.obj
 0002:00065ca0       ?OnSelectChange@CJoyAxisDlg@@IAEXPAUHWND__@@I@Z 00540ca0 f   JoyAxisDlg.obj
 0002:00065d30       ?OnOK@CJoyAxisDlg@@IAEXPAUHWND__@@I@Z 00540d30 f   JoyAxisDlg.obj
 0002:00065de0       ?OnCancel@CJoyAxisDlg@@IAEXPAUHWND__@@I@Z 00540de0 f   JoyAxisDlg.obj
 0002:00065e70       ?OnDefault@CJoyAxisDlg@@IAEXPAUHWND__@@I@Z 00540e70 f   JoyAxisDlg.obj
 0002:00065ef0       ?DispatchDlg@CLanguageDlg@@MAEHPAUHWND__@@IIJ@Z 00540ef0 f   LanguageDlg.obj
 0002:00066080       ?DoModal@CLanguageDlg@@UAEHPAUHWND__@@@Z 00541080 f   LanguageDlg.obj
 0002:00066100       ?OnInitDialog@CLanguageDlg@@IAEHPAUHWND__@@IJAAH@Z 00541100 f   LanguageDlg.obj
 0002:00066200       ?GetPluginNum@CPlugin@@SAHXZ 00541200 f i LanguageDlg.obj
 0002:00066240       ?GetPluginID@CPlugin@@SAHXZ 00541240 f i LanguageDlg.obj
 0002:00066280       ?GetPluginLanguage@CPlugin@@SAPBDH@Z 00541280 f i LanguageDlg.obj
 0002:000662c0       ?OnOK@CLanguageDlg@@IAEXPAUHWND__@@I@Z 005412c0 f   LanguageDlg.obj
 0002:000663a0       ?SetPluginID@CPlugin@@SAXH@Z 005413a0 f i LanguageDlg.obj
 0002:000663e0       ?OnCancel@CLanguageDlg@@IAEXPAUHWND__@@I@Z 005413e0 f   LanguageDlg.obj
 0002:00066450       ?OnDefault@CLanguageDlg@@IAEXPAUHWND__@@I@Z 00541450 f   LanguageDlg.obj
 0002:000664d0       ?DispatchDlg@CLauncherDlg@@MAEHPAUHWND__@@IIJ@Z 005414d0 f   LauncherDlg.obj
 0002:00066b00       ?Create@CLauncherDlg@@UAEHPAUHWND__@@@Z 00541b00 f   LauncherDlg.obj
 0002:00066bc0       ?Destroy@CLauncherDlg@@UAEXXZ 00541bc0 f   LauncherDlg.obj
 0002:00066f40       ?ListViewCompare@CLauncherDlg@@KGHJJJ@Z 00541f40 f   LauncherDlg.obj
 0002:000678e0       ?ResetListViewHeader@CLauncherDlg@@IAEXXZ 005428e0 f   LauncherDlg.obj
 0002:00067af0       ?ResetListView@CLauncherDlg@@IAEXXZ 00542af0 f   LauncherDlg.obj
 0002:00067d80       ??0FILELIST@@QAE@XZ        00542d80 f i LauncherDlg.obj
 0002:00067ee0       ??1FILELIST@@QAE@XZ        00542ee0 f i LauncherDlg.obj
 0002:00068030       ??4FILELIST@@QAEAAV0@ABV0@@Z 00543030 f i LauncherDlg.obj
 0002:000681d0       ?SetListView@CLauncherDlg@@IAEXHAAVFILELIST@@@Z 005431d0 f   LauncherDlg.obj
 0002:00068de0       ?SortListView@CLauncherDlg@@IAEXXZ 00543de0 f   LauncherDlg.obj
 0002:00069200       ?SetLastSelect@CLauncherDlg@@IAEXXZ 00544200 f   LauncherDlg.obj
 0002:000695a0       ?OnUpdateStart@CLauncherDlg@@IAEXXZ 005445a0 f   LauncherDlg.obj
 0002:00069670       ?OnUpdateStop@CLauncherDlg@@IAEXXZ 00544670 f   LauncherDlg.obj
 0002:00069740       ?OnTimer@CLauncherDlg@@IAEHPAUHWND__@@IJAAH@Z 00544740 f   LauncherDlg.obj
 0002:000697b0       ?UpdateListView@CLauncherDlg@@IAEXXZ 005447b0 f   LauncherDlg.obj
 0002:00069ac0       ?CheckFile@CLauncherDlg@@IAEXAAVFILELIST@@@Z 00544ac0 f   LauncherDlg.obj
 0002:0006b330       ??0ROMDB@@QAE@XZ           00546330 f i LauncherDlg.obj
 0002:0006b430       ??1ROMDB@@QAE@XZ           00546430 f i LauncherDlg.obj
 0002:0006b530       ?ResetFileList@CLauncherDlg@@IAEXXZ 00546530 f   LauncherDlg.obj
 0002:0006b980       ?OnInitDialog@CLauncherDlg@@IAEHPAUHWND__@@IJAAH@Z 00546980 f   LauncherDlg.obj
 0002:0006bda0       ?OnDestroy@CLauncherDlg@@IAEHPAUHWND__@@IJAAH@Z 00546da0 f   LauncherDlg.obj
 0002:0006be60       ?OnClose@CLauncherDlg@@IAEHPAUHWND__@@IJAAH@Z 00546e60 f   LauncherDlg.obj
 0002:0006bed0       ?OnActivate@CLauncherDlg@@IAEHPAUHWND__@@IJAAH@Z 00546ed0 f   LauncherDlg.obj
 0002:0006bfd0       ?OnSetCursor@CLauncherDlg@@IAEHPAUHWND__@@IJAAH@Z 00546fd0 f   LauncherDlg.obj
 0002:0006c010       ?OnSize@CLauncherDlg@@IAEHPAUHWND__@@IJAAH@Z 00547010 f   LauncherDlg.obj
 0002:0006c210       ?OnInitMenuPopup@CLauncherDlg@@IAEHPAUHWND__@@IJAAH@Z 00547210 f   LauncherDlg.obj
 0002:0006c2f0       ?OnUpdateMenu@CLauncherDlg@@IAEXPAUHMENU__@@I@Z 005472f0 f   LauncherDlg.obj
 0002:0006c3c0       ?OnKeyDownListView@CLauncherDlg@@IAEXPAUHWND__@@IPAUtagNMHDR@@AAJ@Z 005473c0 f   LauncherDlg.obj
 0002:0006c450       ?OnReturnListView@CLauncherDlg@@IAEXPAUHWND__@@IPAUtagNMHDR@@AAJ@Z 00547450 f   LauncherDlg.obj
 0002:0006c4c0       ?OnDoubleClickListView@CLauncherDlg@@IAEXPAUHWND__@@IPAUtagNMHDR@@AAJ@Z 005474c0 f   LauncherDlg.obj
 0002:0006c640       ?OnColumnClickListView@CLauncherDlg@@IAEXPAUHWND__@@IPAUtagNMHDR@@AAJ@Z 00547640 f   LauncherDlg.obj
 0002:0006c6f0       ?OnItemChangedListView@CLauncherDlg@@IAEXPAUHWND__@@IPAUtagNMHDR@@AAJ@Z 005476f0 f   LauncherDlg.obj
 0002:0006c760       ?OnOK@CLauncherDlg@@IAEXPAUHWND__@@I@Z 00547760 f   LauncherDlg.obj
 0002:0006c8e0       ?OnCancel@CLauncherDlg@@IAEXPAUHWND__@@I@Z 005478e0 f   LauncherDlg.obj
 0002:0006c950       ?OnListSelect@CLauncherDlg@@IAEXPAUHWND__@@I@Z 00547950 f   LauncherDlg.obj
 0002:0006ca30       ?OnRefresh@CLauncherDlg@@IAEXPAUHWND__@@I@Z 00547a30 f   LauncherDlg.obj
 0002:0006cab0       ?OnDispEdit@CLauncherDlg@@IAEXPAUHWND__@@I@Z 00547ab0 f   LauncherDlg.obj
 0002:0006cc20       ??0CLchDispEditDlg@@QAE@XZ 00547c20 f i LauncherDlg.obj
 0002:0006cc80       ??1CLchDispEditDlg@@UAE@XZ 00547c80 f i LauncherDlg.obj
 0002:0006ccd0       ??_ECLchDispEditDlg@@UAEPAXI@Z 00547cd0 f i LauncherDlg.obj
 0002:0006ccd0       ??_GCLchDispEditDlg@@UAEPAXI@Z 00547cd0 f i LauncherDlg.obj
 0002:0006cd40       ?OnFolder@CLauncherDlg@@IAEXPAUHWND__@@I@Z 00547d40 f   LauncherDlg.obj
 0002:0006ce80       ??0CLchFolderConfigDlg@@QAE@XZ 00547e80 f i LauncherDlg.obj
 0002:0006cee0       ??1CLchFolderConfigDlg@@UAE@XZ 00547ee0 f i LauncherDlg.obj
 0002:0006cf30       ??_ECLchFolderConfigDlg@@UAEPAXI@Z 00547f30 f i LauncherDlg.obj
 0002:0006cf30       ??_GCLchFolderConfigDlg@@UAEPAXI@Z 00547f30 f i LauncherDlg.obj
 0002:0006cfa0       ?OnHeaderEdit@CLauncherDlg@@IAEXPAUHWND__@@I@Z 00547fa0 f   LauncherDlg.obj
 0002:0006d960       ??0CLchHeaderEditDlg@@QAE@XZ 00548960 f i LauncherDlg.obj
 0002:0006d9c0       ??1CLchHeaderEditDlg@@UAE@XZ 005489c0 f i LauncherDlg.obj
 0002:0006da10       ??_GCLchHeaderEditDlg@@UAEPAXI@Z 00548a10 f i LauncherDlg.obj
 0002:0006da10       ??_ECLchHeaderEditDlg@@UAEPAXI@Z 00548a10 f i LauncherDlg.obj
 0002:0006da80       ?LoadFileList@CLauncherDlg@@IAEHXZ 00548a80 f   LauncherDlg.obj
 0002:0006e320       ?SaveFileList@CLauncherDlg@@IAEXXZ 00549320 f   LauncherDlg.obj
 0002:0006e760       ?DispatchDlg@CLchDispEditDlg@@MAEHPAUHWND__@@IIJ@Z 00549760 f   LauncherDlg.obj
 0002:0006e9b0       ?DoModal@CLchDispEditDlg@@UAEHPAUHWND__@@@Z 005499b0 f   LauncherDlg.obj
 0002:0006ea30       ?OnInitDialog@CLchDispEditDlg@@IAEHPAUHWND__@@IJAAH@Z 00549a30 f   LauncherDlg.obj
 0002:0006ecb0       ?OnAdd@CLchDispEditDlg@@IAEXPAUHWND__@@I@Z 00549cb0 f   LauncherDlg.obj
 0002:0006ef70       ?OnDel@CLchDispEditDlg@@IAEXPAUHWND__@@I@Z 00549f70 f   LauncherDlg.obj
 0002:0006f230       ?OnUp@CLchDispEditDlg@@IAEXPAUHWND__@@I@Z 0054a230 f   LauncherDlg.obj
 0002:0006f420       ?OnDown@CLchDispEditDlg@@IAEXPAUHWND__@@I@Z 0054a420 f   LauncherDlg.obj
 0002:0006f620       ?OnOK@CLchDispEditDlg@@IAEXPAUHWND__@@I@Z 0054a620 f   LauncherDlg.obj
 0002:0006f720       ?OnCancel@CLchDispEditDlg@@IAEXPAUHWND__@@I@Z 0054a720 f   LauncherDlg.obj
 0002:0006f790       ?DispatchDlg@CLchFolderConfigDlg@@MAEHPAUHWND__@@IIJ@Z 0054a790 f   LauncherDlg.obj
 0002:0006f980       ?DoModal@CLchFolderConfigDlg@@UAEHPAUHWND__@@@Z 0054a980 f   LauncherDlg.obj
 0002:0006fa00       ?OnInitDialog@CLchFolderConfigDlg@@IAEHPAUHWND__@@IJAAH@Z 0054aa00 f   LauncherDlg.obj
 0002:0006fc90       ?OnOK@CLchFolderConfigDlg@@IAEXPAUHWND__@@I@Z 0054ac90 f   LauncherDlg.obj
 0002:0006fe70       ?OnCancel@CLchFolderConfigDlg@@IAEXPAUHWND__@@I@Z 0054ae70 f   LauncherDlg.obj
 0002:0006fee0       ?OnAdd@CLchFolderConfigDlg@@IAEXPAUHWND__@@I@Z 0054aee0 f   LauncherDlg.obj
 0002:00070160       ?OnDel@CLchFolderConfigDlg@@IAEXPAUHWND__@@I@Z 0054b160 f   LauncherDlg.obj
 0002:000702b0       ?DispatchDlg@CLchHeaderEditDlg@@MAEHPAUHWND__@@IIJ@Z 0054b2b0 f   LauncherDlg.obj
 0002:00070430       ?DoModal@CLchHeaderEditDlg@@UAEHPAUHWND__@@@Z 0054b430 f   LauncherDlg.obj
 0002:000704b0       ?OnInitDialog@CLchHeaderEditDlg@@IAEHPAUHWND__@@IJAAH@Z 0054b4b0 f   LauncherDlg.obj
 0002:00070630       ?OnOK@CLchHeaderEditDlg@@IAEXPAUHWND__@@I@Z 0054b630 f   LauncherDlg.obj
 0002:00070890       ?OnCancel@CLchHeaderEditDlg@@IAEXPAUHWND__@@I@Z 0054b890 f   LauncherDlg.obj
 0002:00070900       ?compare@?$basic_string@DU?$char_traits@D@std@@V?$allocator@D@2@@std@@QBEHPBD@Z 0054b900 f i LauncherDlg.obj
 0002:00070990       ??A?$vector@VFILELIST@@V?$allocator@VFILELIST@@@std@@@std@@QAEAAVFILELIST@@I@Z 0054b990 f i LauncherDlg.obj
 0002:00070ae0       ?push_back@?$vector@VFILELIST@@V?$allocator@VFILELIST@@@std@@@std@@QAEXABVFILELIST@@@Z 0054bae0 f i LauncherDlg.obj
 0002:00070c50       ?clear@?$vector@VFILELIST@@V?$allocator@VFILELIST@@@std@@@std@@QAEXXZ 0054bc50 f i LauncherDlg.obj
 0002:00070de0       ??1?$_Vector_iterator@VFILELIST@@V?$allocator@VFILELIST@@@std@@@std@@QAE@XZ 0054bde0 f i LauncherDlg.obj
 0002:00070e30       ??0?$_Vector_const_iterator@VFILELIST@@V?$allocator@VFILELIST@@@std@@@std@@QAE@ABV01@@Z 0054be30 f i LauncherDlg.obj
 0002:00070ea0       ??1?$_Vector_const_iterator@VFILELIST@@V?$allocator@VFILELIST@@@std@@@std@@QAE@XZ 0054bea0 f i LauncherDlg.obj
 0002:00070ef0       ??0?$_Ranit@VFILELIST@@HPBV1@ABV1@@std@@QAE@ABU01@@Z 0054bef0 f i LauncherDlg.obj
 0002:00070f50       ??1?$_Ranit@VFILELIST@@HPBV1@ABV1@@std@@QAE@XZ 0054bf50 f i LauncherDlg.obj
 0002:00070fa0       ??0?$_Iterator_with_base@Urandom_access_iterator_tag@std@@VFILELIST@@HPBV3@ABV3@V_Iterator_base@2@@std@@QAE@ABU01@@Z 0054bfa0 f i LauncherDlg.obj
 0002:00071000       ??1?$_Iterator_with_base@Urandom_access_iterator_tag@std@@VFILELIST@@HPBV3@ABV3@V_Iterator_base@2@@std@@QAE@XZ 0054c000 f i LauncherDlg.obj
 0002:00071050       ?compare@?$basic_string@DU?$char_traits@D@std@@V?$allocator@D@2@@std@@QBEHIIPBDI@Z 0054c050 f i LauncherDlg.obj
 0002:000711a0       ?compare@?$char_traits@D@std@@SAHPBD0I@Z 0054c1a0 f i LauncherDlg.obj
 0002:00071200       ?capacity@?$vector@VFILELIST@@V?$allocator@VFILELIST@@@std@@@std@@QBEIXZ 0054c200 f i LauncherDlg.obj
 0002:00071280       ?begin@?$vector@VFILELIST@@V?$allocator@VFILELIST@@@std@@@std@@QAE?AV?$_Vector_iterator@VFILELIST@@V?$allocator@VFILELIST@@@std@@@2@XZ 0054c280 f i LauncherDlg.obj
 0002:00071310       ?end@?$vector@VFILELIST@@V?$allocator@VFILELIST@@@std@@@std@@QAE?AV?$_Vector_iterator@VFILELIST@@V?$allocator@VFILELIST@@@std@@@2@XZ 0054c310 f i LauncherDlg.obj
 0002:000713a0       ?size@?$vector@VFILELIST@@V?$allocator@VFILELIST@@@std@@@std@@QBEIXZ 0054c3a0 f i LauncherDlg.obj
 0002:000713f0       ?insert@?$vector@VFILELIST@@V?$allocator@VFILELIST@@@std@@@std@@QAE?AV?$_Vector_iterator@VFILELIST@@V?$allocator@VFILELIST@@@std@@@2@V?$_Vector_const_iterator@VFILELIST@@V?$allocator@VFILELIST@@@std@@@2@ABVFILELIST@@@Z 0054c3f0 f i LauncherDlg.obj
 0002:000715f0       ?erase@?$vector@VFILELIST@@V?$allocator@VFILELIST@@@std@@@std@@QAE?AV?$_Vector_iterator@VFILELIST@@V?$allocator@VFILELIST@@@std@@@2@V?$_Vector_const_iterator@VFILELIST@@V?$allocator@VFILELIST@@@std@@@2@0@Z 0054c5f0 f i LauncherDlg.obj
 0002:00071880       ?_Ufill@?$vector@VFILELIST@@V?$allocator@VFILELIST@@@std@@@std@@IAEPAVFILELIST@@PAV3@IABV3@@Z 0054c880 f i LauncherDlg.obj
 0002:00071900       ?_Orphan_range@?$vector@VFILELIST@@V?$allocator@VFILELIST@@@std@@@std@@IBEXPAVFILELIST@@0@Z 0054c900 f i LauncherDlg.obj
 0002:00071a00       ?_Make_iter@?$vector@VFILELIST@@V?$allocator@VFILELIST@@@std@@@std@@QBE?AV?$_Vector_iterator@VFILELIST@@V?$allocator@VFILELIST@@@std@@@2@V?$_Vector_const_iterator@VFILELIST@@V?$allocator@VFILELIST@@@std@@@2@@Z 0054ca00 f i LauncherDlg.obj
 0002:00071ad0       ?_Destroy@?$vector@VFILELIST@@V?$allocator@VFILELIST@@@std@@@std@@IAEXPAVFILELIST@@0@Z 0054cad0 f i LauncherDlg.obj
 0002:00071b40       ?_Insert_n@?$vector@VFILELIST@@V?$allocator@VFILELIST@@@std@@@std@@IAEXV?$_Vector_const_iterator@VFILELIST@@V?$allocator@VFILELIST@@@std@@@2@IABVFILELIST@@@Z 0054cb40 f i LauncherDlg.obj
 0002:000721b0       ?max_size@?$vector@VFILELIST@@V?$allocator@VFILELIST@@@std@@@std@@QBEIXZ 0054d1b0 f i LauncherDlg.obj
 0002:00072210       ?_Xlen@?$vector@VFILELIST@@V?$allocator@VFILELIST@@@std@@@std@@KAXXZ 0054d210 f i LauncherDlg.obj
 0002:000722f0       ?deallocate@?$allocator@VFILELIST@@@std@@QAEXPAVFILELIST@@I@Z 0054d2f0 f i LauncherDlg.obj
 0002:00072350       ?allocate@?$allocator@VFILELIST@@@std@@QAEPAVFILELIST@@I@Z 0054d350 f i LauncherDlg.obj
 0002:000723b0       ??0?$_Vector_iterator@VFILELIST@@V?$allocator@VFILELIST@@@std@@@std@@QAE@PAVFILELIST@@PBV_Container_base_secure@1@@Z 0054d3b0 f i LauncherDlg.obj
 0002:00072410       ??H?$_Vector_iterator@VFILELIST@@V?$allocator@VFILELIST@@@std@@@std@@QBE?AV01@H@Z 0054d410 f i LauncherDlg.obj
 0002:00072530       ??G?$_Vector_const_iterator@VFILELIST@@V?$allocator@VFILELIST@@@std@@@std@@QBEHABV01@@Z 0054d530 f i LauncherDlg.obj
 0002:000725a0       ??9?$_Vector_const_iterator@VFILELIST@@V?$allocator@VFILELIST@@@std@@@std@@QBE_NABV01@@Z 0054d5a0 f i LauncherDlg.obj
 0002:00072610       ??M?$_Vector_const_iterator@VFILELIST@@V?$allocator@VFILELIST@@@std@@@std@@QBE_NABV01@@Z 0054d610 f i LauncherDlg.obj
 0002:00072680       ??0FILELIST@@QAE@ABV0@@Z   0054d680 f i LauncherDlg.obj
 0002:00072890       ??0?$_Vector_iterator@VFILELIST@@V?$allocator@VFILELIST@@@std@@@std@@QAE@ABV01@@Z 0054d890 f i LauncherDlg.obj
 0002:000728f0       ?max_size@?$allocator@VFILELIST@@@std@@QBEIXZ 0054d8f0 f i LauncherDlg.obj
 0002:00072960       ??Y?$_Vector_iterator@VFILELIST@@V?$allocator@VFILELIST@@@std@@@std@@QAEAAV01@H@Z 0054d960 f i LauncherDlg.obj
 0002:000729c0       ??0?$_Vector_const_iterator@VFILELIST@@V?$allocator@VFILELIST@@@std@@@std@@QAE@PAVFILELIST@@PBV_Container_base_secure@1@@Z 0054d9c0 f i LauncherDlg.obj
 0002:00072af0       ??8?$_Vector_const_iterator@VFILELIST@@V?$allocator@VFILELIST@@@std@@@std@@QBE_NABV01@@Z 0054daf0 f i LauncherDlg.obj
 0002:00072b60       ?_Compat@?$_Vector_const_iterator@VFILELIST@@V?$allocator@VFILELIST@@@std@@@std@@QBEXABV12@@Z 0054db60 f i LauncherDlg.obj
 0002:00072c30       ??0?$_Ranit@VFILELIST@@HPBV1@ABV1@@std@@QAE@XZ 0054dc30 f i LauncherDlg.obj
 0002:00072c90       ??0?$_Iterator_with_base@Urandom_access_iterator_tag@std@@VFILELIST@@HPBV3@ABV3@V_Iterator_base@2@@std@@QAE@XZ 0054dc90 f i LauncherDlg.obj
 0002:00072cf0       ??Y?$_Vector_const_iterator@VFILELIST@@V?$allocator@VFILELIST@@@std@@@std@@QAEAAV01@H@Z 0054dcf0 f i LauncherDlg.obj
 0002:00072e60       ??$?HDU?$char_traits@D@std@@V?$allocator@D@1@@std@@YA?AV?$basic_string@DU?$char_traits@D@std@@V?$allocator@D@2@@0@ABV10@D@Z 0054de60 f i LauncherDlg.obj
 0002:00072f60       ??$unchecked_copy@PAVFILELIST@@PAV1@@stdext@@YAPAVFILELIST@@PAV1@00@Z 0054df60 f i LauncherDlg.obj
 0002:00073030       ??$unchecked_uninitialized_fill_n@PAVFILELIST@@IV1@V?$allocator@VFILELIST@@@std@@@stdext@@YAXPAVFILELIST@@IABV1@AAV?$allocator@VFILELIST@@@std@@@Z 0054e030 f i LauncherDlg.obj
 0002:000730d0       ??$_Destroy_range@V?$allocator@VFILELIST@@@std@@@std@@YAXPAVFILELIST@@0AAV?$allocator@VFILELIST@@@0@@Z 0054e0d0 f i LauncherDlg.obj
 0002:00073150       ??$_Umove@PAVFILELIST@@@?$vector@VFILELIST@@V?$allocator@VFILELIST@@@std@@@std@@IAEPAVFILELIST@@PAV2@00@Z 0054e150 f i LauncherDlg.obj
 0002:000731c0       ??$fill@PAVFILELIST@@V1@@std@@YAXPAVFILELIST@@0ABV1@@Z 0054e1c0 f i LauncherDlg.obj
 0002:00073230       ??$_Unchecked_move_backward@PAVFILELIST@@PAV1@@stdext@@YAPAVFILELIST@@PAV1@00@Z 0054e230 f i LauncherDlg.obj
 0002:00073300       ??$_Allocate@VFILELIST@@@std@@YAPAVFILELIST@@IPAV1@@Z 0054e300 f i LauncherDlg.obj
 0002:000733a0       ??Y?$basic_string@DU?$char_traits@D@std@@V?$allocator@D@2@@std@@QAEAAV01@D@Z 0054e3a0 f i LauncherDlg.obj
 0002:00073400       ?append@?$basic_string@DU?$char_traits@D@std@@V?$allocator@D@2@@std@@QAEAAV12@ID@Z 0054e400 f i LauncherDlg.obj
 0002:000734c0       ?_Chassign@?$basic_string@DU?$char_traits@D@std@@V?$allocator@D@2@@std@@IAEXIID@Z 0054e4c0 f i LauncherDlg.obj
 0002:00073560       ?assign@?$char_traits@D@std@@SAPADPADID@Z 0054e560 f i LauncherDlg.obj
 0002:000735c0       ??$_Checked_base@PAVFILELIST@@@std@@YAPAVFILELIST@@AAPAV1@@Z 0054e5c0 f i LauncherDlg.obj
 0002:00073650       ??$_Iter_random@PAVFILELIST@@PAV1@@std@@YA?AUrandom_access_iterator_tag@0@ABQAVFILELIST@@0@Z 0054e650 f i LauncherDlg.obj
 0002:000736c0       ??$_Ptr_cat@PAVFILELIST@@PAV1@@std@@YA?AU_Nonscalar_ptr_iterator_tag@0@AAPAVFILELIST@@0@Z 0054e6c0 f i LauncherDlg.obj
 0002:00073730       ??$_Copy_opt@PAVFILELIST@@PAV1@@std@@YAPAVFILELIST@@PAV1@00Urandom_access_iterator_tag@0@U_Nonscalar_ptr_iterator_tag@0@U_Range_checked_iterator_tag@0@@Z 0054e730 f i LauncherDlg.obj
 0002:000737f0       ??$_Uninit_fill_n@PAVFILELIST@@IV1@V?$allocator@VFILELIST@@@std@@@std@@YAXPAVFILELIST@@IABV1@AAV?$allocator@VFILELIST@@@0@U_Nonscalar_ptr_iterator_tag@0@U_Range_checked_iterator_tag@0@@Z 0054e7f0 f i LauncherDlg.obj
 0002:00073910       ??$_Destroy_range@V?$allocator@VFILELIST@@@std@@@std@@YAXPAVFILELIST@@0AAV?$allocator@VFILELIST@@@0@U_Nonscalar_ptr_iterator_tag@0@@Z 0054e910 f i LauncherDlg.obj
 0002:00073980       ??$_Unchecked_uninitialized_move@PAVFILELIST@@PAV1@V?$allocator@VFILELIST@@@std@@@stdext@@YAPAVFILELIST@@PAV1@00AAV?$allocator@VFILELIST@@@std@@@Z 0054e980 f i LauncherDlg.obj
 0002:00073a30       ??$_Fill@PAVFILELIST@@V1@@std@@YAXPAVFILELIST@@0ABV1@@Z 0054ea30 f i LauncherDlg.obj
 0002:00073ac0       ??$_Move_cat@PAVFILELIST@@@std@@YA?AU_Undefined_move_tag@0@ABQAVFILELIST@@@Z 0054eac0 f i LauncherDlg.obj
 0002:00073b30       ??$_Move_backward_opt@PAVFILELIST@@PAV1@Urandom_access_iterator_tag@std@@U_Undefined_move_tag@3@@std@@YAPAVFILELIST@@PAV1@00Urandom_access_iterator_tag@0@U_Undefined_move_tag@0@U_Range_checked_iterator_tag@0@@Z 0054eb30 f i LauncherDlg.obj
 0002:00073bd0       ?construct@?$allocator@VFILELIST@@@std@@QAEXPAVFILELIST@@ABV3@@Z 0054ebd0 f i LauncherDlg.obj
 0002:00073c30       ?destroy@?$allocator@VFILELIST@@@std@@QAEXPAVFILELIST@@@Z 0054ec30 f i LauncherDlg.obj
 0002:00073c90       ??$_Checked_base@PAVFILELIST@@@std@@YAPAVFILELIST@@AAPAV1@U_Unchanged_checked_iterator_base_type_tag@0@@Z 0054ec90 f i LauncherDlg.obj
 0002:00073cd0       ??$_Copy_opt@PAVFILELIST@@PAV1@Uforward_iterator_tag@std@@@std@@YAPAVFILELIST@@PAV1@00Uforward_iterator_tag@0@U_Nonscalar_ptr_iterator_tag@0@U_Range_checked_iterator_tag@0@@Z 0054ecd0 f i LauncherDlg.obj
 0002:00073d70       ??$_Uninit_move@PAVFILELIST@@PAV1@V?$allocator@VFILELIST@@@std@@U_Undefined_move_tag@3@@std@@YAPAVFILELIST@@PAV1@00AAV?$allocator@VFILELIST@@@0@U_Undefined_move_tag@0@U_Range_checked_iterator_tag@0@@Z 0054ed70 f i LauncherDlg.obj
 0002:00073dd0       ??$_Debug_range@PAVFILELIST@@@std@@YAXPAVFILELIST@@0PB_WI@Z 0054edd0 f i LauncherDlg.obj
 0002:00073e50       ??$_Copy_backward_opt@PAVFILELIST@@PAV1@@std@@YAPAVFILELIST@@PAV1@00Urandom_access_iterator_tag@0@U_Nonscalar_ptr_iterator_tag@0@U_Range_checked_iterator_tag@0@@Z 0054ee50 f i LauncherDlg.obj
 0002:00073f10       ??$_Construct@VFILELIST@@V1@@std@@YAXPAVFILELIST@@ABV1@@Z 0054ef10 f i LauncherDlg.obj
 0002:00074000       ??$_Destroy@VFILELIST@@@std@@YAXPAVFILELIST@@@Z 0054f000 f i LauncherDlg.obj
 0002:00074050       ??_GFILELIST@@QAEPAXI@Z    0054f050 f i LauncherDlg.obj
 0002:000740c0       ??$unchecked_uninitialized_copy@PAVFILELIST@@PAV1@V?$allocator@VFILELIST@@@std@@@stdext@@YAPAVFILELIST@@PAV1@00AAV?$allocator@VFILELIST@@@std@@@Z 0054f0c0 f i LauncherDlg.obj
 0002:00074170       ??$_Iter_cat@PAVFILELIST@@@std@@YA?AUrandom_access_iterator_tag@0@ABQAVFILELIST@@@Z 0054f170 f i LauncherDlg.obj
 0002:000741e0       ??$_Debug_range2@PAVFILELIST@@@std@@YAXPAVFILELIST@@0PB_WIUrandom_access_iterator_tag@0@@Z 0054f1e0 f i LauncherDlg.obj
 0002:00074280       ??$_Copy_backward_opt@PAVFILELIST@@PAV1@Uforward_iterator_tag@std@@@std@@YAPAVFILELIST@@PAV1@00Uforward_iterator_tag@0@U_Nonscalar_ptr_iterator_tag@0@U_Range_checked_iterator_tag@0@@Z 0054f280 f i LauncherDlg.obj
 0002:00074320       ??$_Uninit_copy@PAVFILELIST@@PAV1@V?$allocator@VFILELIST@@@std@@@std@@YAPAVFILELIST@@PAV1@00AAV?$allocator@VFILELIST@@@0@U_Nonscalar_ptr_iterator_tag@0@U_Range_checked_iterator_tag@0@@Z 0054f320 f i LauncherDlg.obj
 0002:00074480       ??$_Debug_pointer@VFILELIST@@@std@@YAXPAVFILELIST@@PB_WI@Z 0054f480 f i LauncherDlg.obj
 0002:000744e0       ??0?$vector@VFILELIST@@V?$allocator@VFILELIST@@@std@@@std@@QAE@XZ 0054f4e0 f i LauncherDlg.obj
 0002:000745a0       ??1?$_Vector_val@VFILELIST@@V?$allocator@VFILELIST@@@std@@@std@@QAE@XZ 0054f5a0 f i LauncherDlg.obj
 0002:000745f0       ?_Buy@?$vector@VFILELIST@@V?$allocator@VFILELIST@@@std@@@std@@IAE_NI@Z 0054f5f0 f i LauncherDlg.obj
 0002:000746d0       ??0?$_Vector_val@VFILELIST@@V?$allocator@VFILELIST@@@std@@@std@@IAE@V?$allocator@VFILELIST@@@1@@Z 0054f6d0 f i LauncherDlg.obj
 0002:00074750       ??1?$_Container_base_aux_alloc_empty@V?$allocator@VFILELIST@@@std@@@std@@IAE@XZ 0054f750 f i LauncherDlg.obj
 0002:000747a0       ??0?$allocator@VFILELIST@@@std@@QAE@XZ 0054f7a0 f i LauncherDlg.obj
 0002:000747e0       ??0?$_Container_base_aux_alloc_empty@V?$allocator@VFILELIST@@@std@@@std@@IAE@V?$allocator@VFILELIST@@@1@@Z 0054f7e0 f i LauncherDlg.obj
 0002:00074840       ??0?$allocator@VFILELIST@@@std@@QAE@ABV01@@Z 0054f840 f i LauncherDlg.obj
 0002:00074880       ??1?$vector@VFILELIST@@V?$allocator@VFILELIST@@@std@@@std@@QAE@XZ 0054f880 f i LauncherDlg.obj
 0002:00074920       ?_Tidy@?$vector@VFILELIST@@V?$allocator@VFILELIST@@@std@@@std@@IAEXXZ 0054f920 f i LauncherDlg.obj
 0002:000749f0       ?DispatchWnd@CMainFrame@@MAEJPAUHWND__@@IIJ@Z 0054f9f0 f   MainFrame.obj
 0002:00076610       ?Create@CMainFrame@@UAEHPAUHWND__@@@Z 00551610 f   MainFrame.obj
 0002:00076810       ?SetHWnd@CApp@@SAXPAUHWND__@@@Z 00551810 f i MainFrame.obj
 0002:00076850       ?Destroy@CMainFrame@@UAEXXZ 00551850 f   MainFrame.obj
 0002:000768f0       ?PreTranslateMessage@CMainFrame@@UAEHPAUtagMSG@@@Z 005518f0 f   MainFrame.obj
 0002:00076930       ?OnCreate@CMainFrame@@IAEHPAUHWND__@@IJAAJ@Z 00551930 f   MainFrame.obj
 0002:000770b0       ?SetCmdShow@CApp@@SAXH@Z   005520b0 f i MainFrame.obj
 0002:000770f0       ?SetMenu@CApp@@SAXPAUHMENU__@@@Z 005520f0 f i MainFrame.obj
 0002:00077130       ?SetBufferSize@CDirectSound@@QAEXH@Z 00552130 f i MainFrame.obj
 0002:00077180       ?SetUseHEL@CDirectDraw@@QAEXH@Z 00552180 f i MainFrame.obj
 0002:000771e0       ?SetSystemMemory@CDirectDraw@@QAEXH@Z 005521e0 f i MainFrame.obj
 0002:00077240       ?SetFlipMode@CDirectDraw@@QAEXH@Z 00552240 f i MainFrame.obj
 0002:00077290       ?SetAspectMode@CDirectDraw@@QAEXH@Z 00552290 f i MainFrame.obj
 0002:000772e0       ?SetAllLineMode@CDirectDraw@@QAEXH@Z 005522e0 f i MainFrame.obj
 0002:00077330       ?SetMaxZoom@CDirectDraw@@QAEXH@Z 00552330 f i MainFrame.obj
 0002:00077380       ?SetDoubleSize@CDirectDraw@@QAEXH@Z 00552380 f i MainFrame.obj
 0002:000773e0       ?SetTVFrameMode@CDirectDraw@@QAEXH@Z 005523e0 f i MainFrame.obj
 0002:00077430       ?SetScanlineMode@CDirectDraw@@QAEXH@Z 00552430 f i MainFrame.obj
 0002:00077490       ?SetWindowVSyncMode@CDirectDraw@@QAEXH@Z 00552490 f i MainFrame.obj
 0002:000774e0       ?SetGraphicsFilter@CDirectDraw@@QAEXH@Z 005524e0 f i MainFrame.obj
 0002:00077540       ?SetJoyAxisMode@CDirectInput@@QAEXPAG@Z 00552540 f i MainFrame.obj
 0002:000775c0       ?OnClose@CMainFrame@@IAEHPAUHWND__@@IJAAJ@Z 005525c0 f   MainFrame.obj
 0002:000778f0       ?OnDestroy@CMainFrame@@IAEHPAUHWND__@@IJAAJ@Z 005528f0 f   MainFrame.obj
 0002:00077950       ?OnGetMinMaxInfo@CMainFrame@@IAEHPAUHWND__@@IJAAJ@Z 00552950 f   MainFrame.obj
 0002:000779b0       ?OnActivate@CMainFrame@@IAEHPAUHWND__@@IJAAJ@Z 005529b0 f   MainFrame.obj
 0002:00077ad0       ?OnActivateApp@CMainFrame@@IAEHPAUHWND__@@IJAAJ@Z 00552ad0 f   MainFrame.obj
 0002:00077bf0       ?OnShortCutEnable@CMainFrame@@IAEHPAUHWND__@@IJAAJ@Z 00552bf0 f   MainFrame.obj
 0002:00077c60       ?OnEnable@CMainFrame@@IAEHPAUHWND__@@IJAAJ@Z 00552c60 f   MainFrame.obj
 0002:00077cf0       ?OnEnterMenuLoop@CMainFrame@@IAEHPAUHWND__@@IJAAJ@Z 00552cf0 f   MainFrame.obj
 0002:00077d60       ?OnExitMenuLoop@CMainFrame@@IAEHPAUHWND__@@IJAAJ@Z 00552d60 f   MainFrame.obj
 0002:00077dd0       ?OnSetFocus@CMainFrame@@IAEHPAUHWND__@@IJAAJ@Z 00552dd0 f   MainFrame.obj
 0002:00077e70       ?OnKillFocus@CMainFrame@@IAEHPAUHWND__@@IJAAJ@Z 00552e70 f   MainFrame.obj
 0002:00077ec0       ?OnInitMenu@CMainFrame@@IAEHPAUHWND__@@IJAAJ@Z 00552ec0 f   MainFrame.obj
 0002:00077f40       ?GetMenu@CApp@@SAPAUHMENU__@@XZ 00552f40 f i MainFrame.obj
 0002:00077f80       ?OnInitMenuPopup@CMainFrame@@IAEHPAUHWND__@@IJAAJ@Z 00552f80 f   MainFrame.obj
 0002:00078060       ?OnPaint@CMainFrame@@IAEHPAUHWND__@@IJAAJ@Z 00553060 f   MainFrame.obj
 0002:000781f0       ?OnDisplayChange@CMainFrame@@IAEHPAUHWND__@@IJAAJ@Z 005531f0 f   MainFrame.obj
 0002:00078290       ?OnPaletteChanged@CMainFrame@@IAEHPAUHWND__@@IJAAJ@Z 00553290 f   MainFrame.obj
 0002:00078300       ?OnQueryNewPalette@CMainFrame@@IAEHPAUHWND__@@IJAAJ@Z 00553300 f   MainFrame.obj
 0002:00078360       ?OnMenuChar@CMainFrame@@IAEHPAUHWND__@@IJAAJ@Z 00553360 f   MainFrame.obj
 0002:000783b0       ?OnKeyDown@CMainFrame@@IAEHPAUHWND__@@IJAAJ@Z 005533b0 f   MainFrame.obj
 0002:00078440       ?OnSize@CMainFrame@@IAEHPAUHWND__@@IJAAJ@Z 00553440 f   MainFrame.obj
 0002:00078550       ?OnSysCommand@CMainFrame@@IAEHPAUHWND__@@IJAAJ@Z 00553550 f   MainFrame.obj
 0002:000785f0       ?OnExitSizeMove@CMainFrame@@IAEHPAUHWND__@@IJAAJ@Z 005535f0 f   MainFrame.obj
 0002:00078670       ?OnSetCursor@CMainFrame@@IAEHPAUHWND__@@IJAAJ@Z 00553670 f   MainFrame.obj
 0002:000787b0       ?OnTimer@CMainFrame@@IAEHPAUHWND__@@IJAAJ@Z 005537b0 f   MainFrame.obj
 0002:00078930       ?OnCopyData@CMainFrame@@IAEHPAUHWND__@@IJAAJ@Z 00553930 f   MainFrame.obj
 0002:000789a0       ?OnErrorMessage@CMainFrame@@IAEHPAUHWND__@@IJAAJ@Z 005539a0 f   MainFrame.obj
 0002:00078c40       ?OnExit@CMainFrame@@IAEXPAUHWND__@@I@Z 00553c40 f   MainFrame.obj
 0002:00078cb0       ?OnHelp@CMainFrame@@IAEXPAUHWND__@@I@Z 00553cb0 f   MainFrame.obj
 0002:00078de0       ?OnAbout@CMainFrame@@IAEXPAUHWND__@@I@Z 00553de0 f   MainFrame.obj
 0002:00078ed0       ??0CAboutDlg@@QAE@XZ       00553ed0 f i MainFrame.obj
 0002:00078fa0       ??0CHyperLink@@QAE@XZ      00553fa0 f i MainFrame.obj
 0002:00079030       ??1CHyperLink@@QAE@XZ      00554030 f i MainFrame.obj
 0002:00079080       ??1CAboutDlg@@UAE@XZ       00554080 f i MainFrame.obj
 0002:00079140       ??_GCAboutDlg@@UAEPAXI@Z   00554140 f i MainFrame.obj
 0002:00079140       ??_ECAboutDlg@@UAEPAXI@Z   00554140 f i MainFrame.obj
 0002:000791b0       ?OnFileOpen@CMainFrame@@IAEXPAUHWND__@@I@Z 005541b0 f   MainFrame.obj
 0002:00079500       ?OnFileClose@CMainFrame@@IAEXPAUHWND__@@I@Z 00554500 f   MainFrame.obj
 0002:00079770       ?OnCommandLine@CMainFrame@@IAEHPAUHWND__@@IJAAJ@Z 00554770 f   MainFrame.obj
 0002:000797d0       ?OnLauncherCommand@CMainFrame@@IAEHPAUHWND__@@IJAAJ@Z 005547d0 f   MainFrame.obj
 0002:000798a0       ?OnNetPlay@CMainFrame@@IAEHPAUHWND__@@IJAAJ@Z 005548a0 f   MainFrame.obj
 0002:00079930       ?OnNetPlayClose@CMainFrame@@IAEHPAUHWND__@@IJAAJ@Z 00554930 f   MainFrame.obj
 0002:000799e0       ?SetMsgWnd@CNetPlay@@QAEXPAUHWND__@@@Z 005549e0 f i MainFrame.obj
 0002:00079a30       ?OnNetPlayError@CMainFrame@@IAEHPAUHWND__@@IJAAJ@Z 00554a30 f   MainFrame.obj
 0002:00079ae0       ?OnNetPlayChatPopup@CMainFrame@@IAEHPAUHWND__@@IJAAJ@Z 00554ae0 f   MainFrame.obj
 0002:00079d80       ?OnRecentOpen@CMainFrame@@IAEXPAUHWND__@@I@Z 00554d80 f   MainFrame.obj
 0002:00079df0       ?OnRecentOpenPath@CMainFrame@@IAEXPAUHWND__@@I@Z 00554df0 f   MainFrame.obj
 0002:0007a030       ?OnDropFiles@CMainFrame@@IAEHPAUHWND__@@IJAAJ@Z 00555030 f   MainFrame.obj
 0002:0007a4c0       ?OnEmulationStart@CMainFrame@@IAEXPBDH@Z 005554c0 f   MainFrame.obj
 0002:0007ab40       ?OnRomInfo@CMainFrame@@IAEXPAUHWND__@@I@Z 00555b40 f   MainFrame.obj
 0002:0007ae20       ?GetPROM_SIZE@ROM@@QAEEXZ  00555e20 f i MainFrame.obj
 0002:0007ae60       ?GetVROM_SIZE@ROM@@QAEEXZ  00555e60 f i MainFrame.obj
 0002:0007aea0       ?GetROM_CRC@ROM@@QAEKXZ    00555ea0 f i MainFrame.obj
 0002:0007aee0       ?GetVROM_CRC@ROM@@QAEKXZ   00555ee0 f i MainFrame.obj
 0002:0007af20       ?IsVMIRROR@ROM@@QAEHXZ     00555f20 f i MainFrame.obj
 0002:0007af70       ?Is4SCREEN@ROM@@QAEHXZ     00555f70 f i MainFrame.obj
 0002:0007afc0       ?IsSAVERAM@ROM@@QAEHXZ     00555fc0 f i MainFrame.obj
 0002:0007b010       ?IsTRAINER@ROM@@QAEHXZ     00556010 f i MainFrame.obj
 0002:0007b060       ?IsVSUNISYSTEM@ROM@@QAEHXZ 00556060 f i MainFrame.obj
 0002:0007b0b0       ??0CRomInfoDlg@@QAE@XZ     005560b0 f i MainFrame.obj
 0002:0007b1d0       ??_ECRomInfoDlg@@UAEPAXI@Z 005561d0 f i MainFrame.obj
 0002:0007b1d0       ??_GCRomInfoDlg@@UAEPAXI@Z 005561d0 f i MainFrame.obj
 0002:0007b240       ??1CRomInfoDlg@@UAE@XZ     00556240 f i MainFrame.obj
 0002:0007b290       ?OnWaveRecord@CMainFrame@@IAEXPAUHWND__@@I@Z 00556290 f   MainFrame.obj
 0002:0007b6f0       ?IsWaveRecord@CEmuThread@@QAEHXZ 005566f0 f i MainFrame.obj
 0002:0007b750       ?IsWaveRecord@CWaveRec@@QAEHXZ 00556750 f i MainFrame.obj
 0002:0007b7a0       ?OnLauncher@CMainFrame@@IAEXPAUHWND__@@I@Z 005567a0 f   MainFrame.obj
 0002:0007ba00       ?OnNetPlayConnect@CMainFrame@@IAEXPAUHWND__@@I@Z 00556a00 f   MainFrame.obj
 0002:0007bc40       ?IsMovieRec@NES@@QAEHXZ    00556c40 f i MainFrame.obj
 0002:0007bc80       ??0CNetPlayDlg@@QAE@XZ     00556c80 f i MainFrame.obj
 0002:0007bce0       ??1CNetPlayDlg@@UAE@XZ     00556ce0 f i MainFrame.obj
 0002:0007bd30       ??_ECNetPlayDlg@@UAEPAXI@Z 00556d30 f i MainFrame.obj
 0002:0007bd30       ??_GCNetPlayDlg@@UAEPAXI@Z 00556d30 f i MainFrame.obj
 0002:0007bda0       ?OnNetPlayDisconnect@CMainFrame@@IAEXPAUHWND__@@I@Z 00556da0 f   MainFrame.obj
 0002:0007be20       ?OnNetPlayChat@CMainFrame@@IAEXPAUHWND__@@I@Z 00556e20 f   MainFrame.obj
 0002:0007c0b0       ?OnSearch@CMainFrame@@IAEXPAUHWND__@@I@Z 005570b0 f   MainFrame.obj
 0002:0007c340       ?OnCheat@CMainFrame@@IAEXPAUHWND__@@I@Z 00557340 f   MainFrame.obj
 0002:0007c490       ??0CCheatCodeDlg@@QAE@XZ   00557490 f i MainFrame.obj
 0002:0007c550       ??1CCheatCodeDlg@@UAE@XZ   00557550 f i MainFrame.obj
 0002:0007c600       ??_ECCheatCodeDlg@@UAEPAXI@Z 00557600 f i MainFrame.obj
 0002:0007c600       ??_GCCheatCodeDlg@@UAEPAXI@Z 00557600 f i MainFrame.obj
 0002:0007c670       ?OnGenie@CMainFrame@@IAEXPAUHWND__@@I@Z 00557670 f   MainFrame.obj
 0002:0007ca70       ?OnCheatCommand@CMainFrame@@IAEXPAUHWND__@@I@Z 00557a70 f   MainFrame.obj
 0002:0007cb20       ?OnDatachBacode@CMainFrame@@IAEXPAUHWND__@@I@Z 00557b20 f   MainFrame.obj
 0002:0007cdb0       ?OnDipSwitch@CMainFrame@@IAEXPAUHWND__@@I@Z 00557db0 f   MainFrame.obj
 0002:0007cea0       ??0CDipSwitchDlg@@QAE@XZ   00557ea0 f i MainFrame.obj
 0002:0007cf00       ??1CDipSwitchDlg@@UAE@XZ   00557f00 f i MainFrame.obj
 0002:0007cf50       ??_GCDipSwitchDlg@@UAEPAXI@Z 00557f50 f i MainFrame.obj
 0002:0007cf50       ??_ECDipSwitchDlg@@UAEPAXI@Z 00557f50 f i MainFrame.obj
 0002:0007cfc0       ?OnEmulatorCfg@CMainFrame@@IAEXPAUHWND__@@I@Z 00557fc0 f   MainFrame.obj
 0002:0007d0d0       ??0CEmulatorDlg@@QAE@XZ    005580d0 f i MainFrame.obj
 0002:0007d130       ??1CEmulatorDlg@@UAE@XZ    00558130 f i MainFrame.obj
 0002:0007d180       ??_GCEmulatorDlg@@UAEPAXI@Z 00558180 f i MainFrame.obj
 0002:0007d180       ??_ECEmulatorDlg@@UAEPAXI@Z 00558180 f i MainFrame.obj
 0002:0007d1f0       ?OnGraphicsCfg@CMainFrame@@IAEXPAUHWND__@@I@Z 005581f0 f   MainFrame.obj
 0002:0007d680       ?SetScreenMode@CDirectDraw@@QAEXH@Z 00558680 f i MainFrame.obj
 0002:0007d6e0       ?GetUseHEL@CDirectDraw@@QAEHXZ 005586e0 f i MainFrame.obj
 0002:0007d720       ?GetSystemMemory@CDirectDraw@@QAEHXZ 00558720 f i MainFrame.obj
 0002:0007d760       ??0CGraphicsDlg@@QAE@XZ    00558760 f i MainFrame.obj
 0002:0007d7c0       ??1CGraphicsDlg@@UAE@XZ    005587c0 f i MainFrame.obj
 0002:0007d810       ??_GCGraphicsDlg@@UAEPAXI@Z 00558810 f i MainFrame.obj
 0002:0007d810       ??_ECGraphicsDlg@@UAEPAXI@Z 00558810 f i MainFrame.obj
 0002:0007d880       ?OnSoundCfg@CMainFrame@@IAEXPAUHWND__@@I@Z 00558880 f   MainFrame.obj
 0002:0007dae0       ?GetBufferSize@CDirectSound@@QAEHXZ 00558ae0 f i MainFrame.obj
 0002:0007db20       ?IsStreamPlay@CDirectSound@@QAEHXZ 00558b20 f i MainFrame.obj
 0002:0007db60       ??0CSoundDlg@@QAE@XZ       00558b60 f i MainFrame.obj
 0002:0007dbc0       ??1CSoundDlg@@UAE@XZ       00558bc0 f i MainFrame.obj
 0002:0007dc10       ??_ECSoundDlg@@UAEPAXI@Z   00558c10 f i MainFrame.obj
 0002:0007dc10       ??_GCSoundDlg@@UAEPAXI@Z   00558c10 f i MainFrame.obj
 0002:0007dc80       ?OnControllerCfg@CMainFrame@@IAEXPAUHWND__@@I@Z 00558c80 f   MainFrame.obj
 0002:0007dda0       ?SetFiltering@CWndHook@@SAXH@Z 00558da0 f i MainFrame.obj
 0002:0007dde0       ??0CControllerDlg@@QAE@XZ  00558de0 f i MainFrame.obj
 0002:0007deb0       ??1CControllerDlg@@UAE@XZ  00558eb0 f i MainFrame.obj
 0002:0007df60       ??_GCControllerDlg@@UAEPAXI@Z 00558f60 f i MainFrame.obj
 0002:0007df60       ??_ECControllerDlg@@UAEPAXI@Z 00558f60 f i MainFrame.obj
 0002:0007dfd0       ??0CControllerPageDlg@@QAE@XZ 00558fd0 f i MainFrame.obj
 0002:0007e030       ?DoModal@CWnd@@UAEHPAUHWND__@@@Z 00559030 f i MainFrame.obj
 0002:0007e070       ??1CControllerPageDlg@@UAE@XZ 00559070 f i MainFrame.obj
 0002:0007e0c0       ??_GCControllerPageDlg@@UAEPAXI@Z 005590c0 f i MainFrame.obj
 0002:0007e0c0       ??_ECControllerPageDlg@@UAEPAXI@Z 005590c0 f i MainFrame.obj
 0002:0007e130       ?OnShortcutCfg@CMainFrame@@IAEXPAUHWND__@@I@Z 00559130 f   MainFrame.obj
 0002:0007e2f0       ??0CShortcutDlg@@QAE@XZ    005592f0 f i MainFrame.obj
 0002:0007e350       ??1CShortcutDlg@@UAE@XZ    00559350 f i MainFrame.obj
 0002:0007e3a0       ??_GCShortcutDlg@@UAEPAXI@Z 005593a0 f i MainFrame.obj
 0002:0007e3a0       ??_ECShortcutDlg@@UAEPAXI@Z 005593a0 f i MainFrame.obj
 0002:0007e410       ?OnFolderCfg@CMainFrame@@IAEXPAUHWND__@@I@Z 00559410 f   MainFrame.obj
 0002:0007e520       ?OnLanguageCfg@CMainFrame@@IAEXPAUHWND__@@I@Z 00559520 f   MainFrame.obj
 0002:0007ea20       ?SetPlugin@CApp@@SAXPAUHINSTANCE__@@@Z 00559a20 f i MainFrame.obj
 0002:0007ea70       ?GetPluginPath@CPlugin@@SAPBDXZ 00559a70 f i MainFrame.obj
 0002:0007eac0       ??0CLanguageDlg@@QAE@XZ    00559ac0 f i MainFrame.obj
 0002:0007eb20       ??1CLanguageDlg@@UAE@XZ    00559b20 f i MainFrame.obj
 0002:0007eb70       ??_ECLanguageDlg@@UAEPAXI@Z 00559b70 f i MainFrame.obj
 0002:0007eb70       ??_GCLanguageDlg@@UAEPAXI@Z 00559b70 f i MainFrame.obj
 0002:0007ebe0       ?OnMovieCfg@CMainFrame@@IAEXPAUHWND__@@I@Z 00559be0 f   MainFrame.obj
 0002:0007ece0       ??0CMovieDlg@@QAE@XZ       00559ce0 f i MainFrame.obj
 0002:0007ed40       ??1CMovieDlg@@UAE@XZ       00559d40 f i MainFrame.obj
 0002:0007ed90       ??_ECMovieDlg@@UAEPAXI@Z   00559d90 f i MainFrame.obj
 0002:0007ed90       ??_GCMovieDlg@@UAEPAXI@Z   00559d90 f i MainFrame.obj
 0002:0007ee00       ?OnGameOptionCfg@CMainFrame@@IAEXPAUHWND__@@I@Z 00559e00 f   MainFrame.obj
 0002:0007eef0       ??0CGameOptionDlg@@QAE@XZ  00559ef0 f i MainFrame.obj
 0002:0007ef50       ??1CGameOptionDlg@@UAE@XZ  00559f50 f i MainFrame.obj
 0002:0007efa0       ??_GCGameOptionDlg@@UAEPAXI@Z 00559fa0 f i MainFrame.obj
 0002:0007efa0       ??_ECGameOptionDlg@@UAEPAXI@Z 00559fa0 f i MainFrame.obj
 0002:0007f010       ?OnJoyAxisCfg@CMainFrame@@IAEXPAUHWND__@@I@Z 0055a010 f   MainFrame.obj
 0002:0007f120       ??0CJoyAxisDlg@@QAE@XZ     0055a120 f i MainFrame.obj
 0002:0007f180       ??1CJoyAxisDlg@@UAE@XZ     0055a180 f i MainFrame.obj
 0002:0007f1d0       ??_GCJoyAxisDlg@@UAEPAXI@Z 0055a1d0 f i MainFrame.obj
 0002:0007f1d0       ??_ECJoyAxisDlg@@UAEPAXI@Z 0055a1d0 f i MainFrame.obj
 0002:0007f240       ?OnPaletteEditCfg@CMainFrame@@IAEXPAUHWND__@@I@Z 0055a240 f   MainFrame.obj
 0002:0007f4c0       ?OnFullScreen@CMainFrame@@IAEXPAUHWND__@@I@Z 0055a4c0 f   MainFrame.obj
 0002:0007f870       ?OnZoom@CMainFrame@@IAEXPAUHWND__@@I@Z 0055a870 f   MainFrame.obj
 0002:0007f980       ?OnViewCommand@CMainFrame@@IAEXPAUHWND__@@I@Z 0055a980 f   MainFrame.obj
 0002:0007fc20       ?OnEmuCommand@CMainFrame@@IAEXPAUHWND__@@I@Z 0055ac20 f   MainFrame.obj
 0002:000805e0       ?OnStateCommand@CMainFrame@@IAEXPAUHWND__@@I@Z 0055b5e0 f   MainFrame.obj
 0002:000809f0       ?OnStateCommand2@CMainFrame@@IAEXPAUHWND__@@I@Z 0055b9f0 f   MainFrame.obj
 0002:00080e50       ?OnMovieCommand@CMainFrame@@IAEXPAUHWND__@@I@Z 0055be50 f   MainFrame.obj
 0002:00081650       ?OnMovieInfo@CMainFrame@@IAEXPAUHWND__@@I@Z 0055c650 f   MainFrame.obj
 0002:000817f0       ??0CMovieInfoDlg@@QAE@XZ   0055c7f0 f i MainFrame.obj
 0002:00081850       ??1CMovieInfoDlg@@UAE@XZ   0055c850 f i MainFrame.obj
 0002:000818a0       ??_ECMovieInfoDlg@@UAEPAXI@Z 0055c8a0 f i MainFrame.obj
 0002:000818a0       ??_GCMovieInfoDlg@@UAEPAXI@Z 0055c8a0 f i MainFrame.obj
 0002:00081910       ?OnMovieConv@CMainFrame@@IAEXPAUHWND__@@I@Z 0055c910 f   MainFrame.obj
 0002:00081ac0       ?OnTapeCommand@CMainFrame@@IAEXPAUHWND__@@I@Z 0055cac0 f   MainFrame.obj
 0002:00081fc0       ?OnFullScreenGDI@CMainFrame@@IAEXH@Z 0055cfc0 f   MainFrame.obj
 0002:00082040       ?OnShowCursor@CMainFrame@@IAEXH@Z 0055d040 f   MainFrame.obj
 0002:00082110       ?OnChangeMenu@CMainFrame@@IAEXH@Z 0055d110 f   MainFrame.obj
 0002:00082240       ?OnSetWindowSize@CMainFrame@@IAEXXZ 0055d240 f   MainFrame.obj
 0002:00082580       ?OnRebuildMenu@CMainFrame@@IAEXXZ 0055d580 f   MainFrame.obj
 0002:00082910       ?OnUpdateMenu@CMainFrame@@IAEXPAUHMENU__@@I@Z 0055d910 f   MainFrame.obj
 0002:00084480       ?IsTapePlay@NES@@QAEHXZ    0055f480 f i MainFrame.obj
 0002:000844c0       ?IsTapeRec@NES@@QAEHXZ     0055f4c0 f i MainFrame.obj
 0002:00084500       ?GetTurboFileBank@NES@@QAEHXZ 0055f500 f i MainFrame.obj
 0002:00084540       ?GetExController@PAD@@QAEHXZ 0055f540 f i MainFrame.obj
 0002:00084580       ?IsNSF@ROM@@QAEHXZ         0055f580 f i MainFrame.obj
 0002:000845c0       ?IsNetPlay@CNetPlay@@QAEHXZ 0055f5c0 f i MainFrame.obj
 0002:00084610       ?OnKeyControl@CMainFrame@@SAXXZ 0055f610 f   MainFrame.obj
 0002:00084db0       ?GetExController@CEmuThread@@QAEHXZ 0055fdb0 f i MainFrame.obj
 0002:00084e20       ?KeyThreadProc@CMainFrame@@KAXPAX@Z 0055fe20 f   MainFrame.obj
 0002:00084ec0       ??0?$vector@VCHEATCODE@@V?$allocator@VCHEATCODE@@@std@@@std@@QAE@XZ 0055fec0 f i MainFrame.obj
 0002:00084f80       ??1?$vector@VCHEATCODE@@V?$allocator@VCHEATCODE@@@std@@@std@@QAE@XZ 0055ff80 f i MainFrame.obj
 0002:00085020       ??1?$_Vector_val@VCHEATCODE@@V?$allocator@VCHEATCODE@@@std@@@std@@QAE@XZ 00560020 f i MainFrame.obj
 0002:00085070       ?_Buy@?$vector@VCHEATCODE@@V?$allocator@VCHEATCODE@@@std@@@std@@IAE_NI@Z 00560070 f i MainFrame.obj
 0002:00085150       ?_Tidy@?$vector@VCHEATCODE@@V?$allocator@VCHEATCODE@@@std@@@std@@IAEXXZ 00560150 f i MainFrame.obj
 0002:00085220       ??0?$_Vector_val@VCHEATCODE@@V?$allocator@VCHEATCODE@@@std@@@std@@IAE@V?$allocator@VCHEATCODE@@@1@@Z 00560220 f i MainFrame.obj
 0002:000852a0       ??1?$_Container_base_aux_alloc_empty@V?$allocator@VCHEATCODE@@@std@@@std@@IAE@XZ 005602a0 f i MainFrame.obj
 0002:000852f0       ??0?$allocator@VCHEATCODE@@@std@@QAE@XZ 005602f0 f i MainFrame.obj
 0002:00085330       ??0?$_Container_base_aux_alloc_empty@V?$allocator@VCHEATCODE@@@std@@@std@@IAE@V?$allocator@VCHEATCODE@@@1@@Z 00560330 f i MainFrame.obj
 0002:00085390       ??0?$allocator@VCHEATCODE@@@std@@QAE@ABV01@@Z 00560390 f i MainFrame.obj
 0002:000853d0       ??$?HDU?$char_traits@D@std@@V?$allocator@D@1@@std@@YA?AV?$basic_string@DU?$char_traits@D@std@@V?$allocator@D@2@@0@ABV10@0@Z 005603d0 f i MainFrame.obj
 0002:000854d0       ?DispatchWnd@CMemoryView@@MAEJPAUHWND__@@IIJ@Z 005604d0 f   MemoryView.obj
 0002:00085920       ??0CMemoryView@@QAE@XZ     00560920 f   MemoryView.obj
 0002:000859c0       ?DispatchDlg@CWnd@@MAEHPAUHWND__@@IIJ@Z 005609c0 f i MemoryView.obj
 0002:00085a00       ??_GCMemoryView@@UAEPAXI@Z 00560a00 f i MemoryView.obj
 0002:00085a00       ??_ECMemoryView@@UAEPAXI@Z 00560a00 f i MemoryView.obj
 0002:00085a70       ??1CMemoryView@@UAE@XZ     00560a70 f   MemoryView.obj
 0002:00085ad0       ?Create@CMemoryView@@UAEHPAUHWND__@@@Z 00560ad0 f   MemoryView.obj
 0002:00085c20       ?Destroy@CMemoryView@@UAEXXZ 00560c20 f   MemoryView.obj
 0002:00085d10       ?OnCreate@CMemoryView@@IAEHPAUHWND__@@IJAAJ@Z 00560d10 f   MemoryView.obj
 0002:000860a0       ?OnClose@CMemoryView@@IAEHPAUHWND__@@IJAAJ@Z 005610a0 f   MemoryView.obj
 0002:00086130       ?OnDestroy@CMemoryView@@IAEHPAUHWND__@@IJAAJ@Z 00561130 f   MemoryView.obj
 0002:000861b0       ?OnActivate@CMemoryView@@IAEHPAUHWND__@@IJAAJ@Z 005611b0 f   MemoryView.obj
 0002:00086260       ?OnSize@CMemoryView@@IAEHPAUHWND__@@IJAAJ@Z 00561260 f   MemoryView.obj
 0002:00086460       ?OnLButtonDown@CMemoryView@@IAEHPAUHWND__@@IJAAJ@Z 00561460 f   MemoryView.obj
 0002:00086550       ?OnMouseWheel@CMemoryView@@IAEHPAUHWND__@@IJAAJ@Z 00561550 f   MemoryView.obj
 0002:000866c0       ?OnChar@CMemoryView@@IAEHPAUHWND__@@IJAAJ@Z 005616c0 f   MemoryView.obj
 0002:00086af0       ?OnKeyDown@CMemoryView@@IAEHPAUHWND__@@IJAAJ@Z 00561af0 f   MemoryView.obj
 0002:00086f10       ?OnVScroll@CMemoryView@@IAEHPAUHWND__@@IJAAJ@Z 00561f10 f   MemoryView.obj
 0002:00087100       ?OnPaint@CMemoryView@@IAEHPAUHWND__@@IJAAJ@Z 00562100 f   MemoryView.obj
 0002:00087250       ?OnTimer@CMemoryView@@IAEHPAUHWND__@@IJAAJ@Z 00562250 f   MemoryView.obj
 0002:00087310       ?OnDraw@CMemoryView@@IAEXPAUHDC__@@@Z 00562310 f   MemoryView.obj
 0002:00087990       ??0CMMTimer@@QAE@XZ        00562990 f   MMTimer.obj
 0002:00087a50       ??1CMMTimer@@QAE@XZ        00562a50 f   MMTimer.obj
 0002:00087ad0       ?GetMMTimer@CMMTimer@@SA_JXZ 00562ad0 f   MMTimer.obj
 0002:00087b90       ?CalcTimeDifference@CMMTimer@@SAM_J0@Z 00562b90 f   MMTimer.obj
 0002:00087c50       ?DispatchDlg@CMovieDlg@@MAEHPAUHWND__@@IIJ@Z 00562c50 f   MovieDlg.obj
 0002:00087da0       ?DoModal@CMovieDlg@@UAEHPAUHWND__@@@Z 00562da0 f   MovieDlg.obj
 0002:00087e20       ?OnInitDialog@CMovieDlg@@IAEHPAUHWND__@@IJAAH@Z 00562e20 f   MovieDlg.obj
 0002:000880a0       ?OnOK@CMovieDlg@@IAEXPAUHWND__@@I@Z 005630a0 f   MovieDlg.obj
 0002:00088360       ?OnCancel@CMovieDlg@@IAEXPAUHWND__@@I@Z 00563360 f   MovieDlg.obj
 0002:00088410       ?DispatchDlg@CMovieInfoDlg@@MAEHPAUHWND__@@IIJ@Z 00563410 f   MovieInfoDlg.obj
 0002:00088560       ?DoModal@CMovieInfoDlg@@UAEHPAUHWND__@@@Z 00563560 f   MovieInfoDlg.obj
 0002:000885e0       ?OnInitDialog@CMovieInfoDlg@@IAEHPAUHWND__@@IJAAH@Z 005635e0 f   MovieInfoDlg.obj
 0002:00088950       ?OnOK@CMovieInfoDlg@@IAEXPAUHWND__@@I@Z 00563950 f   MovieInfoDlg.obj
 0002:000889c0       ?OnCancel@CMovieInfoDlg@@IAEXPAUHWND__@@I@Z 005639c0 f   MovieInfoDlg.obj
 0002:00088a30       ?DispatchWnd@CNameTableView@@MAEJPAUHWND__@@IIJ@Z 00563a30 f   NameTableView.obj
 0002:00088c10       ??0CNameTableView@@QAE@XZ  00563c10 f   NameTableView.obj
 0002:00088d20       ??_ECNameTableView@@UAEPAXI@Z 00563d20 f i NameTableView.obj
 0002:00088d20       ??_GCNameTableView@@UAEPAXI@Z 00563d20 f i NameTableView.obj
 0002:00088d90       ??1CNameTableView@@UAE@XZ  00563d90 f   NameTableView.obj
 0002:00088e20       ?Create@CNameTableView@@UAEHPAUHWND__@@@Z 00563e20 f   NameTableView.obj
 0002:00088f80       ?Destroy@CNameTableView@@UAEXXZ 00563f80 f   NameTableView.obj
 0002:00089020       ?OnCreate@CNameTableView@@IAEHPAUHWND__@@IJAAJ@Z 00564020 f   NameTableView.obj
 0002:000891b0       ?OnClose@CNameTableView@@IAEHPAUHWND__@@IJAAJ@Z 005641b0 f   NameTableView.obj
 0002:00089250       ?OnDestroy@CNameTableView@@IAEHPAUHWND__@@IJAAJ@Z 00564250 f   NameTableView.obj
 0002:000892f0       ?OnTimer@CNameTableView@@IAEHPAUHWND__@@IJAAJ@Z 005642f0 f   NameTableView.obj
 0002:00089810       ??0CNetPlay@@QAE@XZ        00564810 f   NetPlay.obj
 0002:000898f0       ??1CNetPlay@@QAE@XZ        005648f0 f   NetPlay.obj
 0002:00089940       ?Initialize@CNetPlay@@QAEHPAUHWND__@@@Z 00564940 f   NetPlay.obj
 0002:000899f0       ?Release@CNetPlay@@QAEXXZ  005649f0 f   NetPlay.obj
 0002:00089a60       ?ASyncHostCheck@CNetPlay@@QAEHPAUHWND__@@PBD@Z 00564a60 f   NetPlay.obj
 0002:00089b50       ?ASyncWndProc@CNetPlay@@QAEJPAUHWND__@@IJ@Z 00564b50 f   NetPlay.obj
 0002:00089c50       ?Connect@CNetPlay@@QAEHHPBDG@Z 00564c50 f   NetPlay.obj
 0002:0008a4e0       ?Disconnect@CNetPlay@@QAEXXZ 005654e0 f   NetPlay.obj
 0002:0008a690       ?Send@CNetPlay@@QAEHE@Z    00565690 f   NetPlay.obj
 0002:0008a7a0       ?Recv@CNetPlay@@QAEHAAE@Z  005657a0 f   NetPlay.obj
 0002:0008a900       ?RecvTime@CNetPlay@@QAEHAAEK@Z 00565900 f   NetPlay.obj
 0002:0008a9f0       ?RecvBuffer@CNetPlay@@QAEHXZ 005659f0 f   NetPlay.obj
 0002:0008abd0       ?GetRecvBufferSize@CNetPlay@@QAEHXZ 00565bd0 f   NetPlay.obj
 0002:0008ac40       ?BufferCheck@CNetPlay@@QAEHXZ 00565c40 f   NetPlay.obj
 0002:0008ad10       ?Sync@CNetPlay@@QAEHXZ     00565d10 f   NetPlay.obj
 0002:0008b040       ?ModifyPlayer@CNetPlay@@QAEHPAE0@Z 00566040 f   NetPlay.obj
 0002:0008b3b0       ?ChatSend@CNetPlay@@QAEXPBD@Z 005663b0 f   NetPlay.obj
 0002:0008b550       ?WndProc@CNetPlay@@QAEJPAUHWND__@@IJ@Z 00566550 f   NetPlay.obj
 0002:0008c420       ?DispatchDlg@CNetPlayDlg@@MAEHPAUHWND__@@IIJ@Z 00567420 f   NetPlayDlg.obj
 0002:0008c770       ?DoModal@CNetPlayDlg@@UAEHPAUHWND__@@@Z 00567770 f   NetPlayDlg.obj
 0002:0008c800       ?SetStatusMessage@CNetPlayDlg@@IAEXI@Z 00567800 f   NetPlayDlg.obj
 0002:0008c8e0       ?SetControlEnable@CNetPlayDlg@@IAEXH@Z 005678e0 f   NetPlayDlg.obj
 0002:0008cc80       ?AddRecentPort@CNetPlayDlg@@IAEXPBD@Z 00567c80 f   NetPlayDlg.obj
 0002:0008ce00       ?AddRecentHost@CNetPlayDlg@@IAEXPBD@Z 00567e00 f   NetPlayDlg.obj
 0002:0008cf80       ?OnInitDialog@CNetPlayDlg@@IAEHPAUHWND__@@IJAAH@Z 00567f80 f   NetPlayDlg.obj
 0002:0008d380       ?OnNetwordHostByName@CNetPlayDlg@@IAEHPAUHWND__@@IJAAH@Z 00568380 f   NetPlayDlg.obj
 0002:0008d5f0       ?OnNetworkAccept@CNetPlayDlg@@IAEHPAUHWND__@@IJAAH@Z 005685f0 f   NetPlayDlg.obj
 0002:0008dc30       ?SetLatency@CNetPlay@@QAEXH@Z 00568c30 f i NetPlayDlg.obj
 0002:0008dc80       ?OnNetworkConnect@CNetPlayDlg@@IAEHPAUHWND__@@IJAAH@Z 00568c80 f   NetPlayDlg.obj
 0002:0008e2a0       ?OnNetworkClose@CNetPlayDlg@@IAEHPAUHWND__@@IJAAH@Z 005692a0 f   NetPlayDlg.obj
 0002:0008e350       ?OnNetworkError@CNetPlayDlg@@IAEHPAUHWND__@@IJAAH@Z 00569350 f   NetPlayDlg.obj
 0002:0008e400       ?OnServer@CNetPlayDlg@@IAEXPAUHWND__@@I@Z 00569400 f   NetPlayDlg.obj
 0002:0008e470       ?OnClient@CNetPlayDlg@@IAEXPAUHWND__@@I@Z 00569470 f   NetPlayDlg.obj
 0002:0008e4e0       ?OnConnect@CNetPlayDlg@@IAEXPAUHWND__@@I@Z 005694e0 f   NetPlayDlg.obj
 0002:0008ec60       ?OnCancel@CNetPlayDlg@@IAEXPAUHWND__@@I@Z 00569c60 f   NetPlayDlg.obj
 0002:0008ecf0       ?DispatchDlg@CPaletteEdit@@MAEHPAUHWND__@@IIJ@Z 00569cf0 f   PaletteEdit.obj
 0002:0008f340       ??0CPaletteEdit@@QAE@XZ    0056a340 f   PaletteEdit.obj
 0002:0008f3a0       ??_ECPaletteEdit@@UAEPAXI@Z 0056a3a0 f i PaletteEdit.obj
 0002:0008f3a0       ??_GCPaletteEdit@@UAEPAXI@Z 0056a3a0 f i PaletteEdit.obj
 0002:0008f410       ??1CPaletteEdit@@UAE@XZ    0056a410 f   PaletteEdit.obj
 0002:0008f470       ?Create@CPaletteEdit@@UAEHPAUHWND__@@@Z 0056a470 f   PaletteEdit.obj
 0002:0008f560       ?Destroy@CPaletteEdit@@UAEXXZ 0056a560 f   PaletteEdit.obj
 0002:0008f630       ?OnInitDialog@CPaletteEdit@@IAEHPAUHWND__@@IJAAH@Z 0056a630 f   PaletteEdit.obj
 0002:0008f990       ?OnDestroy@CPaletteEdit@@IAEHPAUHWND__@@IJAAH@Z 0056a990 f   PaletteEdit.obj
 0002:0008fa30       ?OnActivate@CPaletteEdit@@IAEHPAUHWND__@@IJAAH@Z 0056aa30 f   PaletteEdit.obj
 0002:0008fae0       ?OnLButtonDown@CPaletteEdit@@IAEHPAUHWND__@@IJAAH@Z 0056aae0 f   PaletteEdit.obj
 0002:0008fd60       ?OnRButtonDown@CPaletteEdit@@IAEHPAUHWND__@@IJAAH@Z 0056ad60 f   PaletteEdit.obj
 0002:000900e0       ?OnHScroll@CPaletteEdit@@IAEHPAUHWND__@@IJAAH@Z 0056b0e0 f   PaletteEdit.obj
 0002:000902b0       ?OnPaint@CPaletteEdit@@IAEHPAUHWND__@@IJAAH@Z 0056b2b0 f   PaletteEdit.obj
 0002:00090820       ?OnTimer@CPaletteEdit@@IAEHPAUHWND__@@IJAAH@Z 0056b820 f   PaletteEdit.obj
 0002:00090970       ?OnOK@CPaletteEdit@@IAEXPAUHWND__@@I@Z 0056b970 f   PaletteEdit.obj
 0002:000909e0       ?OnCancel@CPaletteEdit@@IAEXPAUHWND__@@I@Z 0056b9e0 f   PaletteEdit.obj
 0002:00090a50       ?OnDefault@CPaletteEdit@@IAEXPAUHWND__@@I@Z 0056ba50 f   PaletteEdit.obj
 0002:00090af0       ?OnRGBChange@CPaletteEdit@@IAEXPAUHWND__@@I@Z 0056baf0 f   PaletteEdit.obj
 0002:00090d70       ?OnUndo@CPaletteEdit@@IAEXPAUHWND__@@I@Z 0056bd70 f   PaletteEdit.obj
 0002:00090df0       ?OnLoad@CPaletteEdit@@IAEXPAUHWND__@@I@Z 0056bdf0 f   PaletteEdit.obj
 0002:00090ff0       ?OnSave@CPaletteEdit@@IAEXPAUHWND__@@I@Z 0056bff0 f   PaletteEdit.obj
 0002:000912b0       ?OnChaneSelect@CPaletteEdit@@IAEXXZ 0056c2b0 f   PaletteEdit.obj
 0002:000914d0       ?OnUpdateColor@CPaletteEdit@@IAEXXZ 0056c4d0 f   PaletteEdit.obj
 0002:000915a0       ?DispatchWnd@CPaletteView@@MAEJPAUHWND__@@IIJ@Z 0056c5a0 f   PaletteView.obj
 0002:00091780       ??0CPaletteView@@QAE@XZ    0056c780 f   PaletteView.obj
 0002:00091890       ??_GCPaletteView@@UAEPAXI@Z 0056c890 f i PaletteView.obj
 0002:00091890       ??_ECPaletteView@@UAEPAXI@Z 0056c890 f i PaletteView.obj
 0002:00091900       ??1CPaletteView@@UAE@XZ    0056c900 f   PaletteView.obj
 0002:00091990       ?Create@CPaletteView@@UAEHPAUHWND__@@@Z 0056c990 f   PaletteView.obj
 0002:00091b70       ?Destroy@CPaletteView@@UAEXXZ 0056cb70 f   PaletteView.obj
 0002:00091c10       ?OnCreate@CPaletteView@@IAEHPAUHWND__@@IJAAJ@Z 0056cc10 f   PaletteView.obj
 0002:00091da0       ?OnClose@CPaletteView@@IAEHPAUHWND__@@IJAAJ@Z 0056cda0 f   PaletteView.obj
 0002:00091e40       ?OnDestroy@CPaletteView@@IAEHPAUHWND__@@IJAAJ@Z 0056ce40 f   PaletteView.obj
 0002:00091ee0       ?OnTimer@CPaletteView@@IAEHPAUHWND__@@IJAAJ@Z 0056cee0 f   PaletteView.obj
 0002:000920a0       ?SplitPath@CPathlib@@SA?AV?$basic_string@DU?$char_traits@D@std@@V?$allocator@D@2@@std@@PBD@Z 0056d0a0 f   Pathlib.obj
 0002:00092260       ?SplitFname@CPathlib@@SA?AV?$basic_string@DU?$char_traits@D@std@@V?$allocator@D@2@@std@@PBD@Z 0056d260 f   Pathlib.obj
 0002:000923d0       ?SplitFnameExt@CPathlib@@SA?AV?$basic_string@DU?$char_traits@D@std@@V?$allocator@D@2@@std@@PBD@Z 0056d3d0 f   Pathlib.obj
 0002:000925a0       ?SplitExt@CPathlib@@SA?AV?$basic_string@DU?$char_traits@D@std@@V?$allocator@D@2@@std@@PBD@Z 0056d5a0 f   Pathlib.obj
 0002:00092710       ?MakePath@CPathlib@@SA?AV?$basic_string@DU?$char_traits@D@std@@V?$allocator@D@2@@std@@PBD0@Z 0056d710 f   Pathlib.obj
 0002:000928d0       ?MakePathExt@CPathlib@@SA?AV?$basic_string@DU?$char_traits@D@std@@V?$allocator@D@2@@std@@PBD00@Z 0056d8d0 f   Pathlib.obj
 0002:00092aa0       ?CreatePath@CPathlib@@SA?AV?$basic_string@DU?$char_traits@D@std@@V?$allocator@D@2@@std@@PBD0@Z 0056daa0 f   Pathlib.obj
 0002:00092ca0       ?BffCallback@CPathlib@@KGHPAUHWND__@@IJI@Z 0056dca0 f   Pathlib.obj
 0002:00092d20       ?SelectFolder@CPathlib@@SAHPAUHWND__@@PBDPAD@Z 0056dd20 f   Pathlib.obj
 0002:00092ff0       ?resize@?$basic_string@DU?$char_traits@D@std@@V?$allocator@D@2@@std@@QAEXI@Z 0056dff0 f i Pathlib.obj
 0002:00093050       ?resize@?$basic_string@DU?$char_traits@D@std@@V?$allocator@D@2@@std@@QAEXID@Z 0056e050 f i Pathlib.obj
 0002:000930e0       ?DispatchWnd@CPatternView@@MAEJPAUHWND__@@IIJ@Z 0056e0e0 f   PatternView.obj
 0002:00093300       ??0CPatternView@@QAE@XZ    0056e300 f   PatternView.obj
 0002:00093440       ??_GCPatternView@@UAEPAXI@Z 0056e440 f i PatternView.obj
 0002:00093440       ??_ECPatternView@@UAEPAXI@Z 0056e440 f i PatternView.obj
 0002:000934b0       ??1CPatternView@@UAE@XZ    0056e4b0 f   PatternView.obj
 0002:00093540       ?Create@CPatternView@@UAEHPAUHWND__@@@Z 0056e540 f   PatternView.obj
 0002:000936f0       ?Destroy@CPatternView@@UAEXXZ 0056e6f0 f   PatternView.obj
 0002:00093790       ?OnCreate@CPatternView@@IAEHPAUHWND__@@IJAAJ@Z 0056e790 f   PatternView.obj
 0002:00093920       ?OnClose@CPatternView@@IAEHPAUHWND__@@IJAAJ@Z 0056e920 f   PatternView.obj
 0002:000939c0       ?OnDestroy@CPatternView@@IAEHPAUHWND__@@IJAAJ@Z 0056e9c0 f   PatternView.obj
 0002:00093a60       ?OnLButtonDown@CPatternView@@IAEHPAUHWND__@@IJAAJ@Z 0056ea60 f   PatternView.obj
 0002:00093bd0       ?OnTimer@CPatternView@@IAEHPAUHWND__@@IJAAJ@Z 0056ebd0 f   PatternView.obj
 0002:00094040       ?LoadPlugin@CPlugin@@SAPAUHINSTANCE__@@XZ 0056f040 f   Plugin.obj
 0002:00094090       ?LoadPluginID@CPlugin@@SAPAUHINSTANCE__@@H@Z 0056f090 f   Plugin.obj
 0002:00094100       ?FindPlugin@CPlugin@@SAHPBD@Z 0056f100 f   Plugin.obj
 0002:00094630       ?GetName@CRecent@@SAPBDH@Z 0056f630 f   Recent.obj
 0002:000946a0       ?GetPath@CRecent@@SAPBDH@Z 0056f6a0 f   Recent.obj
 0002:000946e0       ?MakeManuPath@CRecent@@KAXPAD@Z 0056f6e0 f   Recent.obj
 0002:00094a40       __tcsinc                   0056fa40 f i Recent.obj
 0002:00094a90       ?UpdateMenu@CRecent@@SAXPAUHMENU__@@@Z 0056fa90 f   Recent.obj
 0002:00095140       ?Add@CRecent@@SAXPBD@Z     00570140 f   Recent.obj
 0002:00095480       ?Load@CRecent@@SAXXZ       00570480 f   Recent.obj
 0002:00095670       ?Save@CRecent@@SAXXZ       00570670 f   Recent.obj
 0002:00095830       ?SetRegistryKey@CRegistry@@SAXPBD@Z 00570830 f   Registry.obj
 0002:00095950       ?GetRegistryKey@CRegistry@@KAPAUHKEY__@@XZ 00570950 f   Registry.obj
 0002:00095aa0       ?GetSectionKey@CRegistry@@KAPAUHKEY__@@PBD@Z 00570aa0 f   Registry.obj
 0002:00095bb0       ?GetProfileIntA@CRegistry@@SAIPBD0H@Z 00570bb0 f   Registry.obj
 0002:00095c20       ?GetProfileStringA@CRegistry@@SAHPBD0PAXI@Z 00570c20 f   Registry.obj
 0002:00095cd0       ?GetProfileBinary@CRegistry@@SAHPBD0PAXI@Z 00570cd0 f   Registry.obj
 0002:00095d40       ?WriteProfileInt@CRegistry@@SAHPBD0H@Z 00570d40 f   Registry.obj
 0002:00095e20       ?WriteProfileStringA@CRegistry@@SAHPBD00@Z 00570e20 f   Registry.obj
 0002:00095e90       ?WriteProfileBinary@CRegistry@@SAHPBD0PAXI@Z 00570e90 f   Registry.obj
 0002:00095f00       ?DispatchDlg@CRomInfoDlg@@MAEHPAUHWND__@@IIJ@Z 00570f00 f   RomInfoDlg.obj
 0002:00096050       ?DoModal@CRomInfoDlg@@UAEHPAUHWND__@@@Z 00571050 f   RomInfoDlg.obj
 0002:000960d0       ?OnInitDialog@CRomInfoDlg@@IAEHPAUHWND__@@IJAAH@Z 005710d0 f   RomInfoDlg.obj
 0002:00096580       ?OnOK@CRomInfoDlg@@IAEXPAUHWND__@@I@Z 00571580 f   RomInfoDlg.obj
 0002:000965f0       ?OnCancel@CRomInfoDlg@@IAEXPAUHWND__@@I@Z 005715f0 f   RomInfoDlg.obj
 0002:00096660       ?DispatchDlg@CShortcutDlg@@MAEHPAUHWND__@@IIJ@Z 00571660 f   ShortcutDlg.obj
 0002:00096a00       ?DoModal@CShortcutDlg@@UAEHPAUHWND__@@@Z 00571a00 f   ShortcutDlg.obj
 0002:00096a90       ?PreTranslateMessage@CShortcutDlg@@UAEHPAUtagMSG@@@Z 00571a90 f   ShortcutDlg.obj
 0002:00096b00       ?OnInitialMember@CShortcutDlg@@IAEXXZ 00571b00 f   ShortcutDlg.obj
 0002:00097300       ?OnInitDialog@CShortcutDlg@@IAEHPAUHWND__@@IJAAH@Z 00572300 f   ShortcutDlg.obj
 0002:00097490       ?OnTimer@CShortcutDlg@@IAEHPAUHWND__@@IJAAH@Z 00572490 f   ShortcutDlg.obj
 0002:00097ea0       ?OnListItemChanged@CShortcutDlg@@IAEXPAUHWND__@@IPAUtagNMHDR@@AAJ@Z 00572ea0 f   ShortcutDlg.obj
 0002:00097f10       ?OnListDblClick@CShortcutDlg@@IAEXPAUHWND__@@IPAUtagNMHDR@@AAJ@Z 00572f10 f   ShortcutDlg.obj
 0002:000980f0       ?OnOK@CShortcutDlg@@IAEXPAUHWND__@@I@Z 005730f0 f   ShortcutDlg.obj
 0002:00098250       ?OnCancel@CShortcutDlg@@IAEXPAUHWND__@@I@Z 00573250 f   ShortcutDlg.obj
 0002:00098340       ?OnDefault@CShortcutDlg@@IAEXPAUHWND__@@I@Z 00573340 f   ShortcutDlg.obj
 0002:00098490       _SimpleVirusChecker        00573490 f   SimpleVirusChecker.obj
 0002:00098da0       ?DispatchDlg@CSoundDlg@@MAEHPAUHWND__@@IIJ@Z 00573da0 f   SoundDlg.obj
 0002:00098f30       ?DoModal@CSoundDlg@@UAEHPAUHWND__@@@Z 00573f30 f   SoundDlg.obj
 0002:00098fb0       ?OnInitialMember@CSoundDlg@@IAEXXZ 00573fb0 f   SoundDlg.obj
 0002:000995b0       ?OnInitDialog@CSoundDlg@@IAEHPAUHWND__@@IJAAH@Z 005745b0 f   SoundDlg.obj
 0002:00099620       ?OnOK@CSoundDlg@@IAEXPAUHWND__@@I@Z 00574620 f   SoundDlg.obj
 0002:00099880       ?OnCancel@CSoundDlg@@IAEXPAUHWND__@@I@Z 00574880 f   SoundDlg.obj
 0002:00099900       ?OnDefault@CSoundDlg@@IAEXPAUHWND__@@I@Z 00574900 f   SoundDlg.obj
 0002:00099960       ??0CWaveRec@@QAE@XZ        00574960 f   WaveRec.obj
 0002:00099a40       ??1CWaveRec@@QAE@XZ        00574a40 f   WaveRec.obj
 0002:00099aa0       ?Start@CWaveRec@@QAEXPADHHH@Z 00574aa0 f   WaveRec.obj
 0002:00099b90       ?Stop@CWaveRec@@QAEXXZ     00574b90 f   WaveRec.obj
 0002:00099c70       ?Out@CWaveRec@@QAEXPAXK@Z  00574c70 f   WaveRec.obj
 0002:00099cf0       _WinMain@16                00574cf0 f   WinMain.obj
 0002:0009a6b0       ?SetInstance@CApp@@SAXPAUHINSTANCE__@@@Z 005756b0 f i WinMain.obj
 0002:0009a6f0       ?SetPrevInstance@CApp@@SAXPAUHINSTANCE__@@@Z 005756f0 f i WinMain.obj
 0002:0009a730       ?SetCmdLine@CApp@@SAXPAD@Z 00575730 f i WinMain.obj
 0002:0009a770       ?SetModulePath@CApp@@SAXPBD@Z 00575770 f i WinMain.obj
 0002:0009a7d0       ?GetCmdShow@CApp@@SAHXZ    005757d0 f i WinMain.obj
 0002:0009a810       ?GetPluginLanguage@CPlugin@@SAPBDXZ 00575810 f i WinMain.obj
 0002:0009a860       ?GetPluginLocaleID@CPlugin@@SAKXZ 00575860 f i WinMain.obj
 0002:0009a8b0       ??0CMainFrame@@QAE@XZ      005758b0 f i WinMain.obj
 0002:0009aa20       ??1CMainFrame@@UAE@XZ      00575a20 f i WinMain.obj
 0002:0009ab80       ??_GCMainFrame@@UAEPAXI@Z  00575b80 f i WinMain.obj
 0002:0009ab80       ??_ECMainFrame@@UAEPAXI@Z  00575b80 f i WinMain.obj
 0002:0009abf0       ??0CLauncherDlg@@QAE@XZ    00575bf0 f i WinMain.obj
 0002:0009ac50       ??1CLauncherDlg@@UAE@XZ    00575c50 f i WinMain.obj
 0002:0009aca0       ??0CSearchDlg@@QAE@XZ      00575ca0 f i WinMain.obj
 0002:0009ad00       ??1CSearchDlg@@UAE@XZ      00575d00 f i WinMain.obj
 0002:0009ad50       ??0CDatachBarcodeDlg@@QAE@XZ 00575d50 f i WinMain.obj
 0002:0009adb0       ??1CDatachBarcodeDlg@@UAE@XZ 00575db0 f i WinMain.obj
 0002:0009ae00       ??0CChatDlg@@QAE@XZ        00575e00 f i WinMain.obj
 0002:0009ae60       ??1CChatDlg@@UAE@XZ        00575e60 f i WinMain.obj
 0002:0009aeb0       ??_GCLauncherDlg@@UAEPAXI@Z 00575eb0 f i WinMain.obj
 0002:0009aeb0       ??_ECLauncherDlg@@UAEPAXI@Z 00575eb0 f i WinMain.obj
 0002:0009af20       ??_GCSearchDlg@@UAEPAXI@Z  00575f20 f i WinMain.obj
 0002:0009af20       ??_ECSearchDlg@@UAEPAXI@Z  00575f20 f i WinMain.obj
 0002:0009af90       ??_ECDatachBarcodeDlg@@UAEPAXI@Z 00575f90 f i WinMain.obj
 0002:0009af90       ??_GCDatachBarcodeDlg@@UAEPAXI@Z 00575f90 f i WinMain.obj
 0002:0009b000       ??_ECChatDlg@@UAEPAXI@Z    00576000 f i WinMain.obj
 0002:0009b000       ??_GCChatDlg@@UAEPAXI@Z    00576000 f i WinMain.obj
 0002:0009b070       ??0CWndList@@QAE@XZ        00576070 f   Wnd.obj
 0002:0009b0b0       ??1CWndList@@QAE@XZ        005760b0 f   Wnd.obj
 0002:0009b0f0       ?Add@CWndList@@SAXPAVCWnd@@@Z 005760f0 f   Wnd.obj
 0002:0009b140       ?Del@CWndList@@SAXPAVCWnd@@@Z 00576140 f   Wnd.obj
 0002:0009b300       ??1?$_Iterator@$00@?$list@PAVCWnd@@V?$allocator@PAVCWnd@@@std@@@std@@QAE@XZ 00576300 f i Wnd.obj
 0002:0009b350       ??0?$_Const_iterator@$00@?$list@PAVCWnd@@V?$allocator@PAVCWnd@@@std@@@std@@QAE@ABV012@@Z 00576350 f i Wnd.obj
 0002:0009b3c0       ??1?$_Const_iterator@$00@?$list@PAVCWnd@@V?$allocator@PAVCWnd@@@std@@@std@@QAE@XZ 005763c0 f i Wnd.obj
 0002:0009b410       ??0?$_Bidit@PAVCWnd@@HPBQAV1@ABQAV1@@std@@QAE@ABU01@@Z 00576410 f i Wnd.obj
 0002:0009b470       ??1?$_Bidit@PAVCWnd@@HPBQAV1@ABQAV1@@std@@QAE@XZ 00576470 f i Wnd.obj
 0002:0009b4c0       ??0?$_Iterator_with_base@Ubidirectional_iterator_tag@std@@PAVCWnd@@HPBQAV3@ABQAV3@V_Iterator_base@2@@std@@QAE@ABU01@@Z 005764c0 f i Wnd.obj
 0002:0009b520       ??1?$_Iterator_with_base@Ubidirectional_iterator_tag@std@@PAVCWnd@@HPBQAV3@ABQAV3@V_Iterator_base@2@@std@@QAE@XZ 00576520 f i Wnd.obj
 0002:0009b570       ?IsDialogMessageA@CWndList@@SAHPAUtagMSG@@@Z 00576570 f   Wnd.obj
 0002:0009b750       ??0CWnd@@QAE@XZ            00576750 f   Wnd.obj
 0002:0009b7b0       ??_ECWnd@@UAEPAXI@Z        005767b0 f i Wnd.obj
 0002:0009b7b0       ??_GCWnd@@UAEPAXI@Z        005767b0 f i Wnd.obj
 0002:0009b820       ??1CWnd@@UAE@XZ            00576820 f   Wnd.obj
 0002:0009b860       ?SetThis@CWnd@@IAEXXZ      00576860 f   Wnd.obj
 0002:0009b8e0       ?g_WndProc@CWnd@@KGJPAUHWND__@@IIJ@Z 005768e0 f   Wnd.obj
 0002:0009ba10       ?g_DlgProc@CWnd@@KGHPAUHWND__@@IIJ@Z 00576a10 f   Wnd.obj
 0002:0009bc40       ?begin@?$list@PAVCWnd@@V?$allocator@PAVCWnd@@@std@@@std@@QAE?AV?$_Iterator@$00@12@XZ 00576c40 f i Wnd.obj
 0002:0009bcd0       ?end@?$list@PAVCWnd@@V?$allocator@PAVCWnd@@@std@@@std@@QAE?AV?$_Iterator@$00@12@XZ 00576cd0 f i Wnd.obj
 0002:0009bd60       ?empty@?$list@PAVCWnd@@V?$allocator@PAVCWnd@@@std@@@std@@QBE_NXZ 00576d60 f i Wnd.obj
 0002:0009bdb0       ?push_back@?$list@PAVCWnd@@V?$allocator@PAVCWnd@@@std@@@std@@QAEXABQAVCWnd@@@Z 00576db0 f i Wnd.obj
 0002:0009beb0       ?erase@?$list@PAVCWnd@@V?$allocator@PAVCWnd@@@std@@@std@@QAE?AV?$_Iterator@$00@12@V?$_Const_iterator@$00@12@@Z 00576eb0 f i Wnd.obj
 0002:0009c0f0       ??D?$_Iterator@$00@?$list@PAVCWnd@@V?$allocator@PAVCWnd@@@std@@@std@@QBEAAPAVCWnd@@XZ 005770f0 f i Wnd.obj
 0002:0009c140       ??E?$_Iterator@$00@?$list@PAVCWnd@@V?$allocator@PAVCWnd@@@std@@@std@@QAEAAV012@XZ 00577140 f i Wnd.obj
 0002:0009c1a0       ??9?$_Const_iterator@$00@?$list@PAVCWnd@@V?$allocator@PAVCWnd@@@std@@@std@@QBE_NABV012@@Z 005771a0 f i Wnd.obj
 0002:0009c210       ?_Nextnode@?$list@PAVCWnd@@V?$allocator@PAVCWnd@@@std@@@std@@KAAAPAU_Node@?$_List_nod@PAVCWnd@@V?$allocator@PAVCWnd@@@std@@@2@PAU342@@Z 00577210 f i Wnd.obj
 0002:0009c250       ?_Prevnode@?$list@PAVCWnd@@V?$allocator@PAVCWnd@@@std@@@std@@KAAAPAU_Node@?$_List_nod@PAVCWnd@@V?$allocator@PAVCWnd@@@std@@@2@PAU342@@Z 00577250 f i Wnd.obj
 0002:0009c290       ?_Make_iter@?$list@PAVCWnd@@V?$allocator@PAVCWnd@@@std@@@std@@QBE?AV?$_Iterator@$00@12@V?$_Const_iterator@$00@12@@Z 00577290 f i Wnd.obj
 0002:0009c360       ?_Insert@?$list@PAVCWnd@@V?$allocator@PAVCWnd@@@std@@@std@@QAEXV?$_Const_iterator@$00@12@ABQAVCWnd@@@Z 00577360 f i Wnd.obj
 0002:0009c4a0       ?_Orphan_ptr@?$list@PAVCWnd@@V?$allocator@PAVCWnd@@@std@@@std@@IBEXAAV12@PAU_Node@?$_List_nod@PAVCWnd@@V?$allocator@PAVCWnd@@@std@@@2@@Z 005774a0 f i Wnd.obj
 0002:0009c5b0       ?deallocate@?$allocator@U_Node@?$_List_nod@PAVCWnd@@V?$allocator@PAVCWnd@@@std@@@std@@@std@@QAEXPAU_Node@?$_List_nod@PAVCWnd@@V?$allocator@PAVCWnd@@@std@@@2@I@Z 005775b0 f i Wnd.obj
 0002:0009c610       ?destroy@?$allocator@U_Node@?$_List_nod@PAVCWnd@@V?$allocator@PAVCWnd@@@std@@@std@@@std@@QAEXPAU_Node@?$_List_nod@PAVCWnd@@V?$allocator@PAVCWnd@@@std@@@2@@Z 00577610 f i Wnd.obj
 0002:0009c670       ??0?$_Iterator@$00@?$list@PAVCWnd@@V?$allocator@PAVCWnd@@@std@@@std@@QAE@PAU_Node@?$_List_nod@PAVCWnd@@V?$allocator@PAVCWnd@@@std@@@2@PBV12@@Z 00577670 f i Wnd.obj
 0002:0009c6d0       ??D?$_Const_iterator@$00@?$list@PAVCWnd@@V?$allocator@PAVCWnd@@@std@@@std@@QBEABQAVCWnd@@XZ 005776d0 f i Wnd.obj
 0002:0009c7d0       ??E?$_Const_iterator@$00@?$list@PAVCWnd@@V?$allocator@PAVCWnd@@@std@@@std@@QAEAAV012@XZ 005777d0 f i Wnd.obj
 0002:0009c8e0       ??E?$_Const_iterator@$00@?$list@PAVCWnd@@V?$allocator@PAVCWnd@@@std@@@std@@QAE?AV012@H@Z 005778e0 f i Wnd.obj
 0002:0009ca00       ??8?$_Const_iterator@$00@?$list@PAVCWnd@@V?$allocator@PAVCWnd@@@std@@@std@@QBE_NABV012@@Z 00577a00 f i Wnd.obj
 0002:0009ca70       ?_Mynode@?$_Const_iterator@$00@?$list@PAVCWnd@@V?$allocator@PAVCWnd@@@std@@@std@@QBEPAU_Node@?$_List_nod@PAVCWnd@@V?$allocator@PAVCWnd@@@std@@@3@XZ 00577a70 f i Wnd.obj
 0002:0009cab0       ?_Myval@?$list@PAVCWnd@@V?$allocator@PAVCWnd@@@std@@@std@@KAAAPAVCWnd@@PAU_Node@?$_List_nod@PAVCWnd@@V?$allocator@PAVCWnd@@@std@@@2@@Z 00577ab0 f i Wnd.obj
 0002:0009caf0       ?_Buynode@?$list@PAVCWnd@@V?$allocator@PAVCWnd@@@std@@@std@@IAEPAU_Node@?$_List_nod@PAVCWnd@@V?$allocator@PAVCWnd@@@std@@@2@PAU342@0ABQAVCWnd@@@Z 00577af0 f i Wnd.obj
 0002:0009ccd0       ?_Incsize@?$list@PAVCWnd@@V?$allocator@PAVCWnd@@@std@@@std@@IAEXI@Z 00577cd0 f i Wnd.obj
 0002:0009cde0       ?allocate@?$allocator@U_Node@?$_List_nod@PAVCWnd@@V?$allocator@PAVCWnd@@@std@@@std@@@std@@QAEPAU_Node@?$_List_nod@PAVCWnd@@V?$allocator@PAVCWnd@@@std@@@2@I@Z 00577de0 f i Wnd.obj
 0002:0009ce40       ?construct@?$allocator@PAU_Node@?$_List_nod@PAVCWnd@@V?$allocator@PAVCWnd@@@std@@@std@@@std@@QAEXPAPAU_Node@?$_List_nod@PAVCWnd@@V?$allocator@PAVCWnd@@@std@@@2@ABQAU342@@Z 00577e40 f i Wnd.obj
 0002:0009cea0       ?destroy@?$allocator@PAU_Node@?$_List_nod@PAVCWnd@@V?$allocator@PAVCWnd@@@std@@@std@@@std@@QAEXPAPAU_Node@?$_List_nod@PAVCWnd@@V?$allocator@PAVCWnd@@@std@@@2@@Z 00577ea0 f i Wnd.obj
 0002:0009cf00       ??0?$_Const_iterator@$00@?$list@PAVCWnd@@V?$allocator@PAVCWnd@@@std@@@std@@QAE@PAU_Node@?$_List_nod@PAVCWnd@@V?$allocator@PAVCWnd@@@std@@@2@PBV12@@Z 00577f00 f i Wnd.obj
 0002:0009cfc0       ?_Compat@?$_Const_iterator@$00@?$list@PAVCWnd@@V?$allocator@PAVCWnd@@@std@@@std@@QBEXABV123@@Z 00577fc0 f i Wnd.obj
 0002:0009d0a0       ??0?$_Bidit@PAVCWnd@@HPBQAV1@ABQAV1@@std@@QAE@XZ 005780a0 f i Wnd.obj
 0002:0009d100       ??0?$_Iterator_with_base@Ubidirectional_iterator_tag@std@@PAVCWnd@@HPBQAV3@ABQAV3@V_Iterator_base@2@@std@@QAE@XZ 00578100 f i Wnd.obj
 0002:0009d160       ?max_size@?$list@PAVCWnd@@V?$allocator@PAVCWnd@@@std@@@std@@QBEIXZ 00578160 f i Wnd.obj
 0002:0009d1c0       ?construct@?$allocator@PAVCWnd@@@std@@QAEXPAPAVCWnd@@ABQAV3@@Z 005781c0 f i Wnd.obj
 0002:0009d220       ?max_size@?$allocator@PAVCWnd@@@std@@QBEIXZ 00578220 f i Wnd.obj
 0002:0009d290       ??$_Destroy@U_Node@?$_List_nod@PAVCWnd@@V?$allocator@PAVCWnd@@@std@@@std@@@std@@YAXPAU_Node@?$_List_nod@PAVCWnd@@V?$allocator@PAVCWnd@@@std@@@0@@Z 00578290 f i Wnd.obj
 0002:0009d2c0       ??$_Allocate@U_Node@?$_List_nod@PAVCWnd@@V?$allocator@PAVCWnd@@@std@@@std@@@std@@YAPAU_Node@?$_List_nod@PAVCWnd@@V?$allocator@PAVCWnd@@@std@@@0@IPAU120@@Z 005782c0 f i Wnd.obj
 0002:0009d360       ??$_Construct@PAU_Node@?$_List_nod@PAVCWnd@@V?$allocator@PAVCWnd@@@std@@@std@@PAU123@@std@@YAXPAPAU_Node@?$_List_nod@PAVCWnd@@V?$allocator@PAVCWnd@@@std@@@0@ABQAU120@@Z 00578360 f i Wnd.obj
 0002:0009d400       ??$_Destroy@PAU_Node@?$_List_nod@PAVCWnd@@V?$allocator@PAVCWnd@@@std@@@std@@@std@@YAXPAPAU_Node@?$_List_nod@PAVCWnd@@V?$allocator@PAVCWnd@@@std@@@0@@Z 00578400 f i Wnd.obj
 0002:0009d430       ??$_Construct@PAVCWnd@@PAV1@@std@@YAXPAPAVCWnd@@ABQAV1@@Z 00578430 f i Wnd.obj
 0002:0009d4d0       ??0?$list@PAVCWnd@@V?$allocator@PAVCWnd@@@std@@@std@@QAE@XZ 005784d0 f i Wnd.obj
 0002:0009d5a0       ??1?$_List_val@PAVCWnd@@V?$allocator@PAVCWnd@@@std@@@std@@QAE@XZ 005785a0 f i Wnd.obj
 0002:0009d5f0       ??1?$_List_ptr@PAVCWnd@@V?$allocator@PAVCWnd@@@std@@@std@@QAE@XZ 005785f0 f i Wnd.obj
 0002:0009d640       ??1?$_List_nod@PAVCWnd@@V?$allocator@PAVCWnd@@@std@@@std@@QAE@XZ 00578640 f i Wnd.obj
 0002:0009d690       ?_Buynode@?$list@PAVCWnd@@V?$allocator@PAVCWnd@@@std@@@std@@IAEPAU_Node@?$_List_nod@PAVCWnd@@V?$allocator@PAVCWnd@@@std@@@2@XZ 00578690 f i Wnd.obj
 0002:0009d850       ??0?$_List_val@PAVCWnd@@V?$allocator@PAVCWnd@@@std@@@std@@QAE@V?$allocator@PAVCWnd@@@1@@Z 00578850 f i Wnd.obj
 0002:0009d8d0       ??1?$_Container_base_aux_alloc_empty@V?$allocator@PAVCWnd@@@std@@@std@@IAE@XZ 005788d0 f i Wnd.obj
 0002:0009d920       ??0?$allocator@PAVCWnd@@@std@@QAE@XZ 00578920 f i Wnd.obj
 0002:0009d960       ??0?$_List_ptr@PAVCWnd@@V?$allocator@PAVCWnd@@@std@@@std@@IAE@V?$allocator@PAVCWnd@@@1@@Z 00578960 f i Wnd.obj
 0002:0009d9e0       ??0?$allocator@PAVCWnd@@@std@@QAE@ABV01@@Z 005789e0 f i Wnd.obj
 0002:0009da20       ??0?$_List_nod@PAVCWnd@@V?$allocator@PAVCWnd@@@std@@@std@@IAE@V?$allocator@PAVCWnd@@@1@@Z 00578a20 f i Wnd.obj
 0002:0009daa0       ??0?$_Container_base_aux_alloc_empty@V?$allocator@PAVCWnd@@@std@@@std@@IAE@V?$allocator@PAVCWnd@@@1@@Z 00578aa0 f i Wnd.obj
 0002:0009db00       ??$?0PAVCWnd@@@?$allocator@PAU_Node@?$_List_nod@PAVCWnd@@V?$allocator@PAVCWnd@@@std@@@std@@@std@@QAE@ABV?$allocator@PAVCWnd@@@1@@Z 00578b00 f i Wnd.obj
 0002:0009db40       ??$?0PAVCWnd@@@?$allocator@U_Node@?$_List_nod@PAVCWnd@@V?$allocator@PAVCWnd@@@std@@@std@@@std@@QAE@ABV?$allocator@PAVCWnd@@@1@@Z 00578b40 f i Wnd.obj
 0002:0009db80       ??1?$list@PAVCWnd@@V?$allocator@PAVCWnd@@@std@@@std@@QAE@XZ 00578b80 f i Wnd.obj
 0002:0009dc20       ?_Tidy@?$list@PAVCWnd@@V?$allocator@PAVCWnd@@@std@@@std@@IAEXXZ 00578c20 f i Wnd.obj
 0002:0009dce0       ?clear@?$list@PAVCWnd@@V?$allocator@PAVCWnd@@@std@@@std@@QAEXXZ 00578ce0 f i Wnd.obj
 0002:0009ddf0       ?Initialize@CWndHook@@SAXXZ 00578df0 f   WndHook.obj
 0002:0009de70       ?Release@CWndHook@@SAXXZ   00578e70 f   WndHook.obj
 0002:0009dee0       ?MessageFilterProc@CWndHook@@KGJHIJ@Z 00578ee0 f   WndHook.obj
 0002:0009e010       ?WalkPreTranslateTree@CWndHook@@SAHPAUtagMSG@@@Z 00579010 f   WndHook.obj
 0002:0009e100       ??0Mapper@@QAE@PAVNES@@@Z  00579100 f   Mapper.obj
 0002:0009e160       ?Write@Mapper@@UAEXGE@Z    00579160 f i Mapper.obj
 0002:0009e1a0       ?Read@Mapper@@UAEXGE@Z     005791a0 f i Mapper.obj
 0002:0009e1e0       ?ExRead@Mapper@@UAEEG@Z    005791e0 f i Mapper.obj
 0002:0009e220       ?ExWrite@Mapper@@UAEXGE@Z  00579220 f i Mapper.obj
 0002:0009e260       ?ExCmdRead@Mapper@@UAEEW4EXCMDRD@1@@Z 00579260 f i Mapper.obj
 0002:0009e2a0       ?ExCmdWrite@Mapper@@UAEXW4EXCMDWR@1@E@Z 005792a0 f i Mapper.obj
 0002:0009e2e0       ?HSync@Mapper@@UAEXH@Z     005792e0 f i Mapper.obj
 0002:0009e320       ?VSync@Mapper@@UAEXXZ      00579320 f i Mapper.obj
 0002:0009e360       ?Clock@Mapper@@UAEXH@Z     00579360 f i Mapper.obj
 0002:0009e3a0       ?PPU_Latch@Mapper@@UAEXG@Z 005793a0 f i Mapper.obj
 0002:0009e3e0       ?PPU_ChrLatch@Mapper@@UAEXG@Z 005793e0 f i Mapper.obj
 0002:0009e420       ?PPU_ExtLatchX@Mapper@@UAEXH@Z 00579420 f i Mapper.obj
 0002:0009e460       ?PPU_ExtLatch@Mapper@@UAEXGAAE00@Z 00579460 f i Mapper.obj
 0002:0009e4a0       ?IsStateSave@Mapper@@UAEHXZ 005794a0 f i Mapper.obj
 0002:0009e4e0       ?SaveState@Mapper@@UAEXPAE@Z 005794e0 f i Mapper.obj
 0002:0009e520       ?LoadState@Mapper@@UAEXPAE@Z 00579520 f i Mapper.obj
 0002:0009e560       ??_EMapper@@UAEPAXI@Z      00579560 f i Mapper.obj
 0002:0009e560       ??_GMapper@@UAEPAXI@Z      00579560 f i Mapper.obj
 0002:0009e5d0       ??1Mapper@@UAE@XZ          005795d0 f   Mapper.obj
 0002:0009e610       ?ReadLow@Mapper@@UAEEG@Z   00579610 f   Mapper.obj
 0002:0009e690       ?WriteLow@Mapper@@UAEXGE@Z 00579690 f   Mapper.obj
 0002:0009e710       ?Reset@Mapper000@@UAEXXZ   00579710 f   MapperFactory.obj
 0002:0009e810       ?Reset@Mapper001@@UAEXXZ   00579810 f   MapperFactory.obj
 0002:0009ead0       ?SetSAVERAM_SIZE@NES@@QAEXH@Z 00579ad0 f i MapperFactory.obj
 0002:0009eb20       ?SetExtMonoMode@PPU@@QAEXH@Z 00579b20 f i MapperFactory.obj
 0002:0009eb70       ?Write@Mapper001@@UAEXGE@Z 00579b70 f   MapperFactory.obj
 0002:0009f260       ?SaveState@Mapper001@@UAEXPAE@Z 0057a260 f   MapperFactory.obj
 0002:0009f310       ?LoadState@Mapper001@@UAEXPAE@Z 0057a310 f   MapperFactory.obj
 0002:0009f3c0       ?Reset@Mapper002@@UAEXXZ   0057a3c0 f   MapperFactory.obj
 0002:0009f490       ?WriteLow@Mapper002@@UAEXGE@Z 0057a490 f   MapperFactory.obj
 0002:0009f540       ?Write@Mapper002@@UAEXGE@Z 0057a540 f   MapperFactory.obj
 0002:0009f5d0       ?Reset@Mapper003@@UAEXXZ   0057a5d0 f   MapperFactory.obj
 0002:0009f6b0       ?SetExtNameTableMode@PPU@@QAEXH@Z 0057a6b0 f i MapperFactory.obj
 0002:0009f700       ?Write@Mapper003@@UAEXGE@Z 0057a700 f   MapperFactory.obj
 0002:0009f760       ?Reset@Mapper004@@UAEXXZ   0057a760 f   MapperFactory.obj
 0002:0009fcd0       ?ReadLow@Mapper004@@UAEEG@Z 0057acd0 f   MapperFactory.obj
 0002:000a0070       ?WriteLow@Mapper004@@UAEXGE@Z 0057b070 f   MapperFactory.obj
 0002:000a0100       ?Write@Mapper004@@UAEXGE@Z 0057b100 f   MapperFactory.obj
 0002:000a0550       ?GetScanline@NES@@QAEHXZ   0057b550 f i MapperFactory.obj
 0002:000a0590       ?Clock@Mapper004@@UAEXH@Z  0057b590 f   MapperFactory.obj
 0002:000a05d0       ?HSync@Mapper004@@UAEXH@Z  0057b5d0 f   MapperFactory.obj
 0002:000a0890       ?IsDispON@PPU@@QAEHXZ      0057b890 f i MapperFactory.obj
 0002:000a08e0       ?SetBank_CPU@Mapper004@@AAEXXZ 0057b8e0 f   MapperFactory.obj
 0002:000a09b0       ?SetBank_PPU@Mapper004@@AAEXXZ 0057b9b0 f   MapperFactory.obj
 0002:000a0cc0       ?SaveState@Mapper004@@UAEXPAE@Z 0057bcc0 f   MapperFactory.obj
 0002:000a0e00       ?LoadState@Mapper004@@UAEXPAE@Z 0057be00 f   MapperFactory.obj
 0002:000a0f40       ?Reset@Mapper163@@UAEXXZ   0057bf40 f   MapperFactory.obj
 0002:000a1010       ?ReadLow@Mapper163@@UAEEG@Z 0057c010 f   MapperFactory.obj
 0002:000a1120       ?WriteLow@Mapper163@@UAEXGE@Z 0057c120 f   MapperFactory.obj
 0002:000a1360       ?GetScanlineNo@PPU@@QAEHXZ 0057c360 f i MapperFactory.obj
 0002:000a13a0       ?HSync@Mapper163@@UAEXH@Z  0057c3a0 f   MapperFactory.obj
 0002:000a14a0       ?SaveState@Mapper163@@UAEXPAE@Z 0057c4a0 f   MapperFactory.obj
 0002:000a1500       ?LoadState@Mapper163@@UAEXPAE@Z 0057c500 f   MapperFactory.obj
 0002:000a1560       ?Reset@Mapper005@@UAEXXZ   0057c560 f   MapperFactory.obj
 0002:000a18f0       ?SetExtLatchMode@PPU@@QAEXH@Z 0057c8f0 f i MapperFactory.obj
 0002:000a1940       ?ReadLow@Mapper005@@UAEEG@Z 0057c940 f   MapperFactory.obj
 0002:000a1b00       ?WriteLow@Mapper005@@UAEXGE@Z 0057cb00 f   MapperFactory.obj
 0002:000a2020       ?Write@Mapper005@@UAEXGE@Z 0057d020 f   MapperFactory.obj
 0002:000a20e0       ?SetBank_CPU@Mapper005@@AAEXGE@Z 0057d0e0 f   MapperFactory.obj
 0002:000a2400       ?SetBank_SRAM@Mapper005@@AAEXEE@Z 0057d400 f   MapperFactory.obj
 0002:000a2570       ?SetBank_PPU@Mapper005@@AAEXXZ 0057d570 f   MapperFactory.obj
 0002:000a2ad0       ?HSync@Mapper005@@UAEXH@Z  0057dad0 f   MapperFactory.obj
 0002:000a2df0       ?PPU_ExtLatchX@Mapper005@@UAEXH@Z 0057ddf0 f   MapperFactory.obj
 0002:000a2e40       ?PPU_ExtLatch@Mapper005@@UAEXGAAE00@Z 0057de40 f   MapperFactory.obj
 0002:000a34f0       ?GetTILEY@PPU@@QAEGXZ      0057e4f0 f i MapperFactory.obj
 0002:000a3530       ?SaveState@Mapper005@@UAEXPAE@Z 0057e530 f   MapperFactory.obj
 0002:000a3740       ?LoadState@Mapper005@@UAEXPAE@Z 0057e740 f   MapperFactory.obj
 0002:000a3970       ?Reset@Mapper006@@UAEXXZ   0057e970 f   MapperFactory.obj
 0002:000a3a10       ?WriteLow@Mapper006@@UAEXGE@Z 0057ea10 f   MapperFactory.obj
 0002:000a3bc0       ?Write@Mapper006@@UAEXGE@Z 0057ebc0 f   MapperFactory.obj
 0002:000a3c40       ?HSync@Mapper006@@UAEXH@Z  0057ec40 f   MapperFactory.obj
 0002:000a3ce0       ?SaveState@Mapper006@@UAEXPAE@Z 0057ece0 f   MapperFactory.obj
 0002:000a3d40       ?LoadState@Mapper006@@UAEXPAE@Z 0057ed40 f   MapperFactory.obj
 0002:000a3da0       ?Reset@Mapper007@@UAEXXZ   0057eda0 f   MapperFactory.obj
 0002:000a3ea0       ?Write@Mapper007@@UAEXGE@Z 0057eea0 f   MapperFactory.obj
 0002:000a3f30       ?Reset@Mapper008@@UAEXXZ   0057ef30 f   MapperFactory.obj
 0002:000a3fa0       ?Write@Mapper008@@UAEXGE@Z 0057efa0 f   MapperFactory.obj
 0002:000a4020       ?Reset@Mapper009@@UAEXXZ   0057f020 f   MapperFactory.obj
 0002:000a4100       ?SetChrLatchMode@PPU@@QAEXH@Z 0057f100 f i MapperFactory.obj
 0002:000a4150       ?Write@Mapper009@@UAEXGE@Z 0057f150 f   MapperFactory.obj
 0002:000a4350       ?PPU_ChrLatch@Mapper009@@UAEXG@Z 0057f350 f   MapperFactory.obj
 0002:000a44c0       ?SaveState@Mapper009@@UAEXPAE@Z 0057f4c0 f   MapperFactory.obj
 0002:000a4550       ?LoadState@Mapper009@@UAEXPAE@Z 0057f550 f   MapperFactory.obj
 0002:000a45e0       ?Reset@Mapper010@@UAEXXZ   0057f5e0 f   MapperFactory.obj
 0002:000a46c0       ?Write@Mapper010@@UAEXGE@Z 0057f6c0 f   MapperFactory.obj
 0002:000a48c0       ?PPU_ChrLatch@Mapper010@@UAEXG@Z 0057f8c0 f   MapperFactory.obj
 0002:000a4a30       ?SaveState@Mapper010@@UAEXPAE@Z 0057fa30 f   MapperFactory.obj
 0002:000a4ac0       ?LoadState@Mapper010@@UAEXPAE@Z 0057fac0 f   MapperFactory.obj
 0002:000a4b50       ?Reset@Mapper011@@UAEXXZ   0057fb50 f   MapperFactory.obj
 0002:000a4bd0       ?Write@Mapper011@@UAEXGE@Z 0057fbd0 f   MapperFactory.obj
 0002:000a4c70       ?Reset@Mapper013@@UAEXXZ   0057fc70 f   MapperFactory.obj
 0002:000a4cf0       ?Write@Mapper013@@UAEXGE@Z 0057fcf0 f   MapperFactory.obj
 0002:000a4d70       ?Reset@Mapper015@@UAEXXZ   0057fd70 f   MapperFactory.obj
 0002:000a4dd0       ?Write@Mapper015@@UAEXGE@Z 0057fdd0 f   MapperFactory.obj
 0002:000a5190       ?Reset@Mapper016@@UAEXXZ   00580190 f   MapperFactory.obj
 0002:000a5500       ?Reset@X24C01@@QAEXPAE@Z   00580500 f i MapperFactory.obj
 0002:000a5590       ?Reset@X24C02@@QAEXPAE@Z   00580590 f i MapperFactory.obj
 0002:000a5620       ?ReadLow@Mapper016@@UAEEG@Z 00580620 f   MapperFactory.obj
 0002:000a5750       ?GetBarcodeStatus@NES@@QAEEXZ 00580750 f i MapperFactory.obj
 0002:000a5790       ?Read@X24C01@@QAEEXZ       00580790 f i MapperFactory.obj
 0002:000a57d0       ?Read@X24C02@@QAEEXZ       005807d0 f i MapperFactory.obj
 0002:000a5810       ?WriteLow@Mapper016@@UAEXGE@Z 00580810 f   MapperFactory.obj
 0002:000a58a0       ?Write@Mapper016@@UAEXGE@Z 005808a0 f   MapperFactory.obj
 0002:000a5930       ?WriteSubA@Mapper016@@AAEXGE@Z 00580930 f   MapperFactory.obj
 0002:000a5ce0       ?Write@X24C01@@QAEXEE@Z    00580ce0 f i MapperFactory.obj
 0002:000a6150       ?Write@X24C02@@QAEXEE@Z    00581150 f i MapperFactory.obj
 0002:000a67c0       ?WriteSubB@Mapper016@@AAEXGE@Z 005817c0 f   MapperFactory.obj
 0002:000a6ad0       ?HSync@Mapper016@@UAEXH@Z  00581ad0 f   MapperFactory.obj
 0002:000a6b90       ?GetIrqType@NES@@QAEHXZ    00581b90 f i MapperFactory.obj
 0002:000a6bd0       ?Clock@Mapper016@@UAEXH@Z  00581bd0 f   MapperFactory.obj
 0002:000a6c90       ?SaveState@Mapper016@@UAEXPAE@Z 00581c90 f   MapperFactory.obj
 0002:000a6dc0       ?Save@X24C01@@QAEXPAE@Z    00581dc0 f i MapperFactory.obj
 0002:000a6e70       ?Save@X24C02@@QAEXPAE@Z    00581e70 f i MapperFactory.obj
 0002:000a6f30       ?LoadState@Mapper016@@UAEXPAE@Z 00581f30 f   MapperFactory.obj
 0002:000a7060       ?Load@X24C01@@QAEXPAE@Z    00582060 f i MapperFactory.obj
 0002:000a7110       ?Load@X24C02@@QAEXPAE@Z    00582110 f i MapperFactory.obj
 0002:000a71d0       ?Reset@Mapper017@@UAEXXZ   005821d0 f   MapperFactory.obj
 0002:000a7280       ?WriteLow@Mapper017@@UAEXGE@Z 00582280 f   MapperFactory.obj
 0002:000a74c0       ?HSync@Mapper017@@UAEXH@Z  005824c0 f   MapperFactory.obj
 0002:000a7570       ?SaveState@Mapper017@@UAEXPAE@Z 00582570 f   MapperFactory.obj
 0002:000a75e0       ?LoadState@Mapper017@@UAEXPAE@Z 005825e0 f   MapperFactory.obj
 0002:000a7650       ?Reset@Mapper018@@UAEXXZ   00582650 f   MapperFactory.obj
 0002:000a7790       ?Write@Mapper018@@UAEXGE@Z 00582790 f   MapperFactory.obj
 0002:000a8180       ?Clock@Mapper018@@UAEXH@Z  00583180 f   MapperFactory.obj
 0002:000a8330       ?SaveState@Mapper018@@UAEXPAE@Z 00583330 f   MapperFactory.obj
 0002:000a83e0       ?LoadState@Mapper018@@UAEXPAE@Z 005833e0 f   MapperFactory.obj
 0002:000a8490       ?Reset@Mapper019@@UAEXXZ   00583490 f   MapperFactory.obj
 0002:000a86c0       ?ReadLow@Mapper019@@UAEEG@Z 005836c0 f   MapperFactory.obj
 0002:000a88b0       ?WriteLow@Mapper019@@UAEXGE@Z 005838b0 f   MapperFactory.obj
 0002:000a8b10       ?Write@Mapper019@@UAEXGE@Z 00583b10 f   MapperFactory.obj
 0002:000a91d0       ?Clock@Mapper019@@UAEXH@Z  005841d0 f   MapperFactory.obj
 0002:000a9290       ?SaveState@Mapper019@@UAEXPAE@Z 00584290 f   MapperFactory.obj
 0002:000a9350       ?LoadState@Mapper019@@UAEXPAE@Z 00584350 f   MapperFactory.obj
 0002:000a9410       ?Reset@Mapper020@@UAEXXZ   00584410 f   MapperFactory.obj
 0002:000a98f0       ?GetPROM@ROM@@QAEPAEXZ     005848f0 f i MapperFactory.obj
 0002:000a9930       ?GetDISKBIOS@ROM@@QAEPAEXZ 00584930 f i MapperFactory.obj
 0002:000a9970       ?GetDISK@ROM@@QAEPAEXZ     00584970 f i MapperFactory.obj
 0002:000a99b0       ?ExRead@Mapper020@@UAEEG@Z 005849b0 f   MapperFactory.obj
 0002:000a9e10       ?ExWrite@Mapper020@@UAEXGE@Z 00584e10 f   MapperFactory.obj
 0002:000aa510       ?WriteLow@Mapper020@@UAEXGE@Z 00585510 f   MapperFactory.obj
 0002:000aa560       ?Write@Mapper020@@UAEXGE@Z 00585560 f   MapperFactory.obj
 0002:000aa5c0       ?Clock@Mapper020@@UAEXH@Z  005855c0 f   MapperFactory.obj
 0002:000aa6f0       ?HSync@Mapper020@@UAEXH@Z  005856f0 f   MapperFactory.obj
 0002:000aa760       ?VSync@Mapper020@@UAEXXZ   00585760 f   MapperFactory.obj
 0002:000aa960       ?ExCmdRead@Mapper020@@UAEEW4EXCMDRD@Mapper@@@Z 00585960 f   MapperFactory.obj
 0002:000aa9c0       ?ExCmdWrite@Mapper020@@UAEXW4EXCMDWR@Mapper@@E@Z 005859c0 f   MapperFactory.obj
 0002:000aaaf0       ?MechanicalSound@Mapper020@@IAEXH@Z 00585af0 f   MapperFactory.obj
 0002:000aabf0       ?SaveState@Mapper020@@UAEXPAE@Z 00585bf0 f   MapperFactory.obj
 0002:000aada0       ?LoadState@Mapper020@@UAEXPAE@Z 00585da0 f   MapperFactory.obj
 0002:000ab010       ?Reset@Mapper021@@UAEXXZ   00586010 f   MapperFactory.obj
 0002:000ab0e0       ?Write@Mapper021@@UAEXGE@Z 005860e0 f   MapperFactory.obj
 0002:000abce0       ?Clock@Mapper021@@UAEXH@Z  00586ce0 f   MapperFactory.obj
 0002:000abdc0       ?SaveState@Mapper021@@UAEXPAE@Z 00586dc0 f   MapperFactory.obj
 0002:000abe70       ?LoadState@Mapper021@@UAEXPAE@Z 00586e70 f   MapperFactory.obj
 0002:000abf20       ?Reset@Mapper022@@UAEXXZ   00586f20 f   MapperFactory.obj
 0002:000abf90       ?Write@Mapper022@@UAEXGE@Z 00586f90 f   MapperFactory.obj
 0002:000ac270       ?Reset@Mapper023@@UAEXXZ   00587270 f   MapperFactory.obj
 0002:000ac3d0       ?Write@Mapper023@@UAEXGE@Z 005873d0 f   MapperFactory.obj
 0002:000acdd0       ?Clock@Mapper023@@UAEXH@Z  00587dd0 f   MapperFactory.obj
 0002:000aceb0       ?SaveState@Mapper023@@UAEXPAE@Z 00587eb0 f   MapperFactory.obj
 0002:000acf60       ?LoadState@Mapper023@@UAEXPAE@Z 00587f60 f   MapperFactory.obj
 0002:000ad010       ?Reset@Mapper024@@UAEXXZ   00588010 f   MapperFactory.obj
 0002:000ad0e0       ?Write@Mapper024@@UAEXGE@Z 005880e0 f   MapperFactory.obj
 0002:000ad540       ?Clock@Mapper024@@UAEXH@Z  00588540 f   MapperFactory.obj
 0002:000ad620       ?SaveState@Mapper024@@UAEXPAE@Z 00588620 f   MapperFactory.obj
 0002:000ad6a0       ?LoadState@Mapper024@@UAEXPAE@Z 005886a0 f   MapperFactory.obj
 0002:000ad720       ?Reset@Mapper025@@UAEXXZ   00588720 f   MapperFactory.obj
 0002:000ad880       ?Write@Mapper025@@UAEXGE@Z 00588880 f   MapperFactory.obj
 0002:000ae280       ?Clock@Mapper025@@UAEXH@Z  00589280 f   MapperFactory.obj
 0002:000ae360       ?SaveState@Mapper025@@UAEXPAE@Z 00589360 f   MapperFactory.obj
 0002:000ae420       ?LoadState@Mapper025@@UAEXPAE@Z 00589420 f   MapperFactory.obj
 0002:000ae4e0       ?Reset@Mapper026@@UAEXXZ   005894e0 f   MapperFactory.obj
 0002:000ae5f0       ?Write@Mapper026@@UAEXGE@Z 005895f0 f   MapperFactory.obj
 0002:000aea80       ?Clock@Mapper026@@UAEXH@Z  00589a80 f   MapperFactory.obj
 0002:000aeb60       ?SaveState@Mapper026@@UAEXPAE@Z 00589b60 f   MapperFactory.obj
 0002:000aebe0       ?LoadState@Mapper026@@UAEXPAE@Z 00589be0 f   MapperFactory.obj
 0002:000aec60       ?Reset@Mapper032@@UAEXXZ   00589c60 f   MapperFactory.obj
 0002:000aed40       ?Write@Mapper032@@UAEXGE@Z 00589d40 f   MapperFactory.obj
 0002:000aef60       ?SaveState@Mapper032@@UAEXPAE@Z 00589f60 f   MapperFactory.obj
 0002:000aefb0       ?LoadState@Mapper032@@UAEXPAE@Z 00589fb0 f   MapperFactory.obj
 0002:000af000       ?Reset@Mapper033@@UAEXXZ   0058a000 f   MapperFactory.obj
 0002:000af1b0       ?Write@Mapper033@@UAEXGE@Z 0058a1b0 f   MapperFactory.obj
 0002:000af500       ?HSync@Mapper033@@UAEXH@Z  0058a500 f   MapperFactory.obj
 0002:000af5d0       ?SetBank@Mapper033@@AAEXXZ 0058a5d0 f   MapperFactory.obj
 0002:000af6a0       ?SaveState@Mapper033@@UAEXPAE@Z 0058a6a0 f   MapperFactory.obj
 0002:000af740       ?LoadState@Mapper033@@UAEXPAE@Z 0058a740 f   MapperFactory.obj
 0002:000af7e0       ?Reset@Mapper034@@UAEXXZ   0058a7e0 f   MapperFactory.obj
 0002:000af870       ?WriteLow@Mapper034@@UAEXGE@Z 0058a870 f   MapperFactory.obj
 0002:000af930       ?Write@Mapper034@@UAEXGE@Z 0058a930 f   MapperFactory.obj
 0002:000af990       ?Reset@Mapper040@@UAEXXZ   0058a990 f   MapperFactory.obj
 0002:000afa30       ?Write@Mapper040@@UAEXGE@Z 0058aa30 f   MapperFactory.obj
 0002:000afb20       ?HSync@Mapper040@@UAEXH@Z  0058ab20 f   MapperFactory.obj
 0002:000afbb0       ?SaveState@Mapper040@@UAEXPAE@Z 0058abb0 f   MapperFactory.obj
 0002:000afc10       ?LoadState@Mapper040@@UAEXPAE@Z 0058ac10 f   MapperFactory.obj
 0002:000afc70       ?Reset@Mapper041@@UAEXXZ   0058ac70 f   MapperFactory.obj
 0002:000afd00       ?WriteLow@Mapper041@@UAEXGE@Z 0058ad00 f   MapperFactory.obj
 0002:000afe00       ?Write@Mapper041@@UAEXGE@Z 0058ae00 f   MapperFactory.obj
 0002:000afea0       ?SaveState@Mapper041@@UAEXPAE@Z 0058aea0 f   MapperFactory.obj
 0002:000aff00       ?LoadState@Mapper041@@UAEXPAE@Z 0058af00 f   MapperFactory.obj
 0002:000aff60       ?Reset@Mapper042@@UAEXXZ   0058af60 f   MapperFactory.obj
 0002:000b0020       ?Write@Mapper042@@UAEXGE@Z 0058b020 f   MapperFactory.obj
 0002:000b0130       ?HSync@Mapper042@@UAEXH@Z  0058b130 f   MapperFactory.obj
 0002:000b01f0       ?SaveState@Mapper042@@UAEXPAE@Z 0058b1f0 f   MapperFactory.obj
 0002:000b0250       ?LoadState@Mapper042@@UAEXPAE@Z 0058b250 f   MapperFactory.obj
 0002:000b02b0       ?Reset@Mapper043@@UAEXXZ   0058b2b0 f   MapperFactory.obj
 0002:000b0350       ?ReadLow@Mapper043@@UAEEG@Z 0058b350 f   MapperFactory.obj
 0002:000b03f0       ?ExWrite@Mapper043@@UAEXGE@Z 0058b3f0 f   MapperFactory.obj
 0002:000b0500       ?WriteLow@Mapper043@@UAEXGE@Z 0058b500 f   MapperFactory.obj
 0002:000b0590       ?Write@Mapper043@@UAEXGE@Z 0058b590 f   MapperFactory.obj
 0002:000b0630       ?HSync@Mapper043@@UAEXH@Z  0058b630 f   MapperFactory.obj
 0002:000b06e0       ?SaveState@Mapper043@@UAEXPAE@Z 0058b6e0 f   MapperFactory.obj
 0002:000b0740       ?LoadState@Mapper043@@UAEXPAE@Z 0058b740 f   MapperFactory.obj
 0002:000b07a0       ?Reset@Mapper048@@UAEXXZ   0058b7a0 f   MapperFactory.obj
 0002:000b0850       ?Write@Mapper048@@UAEXGE@Z 0058b850 f   MapperFactory.obj
 0002:000b0b00       ?HSync@Mapper048@@UAEXH@Z  0058bb00 f   MapperFactory.obj
 0002:000b0bc0       ?SaveState@Mapper048@@UAEXPAE@Z 0058bbc0 f   MapperFactory.obj
 0002:000b0c30       ?LoadState@Mapper048@@UAEXPAE@Z 0058bc30 f   MapperFactory.obj
 0002:000b0ca0       ?Reset@Mapper064@@UAEXXZ   0058bca0 f   MapperFactory.obj
 0002:000b0d90       ?Write@Mapper064@@UAEXGE@Z 0058bd90 f   MapperFactory.obj
 0002:000b12d0       ?Clock@Mapper064@@UAEXH@Z  0058c2d0 f   MapperFactory.obj
 0002:000b13b0       ?HSync@Mapper064@@UAEXH@Z  0058c3b0 f   MapperFactory.obj
 0002:000b1490       ?SaveState@Mapper064@@UAEXPAE@Z 0058c490 f   MapperFactory.obj
 0002:000b1550       ?LoadState@Mapper064@@UAEXPAE@Z 0058c550 f   MapperFactory.obj
 0002:000b1610       ?Reset@Mapper065@@UAEXXZ   0058c610 f   MapperFactory.obj
 0002:000b16e0       ?Write@Mapper065@@UAEXGE@Z 0058c6e0 f   MapperFactory.obj
 0002:000b1a00       ?HSync@Mapper065@@UAEXH@Z  0058ca00 f   MapperFactory.obj
 0002:000b1aa0       ?Clock@Mapper065@@UAEXH@Z  0058caa0 f   MapperFactory.obj
 0002:000b1b40       ?SaveState@Mapper065@@UAEXPAE@Z 0058cb40 f   MapperFactory.obj
 0002:000b1bb0       ?LoadState@Mapper065@@UAEXPAE@Z 0058cbb0 f   MapperFactory.obj
 0002:000b1c20       ?Reset@Mapper066@@UAEXXZ   0058cc20 f   MapperFactory.obj
 0002:000b1ca0       ?WriteLow@Mapper066@@UAEXGE@Z 0058cca0 f   MapperFactory.obj
 0002:000b1d30       ?Write@Mapper066@@UAEXGE@Z 0058cd30 f   MapperFactory.obj
 0002:000b1db0       ?Reset@Mapper067@@UAEXXZ   0058cdb0 f   MapperFactory.obj
 0002:000b1ea0       ?Write@Mapper067@@UAEXGE@Z 0058cea0 f   MapperFactory.obj
 0002:000b2170       ?Clock@Mapper067@@UAEXH@Z  0058d170 f   MapperFactory.obj
 0002:000b2220       ?SaveState@Mapper067@@UAEXPAE@Z 0058d220 f   MapperFactory.obj
 0002:000b22a0       ?LoadState@Mapper067@@UAEXPAE@Z 0058d2a0 f   MapperFactory.obj
 0002:000b2320       ?Reset@Mapper068@@UAEXXZ   0058d320 f   MapperFactory.obj
 0002:000b23c0       ?Write@Mapper068@@UAEXGE@Z 0058d3c0 f   MapperFactory.obj
 0002:000b25b0       ?SetBank@Mapper068@@AAEXXZ 0058d5b0 f   MapperFactory.obj
 0002:000b28c0       ?SaveState@Mapper068@@UAEXPAE@Z 0058d8c0 f   MapperFactory.obj
 0002:000b2940       ?LoadState@Mapper068@@UAEXPAE@Z 0058d940 f   MapperFactory.obj
 0002:000b29c0       ?Reset@Mapper069@@UAEXXZ   0058d9c0 f   MapperFactory.obj
 0002:000b2ae0       ?Write@Mapper069@@UAEXGE@Z 0058dae0 f   MapperFactory.obj
 0002:000b2df0       ?Clock@Mapper069@@UAEXH@Z  0058ddf0 f   MapperFactory.obj
 0002:000b2ea0       ?HSync@Mapper069@@UAEXH@Z  0058dea0 f   MapperFactory.obj
 0002:000b2f50       ?SaveState@Mapper069@@UAEXPAE@Z 0058df50 f   MapperFactory.obj
 0002:000b2fc0       ?LoadState@Mapper069@@UAEXPAE@Z 0058dfc0 f   MapperFactory.obj
 0002:000b3030       ?Reset@Mapper070@@UAEXXZ   0058e030 f   MapperFactory.obj
 0002:000b3120       ?Write@Mapper070@@UAEXGE@Z 0058e120 f   MapperFactory.obj
 0002:000b3200       ?Reset@Mapper071@@UAEXXZ   0058e200 f   MapperFactory.obj
 0002:000b3270       ?WriteLow@Mapper071@@UAEXGE@Z 0058e270 f   MapperFactory.obj
 0002:000b32e0       ?Write@Mapper071@@UAEXGE@Z 0058e2e0 f   MapperFactory.obj
 0002:000b33e0       ?Reset@Mapper072@@UAEXXZ   0058e3e0 f   MapperFactory.obj
 0002:000b3470       ?Write@Mapper072@@UAEXGE@Z 0058e470 f   MapperFactory.obj
 0002:000b3580       ?Reset@Mapper073@@UAEXXZ   0058e580 f   MapperFactory.obj
 0002:000b3600       ?Write@Mapper073@@UAEXGE@Z 0058e600 f   MapperFactory.obj
 0002:000b37e0       ?Clock@Mapper073@@UAEXH@Z  0058e7e0 f   MapperFactory.obj
 0002:000b3890       ?SaveState@Mapper073@@UAEXPAE@Z 0058e890 f   MapperFactory.obj
 0002:000b38f0       ?LoadState@Mapper073@@UAEXPAE@Z 0058e8f0 f   MapperFactory.obj
 0002:000b3950       ?Reset@Mapper075@@UAEXXZ   0058e950 f   MapperFactory.obj
 0002:000b39f0       ?Write@Mapper075@@UAEXGE@Z 0058e9f0 f   MapperFactory.obj
 0002:000b3c30       ?SaveState@Mapper075@@UAEXPAE@Z 0058ec30 f   MapperFactory.obj
 0002:000b3c90       ?LoadState@Mapper075@@UAEXPAE@Z 0058ec90 f   MapperFactory.obj
 0002:000b3cf0       ?Reset@Mapper076@@UAEXXZ   0058ecf0 f   MapperFactory.obj
 0002:000b3d80       ?Write@Mapper076@@UAEXGE@Z 0058ed80 f   MapperFactory.obj
 0002:000b3ef0       ?SaveState@Mapper076@@UAEXPAE@Z 0058eef0 f   MapperFactory.obj
 0002:000b3f40       ?LoadState@Mapper076@@UAEXPAE@Z 0058ef40 f   MapperFactory.obj
 0002:000b3f90       ?Reset@Mapper077@@UAEXXZ   0058ef90 f   MapperFactory.obj
 0002:000b4020       ?Write@Mapper077@@UAEXGE@Z 0058f020 f   MapperFactory.obj
 0002:000b40a0       ?Reset@Mapper078@@UAEXXZ   0058f0a0 f   MapperFactory.obj
 0002:000b4130       ?Write@Mapper078@@UAEXGE@Z 0058f130 f   MapperFactory.obj
 0002:000b41f0       ?Reset@Mapper079@@UAEXXZ   0058f1f0 f   MapperFactory.obj
 0002:000b4260       ?WriteLow@Mapper079@@UAEXGE@Z 0058f260 f   MapperFactory.obj
 0002:000b42e0       ?Reset@Mapper080@@UAEXXZ   0058f2e0 f   MapperFactory.obj
 0002:000b4370       ?WriteLow@Mapper080@@UAEXGE@Z 0058f370 f   MapperFactory.obj
 0002:000b4620       ?Reset@Mapper082@@UAEXXZ   0058f620 f   MapperFactory.obj
 0002:000b46c0       ?WriteLow@Mapper082@@UAEXGE@Z 0058f6c0 f   MapperFactory.obj
 0002:000b49a0       ?SaveState@Mapper082@@UAEXPAE@Z 0058f9a0 f   MapperFactory.obj
 0002:000b49f0       ?LoadState@Mapper082@@UAEXPAE@Z 0058f9f0 f   MapperFactory.obj
 0002:000b4a40       ?Reset@Mapper083@@UAEXXZ   0058fa40 f   MapperFactory.obj
 0002:000b4b70       ?ReadLow@Mapper083@@UAEEG@Z 0058fb70 f   MapperFactory.obj
 0002:000b4c10       ?WriteLow@Mapper083@@UAEXGE@Z 0058fc10 f   MapperFactory.obj
 0002:000b4cc0       ?Write@Mapper083@@UAEXGE@Z 0058fcc0 f   MapperFactory.obj
 0002:000b51c0       ?HSync@Mapper083@@UAEXH@Z  005901c0 f   MapperFactory.obj
 0002:000b5260       ?SaveState@Mapper083@@UAEXPAE@Z 00590260 f   MapperFactory.obj
 0002:000b52f0       ?LoadState@Mapper083@@UAEXPAE@Z 005902f0 f   MapperFactory.obj
 0002:000b5380       ?Reset@Mapper085@@UAEXXZ   00590380 f   MapperFactory.obj
 0002:000b5450       ?Write@Mapper085@@UAEXGE@Z 00590450 f   MapperFactory.obj
 0002:000b5a50       ?Clock@Mapper085@@UAEXH@Z  00590a50 f   MapperFactory.obj
 0002:000b5b30       ?SaveState@Mapper085@@UAEXPAE@Z 00590b30 f   MapperFactory.obj
 0002:000b5bb0       ?LoadState@Mapper085@@UAEXPAE@Z 00590bb0 f   MapperFactory.obj
 0002:000b5c30       ?Reset@Mapper086@@UAEXXZ   00590c30 f   MapperFactory.obj
 0002:000b5cb0       ?WriteLow@Mapper086@@UAEXGE@Z 00590cb0 f   MapperFactory.obj
 0002:000b5de0       ?VSync@Mapper086@@UAEXXZ   00590de0 f   MapperFactory.obj
 0002:000b5e40       ?Reset@Mapper087@@UAEXXZ   00590e40 f   MapperFactory.obj
 0002:000b5eb0       ?WriteLow@Mapper087@@UAEXGE@Z 00590eb0 f   MapperFactory.obj
 0002:000b5f20       ?Reset@Mapper088@@UAEXXZ   00590f20 f   MapperFactory.obj
 0002:000b6010       ?Write@Mapper088@@UAEXGE@Z 00591010 f   MapperFactory.obj
 0002:000b6230       ?SaveState@Mapper088@@UAEXPAE@Z 00591230 f   MapperFactory.obj
 0002:000b6280       ?LoadState@Mapper088@@UAEXPAE@Z 00591280 f   MapperFactory.obj
 0002:000b62d0       ?Reset@Mapper089@@UAEXXZ   005912d0 f   MapperFactory.obj
 0002:000b6350       ?Write@Mapper089@@UAEXGE@Z 00591350 f   MapperFactory.obj
 0002:000b6420       ?Reset@Mapper090@@UAEXXZ   00591420 f   MapperFactory.obj
 0002:000b6630       ?ReadLow@Mapper090@@UAEEG@Z 00591630 f   MapperFactory.obj
 0002:000b6780       ?WriteLow@Mapper090@@UAEXGE@Z 00591780 f   MapperFactory.obj
 0002:000b6840       ?Write@Mapper090@@UAEXGE@Z 00591840 f   MapperFactory.obj
 0002:000b6c20       ?HSync@Mapper090@@UAEXH@Z  00591c20 f   MapperFactory.obj
 0002:000b6d10       ?Clock@Mapper090@@UAEXH@Z  00591d10 f   MapperFactory.obj
 0002:000b6d50       ?SetBank_CPU@Mapper090@@AAEXXZ 00591d50 f   MapperFactory.obj
 0002:000b6f20       ?SetBank_PPU@Mapper090@@AAEXXZ 00591f20 f   MapperFactory.obj
 0002:000b70d0       ?SetBank_VRAM@Mapper090@@AAEXXZ 005920d0 f   MapperFactory.obj
 0002:000b72b0       ?SaveState@Mapper090@@UAEXPAE@Z 005922b0 f   MapperFactory.obj
 0002:000b74e0       ?LoadState@Mapper090@@UAEXPAE@Z 005924e0 f   MapperFactory.obj
 0002:000b7710       ?Reset@Mapper091@@UAEXXZ   00592710 f   MapperFactory.obj
 0002:000b77e0       ?WriteLow@Mapper091@@UAEXGE@Z 005927e0 f   MapperFactory.obj
 0002:000b7930       ?HSync@Mapper091@@UAEXH@Z  00592930 f   MapperFactory.obj
 0002:000b79f0       ?SaveState@Mapper091@@UAEXPAE@Z 005929f0 f   MapperFactory.obj
 0002:000b7a50       ?LoadState@Mapper091@@UAEXPAE@Z 00592a50 f   MapperFactory.obj
 0002:000b7ab0       ?Reset@Mapper092@@UAEXXZ   00592ab0 f   MapperFactory.obj
 0002:000b7b40       ?Write@Mapper092@@UAEXGE@Z 00592b40 f   MapperFactory.obj
 0002:000b7d90       ?Reset@Mapper093@@UAEXXZ   00592d90 f   MapperFactory.obj
 0002:000b7e20       ?WriteLow@Mapper093@@UAEXGE@Z 00592e20 f   MapperFactory.obj
 0002:000b7e90       ?Reset@Mapper094@@UAEXXZ   00592e90 f   MapperFactory.obj
 0002:000b7f00       ?Write@Mapper094@@UAEXGE@Z 00592f00 f   MapperFactory.obj
 0002:000b7f80       ?Reset@Mapper095@@UAEXXZ   00592f80 f   MapperFactory.obj
 0002:000b8080       ?Write@Mapper095@@UAEXGE@Z 00593080 f   MapperFactory.obj
 0002:000b82e0       ?SetBank_CPU@Mapper095@@AAEXXZ 005932e0 f   MapperFactory.obj
 0002:000b83b0       ?SetBank_PPU@Mapper095@@AAEXXZ 005933b0 f   MapperFactory.obj
 0002:000b84e0       ?SaveState@Mapper095@@UAEXPAE@Z 005934e0 f   MapperFactory.obj
 0002:000b85a0       ?LoadState@Mapper095@@UAEXPAE@Z 005935a0 f   MapperFactory.obj
 0002:000b8660       ?Reset@Mapper096@@UAEXXZ   00593660 f   MapperFactory.obj
 0002:000b86e0       ?Write@Mapper096@@UAEXGE@Z 005936e0 f   MapperFactory.obj
 0002:000b8760       ?PPU_Latch@Mapper096@@UAEXG@Z 00593760 f   MapperFactory.obj
 0002:000b87e0       ?SetBank@Mapper096@@AAEXXZ 005937e0 f   MapperFactory.obj
 0002:000b8870       ?SaveState@Mapper096@@UAEXPAE@Z 00593870 f   MapperFactory.obj
 0002:000b88d0       ?LoadState@Mapper096@@UAEXPAE@Z 005938d0 f   MapperFactory.obj
 0002:000b8930       ?Reset@Mapper097@@UAEXXZ   00593930 f   MapperFactory.obj
 0002:000b89c0       ?Write@Mapper097@@UAEXGE@Z 005939c0 f   MapperFactory.obj
 0002:000b8a60       ?Reset@Mapper100@@UAEXXZ   00593a60 f   MapperFactory.obj
 0002:000b8bd0       ?Write@Mapper100@@UAEXGE@Z 00593bd0 f   MapperFactory.obj
 0002:000b91c0       ?HSync@Mapper100@@UAEXH@Z  005941c0 f   MapperFactory.obj
 0002:000b9290       ?SetBank_CPU@Mapper100@@AAEXXZ 00594290 f   MapperFactory.obj
 0002:000b9310       ?SetBank_PPU@Mapper100@@AAEXXZ 00594310 f   MapperFactory.obj
 0002:000b93c0       ?SaveState@Mapper100@@UAEXPAE@Z 005943c0 f   MapperFactory.obj
 0002:000b9510       ?LoadState@Mapper100@@UAEXPAE@Z 00594510 f   MapperFactory.obj
 0002:000b9660       ?Reset@Mapper101@@UAEXXZ   00594660 f   MapperFactory.obj
 0002:000b96d0       ?WriteLow@Mapper101@@UAEXGE@Z 005946d0 f   MapperFactory.obj
 0002:000b9740       ?Write@Mapper101@@UAEXGE@Z 00594740 f   MapperFactory.obj
 0002:000b97a0       ?Reset@Mapper107@@UAEXXZ   005947a0 f   MapperFactory.obj
 0002:000b9820       ?Write@Mapper107@@UAEXGE@Z 00594820 f   MapperFactory.obj
 0002:000b98a0       ?Reset@Mapper113@@UAEXXZ   005948a0 f   MapperFactory.obj
 0002:000b9900       ?WriteLow@Mapper113@@UAEXGE@Z 00594900 f   MapperFactory.obj
 0002:000b9a40       ?Write@Mapper113@@UAEXGE@Z 00594a40 f   MapperFactory.obj
 0002:000b9b50       ?Reset@Mapper118@@UAEXXZ   00594b50 f   MapperFactory.obj
 0002:000b9c90       ?Write@Mapper118@@UAEXGE@Z 00594c90 f   MapperFactory.obj
 0002:000ba020       ?HSync@Mapper118@@UAEXH@Z  00595020 f   MapperFactory.obj
 0002:000ba0f0       ?SetBank_CPU@Mapper118@@AAEXXZ 005950f0 f   MapperFactory.obj
 0002:000ba1c0       ?SetBank_PPU@Mapper118@@AAEXXZ 005951c0 f   MapperFactory.obj
 0002:000ba2f0       ?SaveState@Mapper118@@UAEXPAE@Z 005952f0 f   MapperFactory.obj
 0002:000ba410       ?LoadState@Mapper118@@UAEXPAE@Z 00595410 f   MapperFactory.obj
 0002:000ba530       ?Reset@Mapper119@@UAEXXZ   00595530 f   MapperFactory.obj
 0002:000ba630       ?Write@Mapper119@@UAEXGE@Z 00595630 f   MapperFactory.obj
 0002:000ba9e0       ?HSync@Mapper119@@UAEXH@Z  005959e0 f   MapperFactory.obj
 0002:000baab0       ?SetBank_CPU@Mapper119@@AAEXXZ 00595ab0 f   MapperFactory.obj
 0002:000bab80       ?SetBank_PPU@Mapper119@@AAEXXZ 00595b80 f   MapperFactory.obj
 0002:000bb040       ?SaveState@Mapper119@@UAEXPAE@Z 00596040 f   MapperFactory.obj
 0002:000bb160       ?LoadState@Mapper119@@UAEXPAE@Z 00596160 f   MapperFactory.obj
 0002:000bb280       ?Reset@Mapper122@@UAEXXZ   00596280 f   MapperFactory.obj
 0002:000bb2e0       ?WriteLow@Mapper122@@UAEXGE@Z 005962e0 f   MapperFactory.obj
 0002:000bb370       ?Reset@Mapper180@@UAEXXZ   00596370 f   MapperFactory.obj
 0002:000bb3e0       ?Write@Mapper180@@UAEXGE@Z 005963e0 f   MapperFactory.obj
 0002:000bb440       ?Reset@Mapper181@@UAEXXZ   00596440 f   MapperFactory.obj
 0002:000bb4a0       ?WriteLow@Mapper181@@UAEXGE@Z 005964a0 f   MapperFactory.obj
 0002:000bb520       ?Reset@Mapper185@@UAEXXZ   00596520 f   MapperFactory.obj
 0002:000bb620       ?Write@Mapper185@@UAEXGE@Z 00596620 f   MapperFactory.obj
 0002:000bb720       ?Reset@Mapper187@@UAEXXZ   00596720 f   MapperFactory.obj
 0002:000bb840       ?ReadLow@Mapper187@@UAEEG@Z 00596840 f   MapperFactory.obj
 0002:000bb920       ?WriteLow@Mapper187@@UAEXGE@Z 00596920 f   MapperFactory.obj
 0002:000bbac0       ?Write@Mapper187@@UAEXGE@Z 00596ac0 f   MapperFactory.obj
 0002:000bbf90       ?Clock@Mapper187@@UAEXH@Z  00596f90 f   MapperFactory.obj
 0002:000bbfd0       ?HSync@Mapper187@@UAEXH@Z  00596fd0 f   MapperFactory.obj
 0002:000bc0b0       ?SetBank_CPU@Mapper187@@AAEXXZ 005970b0 f   MapperFactory.obj
 0002:000bc130       ?SetBank_PPU@Mapper187@@AAEXXZ 00597130 f   MapperFactory.obj
 0002:000bc1d0       ?SaveState@Mapper187@@UAEXPAE@Z 005971d0 f   MapperFactory.obj
 0002:000bc330       ?LoadState@Mapper187@@UAEXPAE@Z 00597330 f   MapperFactory.obj
 0002:000bc490       ?Reset@Mapper188@@UAEXXZ   00597490 f   MapperFactory.obj
 0002:000bc520       ?Write@Mapper188@@UAEXGE@Z 00597520 f   MapperFactory.obj
 0002:000bc5f0       ?Reset@Mapper189@@UAEXXZ   005975f0 f   MapperFactory.obj
 0002:000bc780       ?WriteLow@Mapper189@@UAEXGE@Z 00597780 f   MapperFactory.obj
 0002:000bd0c0       ?Write@Mapper189@@UAEXGE@Z 005980c0 f   MapperFactory.obj
 0002:000bd350       ?HSync@Mapper189@@UAEXH@Z  00598350 f   MapperFactory.obj
 0002:000bd420       ?SetBank_PPU@Mapper189@@QAEXXZ 00598420 f   MapperFactory.obj
 0002:000bd7a0       ?SaveState@Mapper189@@UAEXPAE@Z 005987a0 f   MapperFactory.obj
 0002:000bd8d0       ?LoadState@Mapper189@@UAEXPAE@Z 005988d0 f   MapperFactory.obj
 0002:000bda00       ?Reset@Mapper243@@UAEXXZ   00598a00 f   MapperFactory.obj
 0002:000bdac0       ?WriteLow@Mapper243@@UAEXGE@Z 00598ac0 f   MapperFactory.obj
 0002:000bdd00       ?SaveState@Mapper243@@UAEXPAE@Z 00598d00 f   MapperFactory.obj
 0002:000bdd80       ?LoadState@Mapper243@@UAEXPAE@Z 00598d80 f   MapperFactory.obj
 0002:000bde00       ?Reset@MapperNSF@@UAEXXZ   00598e00 f   MapperFactory.obj
 0002:000be460       ?GetNsfHeader@ROM@@QAEPAUtagNSFHEADER@@XZ 00599460 f i MapperFactory.obj
 0002:000be4a0       ?GetNSF_SIZE@ROM@@QAEEXZ   005994a0 f i MapperFactory.obj
 0002:000be4e0       ?ExRead@MapperNSF@@UAEEG@Z 005994e0 f   MapperFactory.obj
 0002:000be570       ?ExWrite@MapperNSF@@UAEXGE@Z 00599570 f   MapperFactory.obj
 0002:000be5f0       ?ReadLow@MapperNSF@@UAEEG@Z 005995f0 f   MapperFactory.obj
 0002:000be780       ?WriteLow@MapperNSF@@UAEXGE@Z 00599780 f   MapperFactory.obj
 0002:000be950       ?Write@MapperNSF@@UAEXGE@Z 00599950 f   MapperFactory.obj
 0002:000bea00       ?BankSwitch@MapperNSF@@IAEXHE@Z 00599a00 f   MapperFactory.obj
 0002:000bebb0       ?VSync@MapperNSF@@UAEXXZ   00599bb0 f   MapperFactory.obj
 0002:000bfac0       ?GetNsfController@PAD@@QAEEXZ 0059aac0 f i MapperFactory.obj
 0002:000bfb00       ?GetKeyTable@MapperNSF@@IAEHH@Z 0059ab00 f   MapperFactory.obj
 0002:000bfba0       ?DrawKey@MapperNSF@@IAEXH@Z 0059aba0 f   MapperFactory.obj
 0002:000bfcc0       ?DrawRect@MapperNSF@@IAEXHHHHE@Z 0059acc0 f   MapperFactory.obj
 0002:000bfe20       ?GetScreenPtr@PPU@@QAEPAEXZ 0059ae20 f i MapperFactory.obj
 0002:000bfe60       ?DrawFont@MapperNSF@@IAEXHHEE@Z 0059ae60 f   MapperFactory.obj
 0002:000c0000       ?DrawString@MapperNSF@@IAEXHHPADE@Z 0059b000 f   MapperFactory.obj
 0002:000c0090       ?DrawWave@MapperNSF@@IAEXHHH@Z 0059b090 f   MapperFactory.obj
 0002:000c02c0       ?GetSoundBuffer@APU@@QAEPAFXZ 0059b2c0 f i MapperFactory.obj
 0002:000c0300       ?DrawBitmap@MapperNSF@@IAEXHHPAE@Z 0059b300 f   MapperFactory.obj
 0002:000c0430       ?StarInitial@MapperNSF@@IAEXXZ 0059b430 f   MapperFactory.obj
 0002:000c0520       ?Star@MapperNSF@@IAEXXZ    0059b520 f   MapperFactory.obj
 0002:000c07e0       ?Reset@Mapper044@@UAEXXZ   0059b7e0 f   MapperFactory.obj
 0002:000c0940       ?WriteLow@Mapper044@@UAEXGE@Z 0059b940 f   MapperFactory.obj
 0002:000c09e0       ?Write@Mapper044@@UAEXGE@Z 0059b9e0 f   MapperFactory.obj
 0002:000c0d70       ?HSync@Mapper044@@UAEXH@Z  0059bd70 f   MapperFactory.obj
 0002:000c0e40       ?SetBank_CPU@Mapper044@@AAEXXZ 0059be40 f   MapperFactory.obj
 0002:000c10f0       ?SetBank_PPU@Mapper044@@AAEXXZ 0059c0f0 f   MapperFactory.obj
 0002:000c1760       ?SaveState@Mapper044@@UAEXPAE@Z 0059c760 f   MapperFactory.obj
 0002:000c1880       ?LoadState@Mapper044@@UAEXPAE@Z 0059c880 f   MapperFactory.obj
 0002:000c19a0       ?Reset@Mapper045@@UAEXXZ   0059c9a0 f   MapperFactory.obj
 0002:000c1c10       ?WriteLow@Mapper045@@UAEXGE@Z 0059cc10 f   MapperFactory.obj
 0002:000c1cf0       ?Write@Mapper045@@UAEXGE@Z 0059ccf0 f   MapperFactory.obj
 0002:000c22f0       ?HSync@Mapper045@@UAEXH@Z  0059d2f0 f   MapperFactory.obj
 0002:000c23c0       ?SetBank_CPU_4@Mapper045@@AAEXH@Z 0059d3c0 f   MapperFactory.obj
 0002:000c2460       ?SetBank_CPU_5@Mapper045@@AAEXH@Z 0059d460 f   MapperFactory.obj
 0002:000c2500       ?SetBank_CPU_6@Mapper045@@AAEXH@Z 0059d500 f   MapperFactory.obj
 0002:000c25a0       ?SetBank_CPU_7@Mapper045@@AAEXH@Z 0059d5a0 f   MapperFactory.obj
 0002:000c2640       ?SetBank_PPU@Mapper045@@AAEXXZ 0059d640 f   MapperFactory.obj
 0002:000c2930       ?SaveState@Mapper045@@UAEXPAE@Z 0059d930 f   MapperFactory.obj
 0002:000c2af0       ?LoadState@Mapper045@@UAEXPAE@Z 0059daf0 f   MapperFactory.obj
 0002:000c2cb0       ?Reset@Mapper046@@UAEXXZ   0059dcb0 f   MapperFactory.obj
 0002:000c2d40       ?WriteLow@Mapper046@@UAEXGE@Z 0059dd40 f   MapperFactory.obj
 0002:000c2dc0       ?Write@Mapper046@@UAEXGE@Z 0059ddc0 f   MapperFactory.obj
 0002:000c2e40       ?SetBank@Mapper046@@AAEXXZ 0059de40 f   MapperFactory.obj
 0002:000c3050       ?SaveState@Mapper046@@UAEXPAE@Z 0059e050 f   MapperFactory.obj
 0002:000c30d0       ?LoadState@Mapper046@@UAEXPAE@Z 0059e0d0 f   MapperFactory.obj
 0002:000c3150       ?Reset@Mapper047@@UAEXXZ   0059e150 f   MapperFactory.obj
 0002:000c32b0       ?WriteLow@Mapper047@@UAEXGE@Z 0059e2b0 f   MapperFactory.obj
 0002:000c3350       ?Write@Mapper047@@UAEXGE@Z 0059e350 f   MapperFactory.obj
 0002:000c3690       ?HSync@Mapper047@@UAEXH@Z  0059e690 f   MapperFactory.obj
 0002:000c3760       ?SetBank_CPU@Mapper047@@AAEXXZ 0059e760 f   MapperFactory.obj
 0002:000c39c0       ?SetBank_PPU@Mapper047@@AAEXXZ 0059e9c0 f   MapperFactory.obj
 0002:000c3ce0       ?SaveState@Mapper047@@UAEXPAE@Z 0059ece0 f   MapperFactory.obj
 0002:000c3e00       ?LoadState@Mapper047@@UAEXPAE@Z 0059ee00 f   MapperFactory.obj
 0002:000c3f20       ?Reset@Mapper050@@UAEXXZ   0059ef20 f   MapperFactory.obj
 0002:000c3fd0       ?ExWrite@Mapper050@@UAEXGE@Z 0059efd0 f   MapperFactory.obj
 0002:000c40a0       ?WriteLow@Mapper050@@UAEXGE@Z 0059f0a0 f   MapperFactory.obj
 0002:000c4170       ?HSync@Mapper050@@UAEXH@Z  0059f170 f   MapperFactory.obj
 0002:000c41e0       ?SaveState@Mapper050@@UAEXPAE@Z 0059f1e0 f   MapperFactory.obj
 0002:000c4230       ?LoadState@Mapper050@@UAEXPAE@Z 0059f230 f   MapperFactory.obj
 0002:000c4280       ?Reset@Mapper051@@UAEXXZ   0059f280 f   MapperFactory.obj
 0002:000c4300       ?WriteLow@Mapper051@@UAEXGE@Z 0059f300 f   MapperFactory.obj
 0002:000c4380       ?Write@Mapper051@@UAEXGE@Z 0059f380 f   MapperFactory.obj
 0002:000c4430       ?SetBank_CPU@Mapper051@@AAEXXZ 0059f430 f   MapperFactory.obj
 0002:000c4710       ?SaveState@Mapper051@@UAEXPAE@Z 0059f710 f   MapperFactory.obj
 0002:000c4770       ?LoadState@Mapper051@@UAEXPAE@Z 0059f770 f   MapperFactory.obj
 0002:000c47d0       ?Reset@Mapper057@@UAEXXZ   0059f7d0 f   MapperFactory.obj
 0002:000c4840       ?Write@Mapper057@@UAEXGE@Z 0059f840 f   MapperFactory.obj
 0002:000c4a80       ?SaveState@Mapper057@@UAEXPAE@Z 0059fa80 f   MapperFactory.obj
 0002:000c4ad0       ?LoadState@Mapper057@@UAEXPAE@Z 0059fad0 f   MapperFactory.obj
 0002:000c4b20       ?Reset@Mapper058@@UAEXXZ   0059fb20 f   MapperFactory.obj
 0002:000c4b90       ?Write@Mapper058@@UAEXGE@Z 0059fb90 f   MapperFactory.obj
 0002:000c4c80       ?Reset@Mapper060@@UAEXXZ   0059fc80 f   MapperFactory.obj
 0002:000c4d80       ?Write@Mapper060@@UAEXGE@Z 0059fd80 f   MapperFactory.obj
 0002:000c4e70       ?Reset@Mapper062@@UAEXXZ   0059fe70 f   MapperFactory.obj
 0002:000c4ed0       ?Write@Mapper062@@UAEXGE@Z 0059fed0 f   MapperFactory.obj
 0002:000c5070       ?Reset@Mapper074@@UAEXXZ   005a0070 f   MapperFactory.obj
 0002:000c51b0       ?ReadLow@Mapper074@@UAEEG@Z 005a01b0 f   MapperFactory.obj
 0002:000c5240       ?WriteLow@Mapper074@@UAEXGE@Z 005a0240 f   MapperFactory.obj
 0002:000c52d0       ?Write@Mapper074@@UAEXGE@Z 005a02d0 f   MapperFactory.obj
 0002:000c5650       ?HSync@Mapper074@@UAEXH@Z  005a0650 f   MapperFactory.obj
 0002:000c5770       ?SetBank_CPU@Mapper074@@AAEXXZ 005a0770 f   MapperFactory.obj
 0002:000c5840       ?SetBank_PPU@Mapper074@@AAEXXZ 005a0840 f   MapperFactory.obj
 0002:000c5c10       ?SetBank_PPUSUB@Mapper074@@AAEXHH@Z 005a0c10 f   MapperFactory.obj
 0002:000c5ce0       ?SaveState@Mapper074@@UAEXPAE@Z 005a0ce0 f   MapperFactory.obj
 0002:000c5e00       ?LoadState@Mapper074@@UAEXPAE@Z 005a0e00 f   MapperFactory.obj
 0002:000c5f20       ?Reset@Mapper105@@UAEXXZ   005a0f20 f   MapperFactory.obj
 0002:000c5fd0       ?Write@Mapper105@@UAEXGE@Z 005a0fd0 f   MapperFactory.obj
 0002:000c63d0       ?HSync@Mapper105@@UAEXH@Z  005a13d0 f   MapperFactory.obj
 0002:000c6480       ?SaveState@Mapper105@@UAEXPAE@Z 005a1480 f   MapperFactory.obj
 0002:000c6540       ?LoadState@Mapper105@@UAEXPAE@Z 005a1540 f   MapperFactory.obj
 0002:000c6600       ?Reset@Mapper108@@UAEXXZ   005a1600 f   MapperFactory.obj
 0002:000c6670       ?Write@Mapper108@@UAEXGE@Z 005a1670 f   MapperFactory.obj
 0002:000c66d0       ?Reset@Mapper109@@UAEXXZ   005a16d0 f   MapperFactory.obj
 0002:000c6770       ?WriteLow@Mapper109@@UAEXGE@Z 005a1770 f   MapperFactory.obj
 0002:000c6940       ?SetBank_PPU@Mapper109@@AAEXXZ 005a1940 f   MapperFactory.obj
 0002:000c6aa0       ?SaveState@Mapper109@@UAEXPAE@Z 005a1aa0 f   MapperFactory.obj
 0002:000c6b40       ?LoadState@Mapper109@@UAEXPAE@Z 005a1b40 f   MapperFactory.obj
 0002:000c6be0       ?Reset@Mapper110@@UAEXXZ   005a1be0 f   MapperFactory.obj
 0002:000c6c50       ?WriteLow@Mapper110@@UAEXGE@Z 005a1c50 f   MapperFactory.obj
 0002:000c6e00       ?SaveState@Mapper110@@UAEXPAE@Z 005a1e00 f   MapperFactory.obj
 0002:000c6e60       ?LoadState@Mapper110@@UAEXPAE@Z 005a1e60 f   MapperFactory.obj
 0002:000c6ec0       ?Reset@Mapper112@@UAEXXZ   005a1ec0 f   MapperFactory.obj
 0002:000c6f90       ?Write@Mapper112@@UAEXGE@Z 005a1f90 f   MapperFactory.obj
 0002:000c7230       ?SetBank_CPU@Mapper112@@AAEXXZ 005a2230 f   MapperFactory.obj
 0002:000c72b0       ?SetBank_PPU@Mapper112@@AAEXXZ 005a22b0 f   MapperFactory.obj
 0002:000c7480       ?SaveState@Mapper112@@UAEXPAE@Z 005a2480 f   MapperFactory.obj
 0002:000c7550       ?LoadState@Mapper112@@UAEXPAE@Z 005a2550 f   MapperFactory.obj
 0002:000c7620       ?Reset@Mapper114@@UAEXXZ   005a2620 f   MapperFactory.obj
 0002:000c7710       ?WriteLow@Mapper114@@UAEXGE@Z 005a2710 f   MapperFactory.obj
 0002:000c7770       ?Write@Mapper114@@UAEXGE@Z 005a2770 f   MapperFactory.obj
 0002:000c7930       ?Clock@Mapper114@@UAEXH@Z  005a2930 f   MapperFactory.obj
 0002:000c7970       ?HSync@Mapper114@@UAEXH@Z  005a2970 f   MapperFactory.obj
 0002:000c7a30       ?SetBank_CPU@Mapper114@@AAEXXZ 005a2a30 f   MapperFactory.obj
 0002:000c7ae0       ?SetBank_PPU@Mapper114@@AAEXXZ 005a2ae0 f   MapperFactory.obj
 0002:000c7bb0       ?SaveState@Mapper114@@UAEXPAE@Z 005a2bb0 f   MapperFactory.obj
 0002:000c7c70       ?LoadState@Mapper114@@UAEXPAE@Z 005a2c70 f   MapperFactory.obj
 0002:000c7d30       ?Reset@Mapper115@@UAEXXZ   005a2d30 f   MapperFactory.obj
 0002:000c7ed0       ?WriteLow@Mapper115@@UAEXGE@Z 005a2ed0 f   MapperFactory.obj
 0002:000c7f90       ?Write@Mapper115@@UAEXGE@Z 005a2f90 f   MapperFactory.obj
 0002:000c8330       ?HSync@Mapper115@@UAEXH@Z  005a3330 f   MapperFactory.obj
 0002:000c8400       ?SetBank_CPU@Mapper115@@AAEXXZ 005a3400 f   MapperFactory.obj
 0002:000c8560       ?SetBank_PPU@Mapper115@@AAEXXZ 005a3560 f   MapperFactory.obj
 0002:000c8780       ?SaveState@Mapper115@@UAEXPAE@Z 005a3780 f   MapperFactory.obj
 0002:000c8910       ?LoadState@Mapper115@@UAEXPAE@Z 005a3910 f   MapperFactory.obj
 0002:000c8aa0       ?Reset@Mapper116@@UAEXXZ   005a3aa0 f   MapperFactory.obj
 0002:000c8c40       ?WriteLow@Mapper116@@UAEXGE@Z 005a3c40 f   MapperFactory.obj
 0002:000c8d10       ?Write@Mapper116@@UAEXGE@Z 005a3d10 f   MapperFactory.obj
 0002:000c90f0       ?HSync@Mapper116@@UAEXH@Z  005a40f0 f   MapperFactory.obj
 0002:000c91b0       ?SetBank_CPU@Mapper116@@AAEXXZ 005a41b0 f   MapperFactory.obj
 0002:000c9280       ?SetBank_PPU@Mapper116@@AAEXXZ 005a4280 f   MapperFactory.obj
 0002:000c93d0       ?SaveState@Mapper116@@UAEXPAE@Z 005a43d0 f   MapperFactory.obj
 0002:000c9560       ?LoadState@Mapper116@@UAEXPAE@Z 005a4560 f   MapperFactory.obj
 0002:000c96f0       ?Reset@Mapper117@@UAEXXZ   005a46f0 f   MapperFactory.obj
 0002:000c9780       ?Write@Mapper117@@UAEXGE@Z 005a4780 f   MapperFactory.obj
 0002:000c99f0       ?HSync@Mapper117@@UAEXH@Z  005a49f0 f   MapperFactory.obj
 0002:000c9aa0       ?SaveState@Mapper117@@UAEXPAE@Z 005a4aa0 f   MapperFactory.obj
 0002:000c9b00       ?LoadState@Mapper117@@UAEXPAE@Z 005a4b00 f   MapperFactory.obj
 0002:000c9b60       ?Reset@Mapper133@@UAEXXZ   005a4b60 f   MapperFactory.obj
 0002:000c9bc0       ?WriteLow@Mapper133@@UAEXGE@Z 005a4bc0 f   MapperFactory.obj
 0002:000c9c70       ?Reset@Mapper134@@UAEXXZ   005a4c70 f   MapperFactory.obj
 0002:000c9cd0       ?WriteLow@Mapper134@@UAEXGE@Z 005a4cd0 f   MapperFactory.obj
 0002:000c9ed0       ?SaveState@Mapper134@@UAEXPAE@Z 005a4ed0 f   MapperFactory.obj
 0002:000c9f40       ?LoadState@Mapper134@@UAEXPAE@Z 005a4f40 f   MapperFactory.obj
 0002:000c9fb0       ?Reset@Mapper135@@UAEXXZ   005a4fb0 f   MapperFactory.obj
 0002:000ca040       ?WriteLow@Mapper135@@UAEXGE@Z 005a5040 f   MapperFactory.obj
 0002:000ca290       ?SetBank_PPU@Mapper135@@AAEXXZ 005a5290 f   MapperFactory.obj
 0002:000ca380       ?SaveState@Mapper135@@UAEXPAE@Z 005a5380 f   MapperFactory.obj
 0002:000ca410       ?LoadState@Mapper135@@UAEXPAE@Z 005a5410 f   MapperFactory.obj
 0002:000ca4a0       ?Reset@Mapper140@@UAEXXZ   005a54a0 f   MapperFactory.obj
 0002:000ca510       ?WriteLow@Mapper140@@UAEXGE@Z 005a5510 f   MapperFactory.obj
 0002:000ca590       ?Reset@Mapper142@@UAEXXZ   005a5590 f   MapperFactory.obj
 0002:000ca630       ?Write@Mapper142@@UAEXGE@Z 005a5630 f   MapperFactory.obj
 0002:000ca8d0       ?HSync@Mapper142@@UAEXH@Z  005a58d0 f   MapperFactory.obj
 0002:000ca970       ?SaveState@Mapper142@@UAEXPAE@Z 005a5970 f   MapperFactory.obj
 0002:000ca9e0       ?LoadState@Mapper142@@UAEXPAE@Z 005a59e0 f   MapperFactory.obj
 0002:000caa50       ?Reset@Mapper160@@UAEXXZ   005a5a50 f   MapperFactory.obj
 0002:000caae0       ?Write@Mapper160@@UAEXGE@Z 005a5ae0 f   MapperFactory.obj
 0002:000cae70       ?HSync@Mapper160@@UAEXH@Z  005a5e70 f   MapperFactory.obj
 0002:000cb190       ?SaveState@Mapper160@@UAEXPAE@Z 005a6190 f   MapperFactory.obj
 0002:000cb210       ?LoadState@Mapper160@@UAEXPAE@Z 005a6210 f   MapperFactory.obj
 0002:000cb290       ?Reset@Mapper182@@UAEXXZ   005a6290 f   MapperFactory.obj
 0002:000cb330       ?Write@Mapper182@@UAEXGE@Z 005a6330 f   MapperFactory.obj
 0002:000cb5b0       ?HSync@Mapper182@@UAEXH@Z  005a65b0 f   MapperFactory.obj
 0002:000cb680       ?SaveState@Mapper182@@UAEXPAE@Z 005a6680 f   MapperFactory.obj
 0002:000cb6f0       ?LoadState@Mapper182@@UAEXPAE@Z 005a66f0 f   MapperFactory.obj
 0002:000cb760       ?Reset@Mapper183@@UAEXXZ   005a6760 f   MapperFactory.obj
 0002:000cb820       ?Write@Mapper183@@UAEXGE@Z 005a6820 f   MapperFactory.obj
 0002:000cc080       ?HSync@Mapper183@@UAEXH@Z  005a7080 f   MapperFactory.obj
 0002:000cc120       ?SaveState@Mapper183@@UAEXPAE@Z 005a7120 f   MapperFactory.obj
 0002:000cc1b0       ?LoadState@Mapper183@@UAEXPAE@Z 005a71b0 f   MapperFactory.obj
 0002:000cc240       ?Reset@Mapper190@@UAEXXZ   005a7240 f   MapperFactory.obj
 0002:000cc2e0       ?WriteLow@Mapper190@@UAEXGE@Z 005a72e0 f   MapperFactory.obj
 0002:000cc430       ?ReadLow@Mapper190@@UAEEG@Z 005a7430 f   MapperFactory.obj
 0002:000cc4b0       ?Write@Mapper190@@UAEXGE@Z 005a74b0 f   MapperFactory.obj
 0002:000ccbe0       ?HSync@Mapper190@@UAEXH@Z  005a7be0 f   MapperFactory.obj
 0002:000ccca0       ?SaveState@Mapper190@@UAEXPAE@Z 005a7ca0 f   MapperFactory.obj
 0002:000ccd50       ?LoadState@Mapper190@@UAEXPAE@Z 005a7d50 f   MapperFactory.obj
 0002:000cce00       ?Reset@Mapper191@@UAEXXZ   005a7e00 f   MapperFactory.obj
 0002:000ccf00       ?ReadLow@Mapper191@@UAEEG@Z 005a7f00 f   MapperFactory.obj
 0002:000ccf90       ?WriteLow@Mapper191@@UAEXGE@Z 005a7f90 f   MapperFactory.obj
 0002:000cd020       ?Write@Mapper191@@UAEXGE@Z 005a8020 f   MapperFactory.obj
 0002:000cd3a0       ?HSync@Mapper191@@UAEXH@Z  005a83a0 f   MapperFactory.obj
 0002:000cd4c0       ?SetBank_CPU@Mapper191@@AAEXXZ 005a84c0 f   MapperFactory.obj
 0002:000cd590       ?SetBank_PPU@Mapper191@@AAEXXZ 005a8590 f   MapperFactory.obj
 0002:000cd6d0       ?SetBank_PPUSUB@Mapper191@@AAEXHHH@Z 005a86d0 f   MapperFactory.obj
 0002:000cd750       ?SaveState@Mapper191@@UAEXPAE@Z 005a8750 f   MapperFactory.obj
 0002:000cd870       ?LoadState@Mapper191@@UAEXPAE@Z 005a8870 f   MapperFactory.obj
 0002:000cd990       ?Reset@Mapper193@@UAEXXZ   005a8990 f   MapperFactory.obj
 0002:000cda10       ?WriteLow@Mapper193@@UAEXGE@Z 005a8a10 f   MapperFactory.obj
 0002:000cdb30       ?Reset@Mapper194@@UAEXXZ   005a8b30 f   MapperFactory.obj
 0002:000cdb90       ?Write@Mapper194@@UAEXGE@Z 005a8b90 f   MapperFactory.obj
 0002:000cdbf0       ?Reset@Mapper198@@UAEXXZ   005a8bf0 f   MapperFactory.obj
 0002:000cdcc0       ?WriteLow@Mapper198@@UAEXGE@Z 005a8cc0 f   MapperFactory.obj
 0002:000cdd60       ?ReadLow@Mapper198@@UAEEG@Z 005a8d60 f   MapperFactory.obj
 0002:000cddf0       ?Write@Mapper198@@UAEXGE@Z 005a8df0 f   MapperFactory.obj
 0002:000ce120       ?SetBank_CPU@Mapper198@@AAEXXZ 005a9120 f   MapperFactory.obj
 0002:000ce1f0       ?SetBank_PPU@Mapper198@@AAEXXZ 005a91f0 f   MapperFactory.obj
 0002:000ce320       ?SaveState@Mapper198@@UAEXPAE@Z 005a9320 f   MapperFactory.obj
 0002:000ce410       ?LoadState@Mapper198@@UAEXPAE@Z 005a9410 f   MapperFactory.obj
 0002:000ce500       ?Reset@Mapper222@@UAEXXZ   005a9500 f   MapperFactory.obj
 0002:000ce590       ?Write@Mapper222@@UAEXGE@Z 005a9590 f   MapperFactory.obj
 0002:000ce7e0       ?Reset@Mapper225@@UAEXXZ   005a97e0 f   MapperFactory.obj
 0002:000ce850       ?Write@Mapper225@@UAEXGE@Z 005a9850 f   MapperFactory.obj
 0002:000ceb20       ?Reset@Mapper226@@UAEXXZ   005a9b20 f   MapperFactory.obj
 0002:000ceb90       ?Write@Mapper226@@UAEXGE@Z 005a9b90 f   MapperFactory.obj
 0002:000cedd0       ?SaveState@Mapper226@@UAEXPAE@Z 005a9dd0 f   MapperFactory.obj
 0002:000cee30       ?LoadState@Mapper226@@UAEXPAE@Z 005a9e30 f   MapperFactory.obj
 0002:000cee90       ?Reset@Mapper227@@UAEXXZ   005a9e90 f   MapperFactory.obj
 0002:000ceef0       ?Write@Mapper227@@UAEXGE@Z 005a9ef0 f   MapperFactory.obj
 0002:000cf120       ?Reset@Mapper228@@UAEXXZ   005aa120 f   MapperFactory.obj
 0002:000cf180       ?Write@Mapper228@@UAEXGE@Z 005aa180 f   MapperFactory.obj
 0002:000cf370       ?Reset@Mapper229@@UAEXXZ   005aa370 f   MapperFactory.obj
 0002:000cf3d0       ?Write@Mapper229@@UAEXGE@Z 005aa3d0 f   MapperFactory.obj
 0002:000cf4f0       ?Reset@Mapper230@@UAEXXZ   005aa4f0 f   MapperFactory.obj
 0002:000cf5b0       ?Write@Mapper230@@UAEXGE@Z 005aa5b0 f   MapperFactory.obj
 0002:000cf750       ?Reset@Mapper231@@UAEXXZ   005aa750 f   MapperFactory.obj
 0002:000cf7c0       ?Write@Mapper231@@UAEXGE@Z 005aa7c0 f   MapperFactory.obj
 0002:000cf8c0       ?Reset@Mapper232@@UAEXXZ   005aa8c0 f   MapperFactory.obj
 0002:000cf940       ?WriteLow@Mapper232@@UAEXGE@Z 005aa940 f   MapperFactory.obj
 0002:000cf9c0       ?Write@Mapper232@@UAEXGE@Z 005aa9c0 f   MapperFactory.obj
 0002:000cfad0       ?SaveState@Mapper232@@UAEXPAE@Z 005aaad0 f   MapperFactory.obj
 0002:000cfb30       ?LoadState@Mapper232@@UAEXPAE@Z 005aab30 f   MapperFactory.obj
 0002:000cfb90       ?Reset@Mapper233@@UAEXXZ   005aab90 f   MapperFactory.obj
 0002:000cfbf0       ?Write@Mapper233@@UAEXGE@Z 005aabf0 f   MapperFactory.obj
 0002:000cfda0       ?Reset@Mapper234@@UAEXXZ   005aada0 f   MapperFactory.obj
 0002:000cfe10       ?Read@Mapper234@@UAEXGE@Z  005aae10 f   MapperFactory.obj
 0002:000cfed0       ?Write@Mapper234@@UAEXGE@Z 005aaed0 f   MapperFactory.obj
 0002:000cff90       ?SetBank@Mapper234@@AAEXXZ 005aaf90 f   MapperFactory.obj
 0002:000d00b0       ?SaveState@Mapper234@@UAEXPAE@Z 005ab0b0 f   MapperFactory.obj
 0002:000d0110       ?LoadState@Mapper234@@UAEXPAE@Z 005ab110 f   MapperFactory.obj
 0002:000d0170       ?Reset@Mapper235@@UAEXXZ   005ab170 f   MapperFactory.obj
 0002:000d0200       ?Write@Mapper235@@UAEXGE@Z 005ab200 f   MapperFactory.obj
 0002:000d0580       ?Reset@Mapper236@@UAEXXZ   005ab580 f   MapperFactory.obj
 0002:000d0600       ?Write@Mapper236@@UAEXGE@Z 005ab600 f   MapperFactory.obj
 0002:000d09b0       ?SaveState@Mapper236@@UAEXPAE@Z 005ab9b0 f   MapperFactory.obj
 0002:000d0a10       ?LoadState@Mapper236@@UAEXPAE@Z 005aba10 f   MapperFactory.obj
 0002:000d0a70       ?Reset@Mapper240@@UAEXXZ   005aba70 f   MapperFactory.obj
 0002:000d0b00       ?WriteLow@Mapper240@@UAEXGE@Z 005abb00 f   MapperFactory.obj
 0002:000d0ba0       ?Reset@Mapper241@@UAEXXZ   005abba0 f   MapperFactory.obj
 0002:000d0c10       ?Write@Mapper241@@UAEXGE@Z 005abc10 f   MapperFactory.obj
 0002:000d0c80       ?Reset@Mapper242@@UAEXXZ   005abc80 f   MapperFactory.obj
 0002:000d0ce0       ?Write@Mapper242@@UAEXGE@Z 005abce0 f   MapperFactory.obj
 0002:000d0d50       ?Reset@Mapper244@@UAEXXZ   005abd50 f   MapperFactory.obj
 0002:000d0db0       ?Write@Mapper244@@UAEXGE@Z 005abdb0 f   MapperFactory.obj
 0002:000d0e70       ?Reset@Mapper245@@UAEXXZ   005abe70 f   MapperFactory.obj
 0002:000d0f70       ?Write@Mapper245@@UAEXGE@Z 005abf70 f   MapperFactory.obj
 0002:000d1290       ?Clock@Mapper245@@UAEXH@Z  005ac290 f   MapperFactory.obj
 0002:000d12d0       ?HSync@Mapper245@@UAEXH@Z  005ac2d0 f   MapperFactory.obj
 0002:000d13f0       ?SetBank_CPU@Mapper245@@AAEXXZ 005ac3f0 f   MapperFactory.obj
 0002:000d1470       ?SetBank_PPU@Mapper245@@AAEXXZ 005ac470 f   MapperFactory.obj
 0002:000d1780       ?SaveState@Mapper245@@UAEXPAE@Z 005ac780 f   MapperFactory.obj
 0002:000d18a0       ?LoadState@Mapper245@@UAEXPAE@Z 005ac8a0 f   MapperFactory.obj
 0002:000d19c0       ?Reset@Mapper246@@UAEXXZ   005ac9c0 f   MapperFactory.obj
 0002:000d1a30       ?WriteLow@Mapper246@@UAEXGE@Z 005aca30 f   MapperFactory.obj
 0002:000d1bf0       ?Reset@Mapper248@@UAEXXZ   005acbf0 f   MapperFactory.obj
 0002:000d1cf0       ?WriteLow@Mapper248@@UAEXGE@Z 005accf0 f   MapperFactory.obj
 0002:000d1d70       ?Write@Mapper248@@UAEXGE@Z 005acd70 f   MapperFactory.obj
 0002:000d2040       ?HSync@Mapper248@@UAEXH@Z  005ad040 f   MapperFactory.obj
 0002:000d2110       ?SetBank_CPU@Mapper248@@AAEXXZ 005ad110 f   MapperFactory.obj
 0002:000d21e0       ?SetBank_PPU@Mapper248@@AAEXXZ 005ad1e0 f   MapperFactory.obj
 0002:000d2310       ?SaveState@Mapper248@@UAEXPAE@Z 005ad310 f   MapperFactory.obj
 0002:000d2430       ?LoadState@Mapper248@@UAEXPAE@Z 005ad430 f   MapperFactory.obj
 0002:000d2550       ?Reset@Mapper249@@UAEXXZ   005ad550 f   MapperFactory.obj
 0002:000d2680       ?WriteLow@Mapper249@@UAEXGE@Z 005ad680 f   MapperFactory.obj
 0002:000d2740       ?Write@Mapper249@@UAEXGE@Z 005ad740 f   MapperFactory.obj
 0002:000d34e0       ?Clock@Mapper249@@UAEXH@Z  005ae4e0 f   MapperFactory.obj
 0002:000d3520       ?HSync@Mapper249@@UAEXH@Z  005ae520 f   MapperFactory.obj
 0002:000d3640       ?SaveState@Mapper249@@UAEXPAE@Z 005ae640 f   MapperFactory.obj
 0002:000d3770       ?LoadState@Mapper249@@UAEXPAE@Z 005ae770 f   MapperFactory.obj
 0002:000d38a0       ?Reset@Mapper251@@UAEXXZ   005ae8a0 f   MapperFactory.obj
 0002:000d3980       ?WriteLow@Mapper251@@UAEXGE@Z 005ae980 f   MapperFactory.obj
 0002:000d3a40       ?Write@Mapper251@@UAEXGE@Z 005aea40 f   MapperFactory.obj
 0002:000d3b40       ?SetBank@Mapper251@@AAEXXZ 005aeb40 f   MapperFactory.obj
 0002:000d3d90       ?SaveState@Mapper251@@UAEXPAE@Z 005aed90 f   MapperFactory.obj
 0002:000d3e40       ?LoadState@Mapper251@@UAEXPAE@Z 005aee40 f   MapperFactory.obj
 0002:000d3ef0       ?Reset@Mapper252@@UAEXXZ   005aeef0 f   MapperFactory.obj
 0002:000d3fe0       ?Write@Mapper252@@UAEXGE@Z 005aefe0 f   MapperFactory.obj
 0002:000d47b0       ?Clock@Mapper252@@UAEXH@Z  005af7b0 f   MapperFactory.obj
 0002:000d48b0       ?SaveState@Mapper252@@UAEXPAE@Z 005af8b0 f   MapperFactory.obj
 0002:000d4960       ?LoadState@Mapper252@@UAEXPAE@Z 005af960 f   MapperFactory.obj
 0002:000d4a10       ?Reset@Mapper253@@UAEXXZ   005afa10 f   MapperFactory.obj
 0002:000d4b30       ?Write@Mapper253@@UAEXGE@Z 005afb30 f   MapperFactory.obj
 0002:000d5370       ?SetBank_PPUSUB@Mapper253@@QAEXHH@Z 005b0370 f   MapperFactory.obj
 0002:000d5470       ?Clock@Mapper253@@UAEXH@Z  005b0470 f   MapperFactory.obj
 0002:000d5560       ?SaveState@Mapper253@@UAEXPAE@Z 005b0560 f   MapperFactory.obj
 0002:000d5610       ?LoadState@Mapper253@@UAEXPAE@Z 005b0610 f   MapperFactory.obj
 0002:000d56c0       ?Reset@Mapper254@@UAEXXZ   005b06c0 f   MapperFactory.obj
 0002:000d57c0       ?WriteLow@Mapper254@@UAEXGE@Z 005b07c0 f   MapperFactory.obj
 0002:000d5850       ?ReadLow@Mapper254@@UAEEG@Z 005b0850 f   MapperFactory.obj
 0002:000d5920       ?Write@Mapper254@@UAEXGE@Z 005b0920 f   MapperFactory.obj
 0002:000d5ce0       ?Clock@Mapper254@@UAEXH@Z  005b0ce0 f   MapperFactory.obj
 0002:000d5d20       ?HSync@Mapper254@@UAEXH@Z  005b0d20 f   MapperFactory.obj
 0002:000d5e40       ?SetBank_CPU@Mapper254@@AAEXXZ 005b0e40 f   MapperFactory.obj
 0002:000d5f10       ?SetBank_PPU@Mapper254@@AAEXXZ 005b0f10 f   MapperFactory.obj
 0002:000d6220       ?SaveState@Mapper254@@UAEXPAE@Z 005b1220 f   MapperFactory.obj
 0002:000d6350       ?LoadState@Mapper254@@UAEXPAE@Z 005b1350 f   MapperFactory.obj
 0002:000d6480       ?Reset@Mapper255@@UAEXXZ   005b1480 f   MapperFactory.obj
 0002:000d6510       ?ReadLow@Mapper255@@QAEEGE@Z 005b1510 f   MapperFactory.obj
 0002:000d6580       ?WriteLow@Mapper255@@UAEXGE@Z 005b1580 f   MapperFactory.obj
 0002:000d65e0       ?Write@Mapper255@@UAEXGE@Z 005b15e0 f   MapperFactory.obj
 0002:000d6910       ?SaveState@Mapper255@@UAEXPAE@Z 005b1910 f   MapperFactory.obj
 0002:000d6990       ?LoadState@Mapper255@@UAEXPAE@Z 005b1990 f   MapperFactory.obj
 0002:000d6a10       ?Reset@Mapper099@@UAEXXZ   005b1a10 f   MapperFactory.obj
 0002:000d6ad0       ?ExRead@Mapper099@@UAEEG@Z 005b1ad0 f   MapperFactory.obj
 0002:000d6b30       ?ExWrite@Mapper099@@UAEXGE@Z 005b1b30 f   MapperFactory.obj
 0002:000d6c20       ?Reset@Mapper151@@UAEXXZ   005b1c20 f   MapperFactory.obj
 0002:000d6c90       ?Write@Mapper151@@UAEXGE@Z 005b1c90 f   MapperFactory.obj
 0002:000d6db0       ?Reset@Mapper012@@UAEXXZ   005b1db0 f   MapperFactory.obj
 0002:000d6ee0       ?WriteLow@Mapper012@@UAEXGE@Z 005b1ee0 f   MapperFactory.obj
 0002:000d6f90       ?ReadLow@Mapper012@@UAEEG@Z 005b1f90 f   MapperFactory.obj
 0002:000d6fd0       ?Write@Mapper012@@UAEXGE@Z 005b1fd0 f   MapperFactory.obj
 0002:000d7390       ?HSync@Mapper012@@UAEXH@Z  005b2390 f   MapperFactory.obj
 0002:000d74d0       ?SetBank_CPU@Mapper012@@AAEXXZ 005b24d0 f   MapperFactory.obj
 0002:000d75a0       ?SetBank_PPU@Mapper012@@AAEXXZ 005b25a0 f   MapperFactory.obj
 0002:000d7930       ?SaveState@Mapper012@@UAEXPAE@Z 005b2930 f   MapperFactory.obj
 0002:000d7a90       ?LoadState@Mapper012@@UAEXPAE@Z 005b2a90 f   MapperFactory.obj
 0002:000d7bf0       ?Reset@Mapper200@@UAEXXZ   005b2bf0 f   MapperFactory.obj
 0002:000d7c70       ?Write@Mapper200@@UAEXGE@Z 005b2c70 f   MapperFactory.obj
 0002:000d7d20       ?Reset@Mapper201@@UAEXXZ   005b2d20 f   MapperFactory.obj
 0002:000d7da0       ?Write@Mapper201@@UAEXGE@Z 005b2da0 f   MapperFactory.obj
 0002:000d7e30       ?Reset@Mapper202@@UAEXXZ   005b2e30 f   MapperFactory.obj
 0002:000d7eb0       ?ExWrite@Mapper202@@UAEXGE@Z 005b2eb0 f   MapperFactory.obj
 0002:000d7f20       ?WriteLow@Mapper202@@UAEXGE@Z 005b2f20 f   MapperFactory.obj
 0002:000d7f80       ?Write@Mapper202@@UAEXGE@Z 005b2f80 f   MapperFactory.obj
 0002:000d7fe0       ?WriteSub@Mapper202@@AAEXGE@Z 005b2fe0 f   MapperFactory.obj
 0002:000d80c0       ?Reset@Mapper061@@UAEXXZ   005b30c0 f   MapperFactory.obj
 0002:000d8130       ?Write@Mapper061@@UAEXGE@Z 005b3130 f   MapperFactory.obj
 0002:000d8290       ?Reset@Mapper027@@UAEXXZ   005b3290 f   MapperFactory.obj
 0002:000d83b0       ?Write@Mapper027@@UAEXGE@Z 005b33b0 f   MapperFactory.obj
 0002:000d8c50       ?HSync@Mapper027@@UAEXH@Z  005b3c50 f   MapperFactory.obj
 0002:000d8d00       ?SaveState@Mapper027@@UAEXPAE@Z 005b3d00 f   MapperFactory.obj
 0002:000d8db0       ?LoadState@Mapper027@@UAEXPAE@Z 005b3db0 f   MapperFactory.obj
 0002:000d8e60       ?Reset@Mapper164@@UAEXXZ   005b3e60 f   MapperFactory.obj
 0002:000d8ee0       ?WriteLow@Mapper164@@UAEXGE@Z 005b3ee0 f   MapperFactory.obj
 0002:000d8ff0       ?SetBank_CPU@Mapper164@@AAEXXZ 005b3ff0 f   MapperFactory.obj
 0002:000d91e0       ?SetBank_PPU@Mapper164@@AAEXXZ 005b41e0 f   MapperFactory.obj
 0002:000d9240       ?PPU_ExtLatchX@Mapper164@@UAEXH@Z 005b4240 f   MapperFactory.obj
 0002:000d9290       ?PPU_ExtLatch@Mapper164@@UAEXGAAE00@Z 005b4290 f   MapperFactory.obj
 0002:000d9480       ?GetPPUADDR@PPU@@QAEGXZ    005b4480 f i MapperFactory.obj
 0002:000d94c0       ?SaveState@Mapper164@@UAEXPAE@Z 005b44c0 f   MapperFactory.obj
 0002:000d9540       ?LoadState@Mapper164@@UAEXPAE@Z 005b4540 f   MapperFactory.obj
 0002:000d95c0       ?Reset@Mapper165@@UAEXXZ   005b45c0 f   MapperFactory.obj
 0002:000d96a0       ?Write@Mapper165@@UAEXGE@Z 005b46a0 f   MapperFactory.obj
 0002:000d9930       ?SetBank_CPU@Mapper165@@AAEXXZ 005b4930 f   MapperFactory.obj
 0002:000d99b0       ?SetBank_PPU@Mapper165@@AAEXXZ 005b49b0 f   MapperFactory.obj
 0002:000d9a70       ?SetBank_PPUSUB@Mapper165@@AAEXHH@Z 005b4a70 f   MapperFactory.obj
 0002:000d9b00       ?PPU_ChrLatch@Mapper165@@UAEXG@Z 005b4b00 f   MapperFactory.obj
 0002:000d9ba0       ?SaveState@Mapper165@@UAEXPAE@Z 005b4ba0 f   MapperFactory.obj
 0002:000d9c80       ?LoadState@Mapper165@@UAEXPAE@Z 005b4c80 f   MapperFactory.obj
 0002:000d9d60       ?Reset@Mapper167@@UAEXXZ   005b4d60 f   MapperFactory.obj
 0002:000d9e10       ?Write@Mapper167@@UAEXGE@Z 005b4e10 f   MapperFactory.obj
 0002:000d9e90       ?SetBank_CPU@Mapper167@@AAEXXZ 005b4e90 f   MapperFactory.obj
 0002:000da020       ?SetBank_PPU@Mapper167@@AAEXXZ 005b5020 f   MapperFactory.obj
 0002:000da080       ?SaveState@Mapper167@@UAEXPAE@Z 005b5080 f   MapperFactory.obj
 0002:000da100       ?LoadState@Mapper167@@UAEXPAE@Z 005b5100 f   MapperFactory.obj
 0002:000da180       ?Reset@map0_3208cn@@UAEXXZ 005b5180 f   MapperFactory.obj
 0002:000da1e0       ?Write@map0_3208cn@@UAEXGE@Z 005b51e0 f   MapperFactory.obj
 0002:000da470       ?Reset@GeniusMerioBros@@UAEXXZ 005b5470 f   MapperFactory.obj
 0002:000da4f0       ?ReadLow@GeniusMerioBros@@UAEEG@Z 005b54f0 f   MapperFactory.obj
 0002:000da5a0       ?WriteLow@GeniusMerioBros@@UAEXGE@Z 005b55a0 f   MapperFactory.obj
 0002:000da650       ?Reset@smb2j@@UAEXXZ       005b5650 f   MapperFactory.obj
 0002:000da6e0       ?Write@smb2j@@UAEXGE@Z     005b56e0 f   MapperFactory.obj
 0002:000da7a0       ?WriteLow@smb2j@@UAEXGE@Z  005b57a0 f   MapperFactory.obj
 0002:000da860       ?HSync@smb2j@@UAEXH@Z      005b5860 f   MapperFactory.obj
 0002:000da970       ?CreateMapper@@YAPAVMapper@@PAVNES@@HH@Z 005b5970 f   MapperFactory.obj
 0002:000df5b0       ??0Mapper000@@QAE@PAVNES@@@Z 005ba5b0 f i MapperFactory.obj
 0002:000df620       ??_EMapper000@@UAEPAXI@Z   005ba620 f i MapperFactory.obj
 0002:000df620       ??_GMapper000@@UAEPAXI@Z   005ba620 f i MapperFactory.obj
 0002:000df690       ??1Mapper000@@UAE@XZ       005ba690 f i MapperFactory.obj
 0002:000df6e0       ??0Mapper001@@QAE@PAVNES@@@Z 005ba6e0 f i MapperFactory.obj
 0002:000df750       ?IsStateSave@Mapper001@@UAEHXZ 005ba750 f i MapperFactory.obj
 0002:000df790       ??_GMapper001@@UAEPAXI@Z   005ba790 f i MapperFactory.obj
 0002:000df790       ??_EMapper001@@UAEPAXI@Z   005ba790 f i MapperFactory.obj
 0002:000df800       ??1Mapper001@@UAE@XZ       005ba800 f i MapperFactory.obj
 0002:000df850       ??0Mapper002@@QAE@PAVNES@@@Z 005ba850 f i MapperFactory.obj
 0002:000df8c0       ??_GMapper002@@UAEPAXI@Z   005ba8c0 f i MapperFactory.obj
 0002:000df8c0       ??_EMapper002@@UAEPAXI@Z   005ba8c0 f i MapperFactory.obj
 0002:000df930       ??1Mapper002@@UAE@XZ       005ba930 f i MapperFactory.obj
 0002:000df980       ??0Mapper003@@QAE@PAVNES@@@Z 005ba980 f i MapperFactory.obj
 0002:000df9f0       ??_EMapper003@@UAEPAXI@Z   005ba9f0 f i MapperFactory.obj
 0002:000df9f0       ??_GMapper003@@UAEPAXI@Z   005ba9f0 f i MapperFactory.obj
 0002:000dfa60       ??1Mapper003@@UAE@XZ       005baa60 f i MapperFactory.obj
 0002:000dfab0       ??0Mapper004@@QAE@PAVNES@@@Z 005baab0 f i MapperFactory.obj
 0002:000dfb20       ?IsStateSave@Mapper004@@UAEHXZ 005bab20 f i MapperFactory.obj
 0002:000dfb60       ??_EMapper004@@UAEPAXI@Z   005bab60 f i MapperFactory.obj
 0002:000dfb60       ??_GMapper004@@UAEPAXI@Z   005bab60 f i MapperFactory.obj
 0002:000dfbd0       ??1Mapper004@@UAE@XZ       005babd0 f i MapperFactory.obj
 0002:000dfc20       ??0Mapper005@@QAE@PAVNES@@@Z 005bac20 f i MapperFactory.obj
 0002:000dfc90       ?IsStateSave@Mapper005@@UAEHXZ 005bac90 f i MapperFactory.obj
 0002:000dfcd0       ??_EMapper005@@UAEPAXI@Z   005bacd0 f i MapperFactory.obj
 0002:000dfcd0       ??_GMapper005@@UAEPAXI@Z   005bacd0 f i MapperFactory.obj
 0002:000dfd40       ??1Mapper005@@UAE@XZ       005bad40 f i MapperFactory.obj
 0002:000dfd90       ??0Mapper006@@QAE@PAVNES@@@Z 005bad90 f i MapperFactory.obj
 0002:000dfe00       ?IsStateSave@Mapper006@@UAEHXZ 005bae00 f i MapperFactory.obj
 0002:000dfe40       ??_GMapper006@@UAEPAXI@Z   005bae40 f i MapperFactory.obj
 0002:000dfe40       ??_EMapper006@@UAEPAXI@Z   005bae40 f i MapperFactory.obj
 0002:000dfeb0       ??1Mapper006@@UAE@XZ       005baeb0 f i MapperFactory.obj
 0002:000dff00       ??0Mapper007@@QAE@PAVNES@@@Z 005baf00 f i MapperFactory.obj
 0002:000dff70       ??_EMapper007@@UAEPAXI@Z   005baf70 f i MapperFactory.obj
 0002:000dff70       ??_GMapper007@@UAEPAXI@Z   005baf70 f i MapperFactory.obj
 0002:000dffe0       ??1Mapper007@@UAE@XZ       005bafe0 f i MapperFactory.obj
 0002:000e0030       ??0Mapper008@@QAE@PAVNES@@@Z 005bb030 f i MapperFactory.obj
 0002:000e00a0       ??_GMapper008@@UAEPAXI@Z   005bb0a0 f i MapperFactory.obj
 0002:000e00a0       ??_EMapper008@@UAEPAXI@Z   005bb0a0 f i MapperFactory.obj
 0002:000e0110       ??1Mapper008@@UAE@XZ       005bb110 f i MapperFactory.obj
 0002:000e0160       ??0Mapper009@@QAE@PAVNES@@@Z 005bb160 f i MapperFactory.obj
 0002:000e01d0       ?IsStateSave@Mapper009@@UAEHXZ 005bb1d0 f i MapperFactory.obj
 0002:000e0210       ??_GMapper009@@UAEPAXI@Z   005bb210 f i MapperFactory.obj
 0002:000e0210       ??_EMapper009@@UAEPAXI@Z   005bb210 f i MapperFactory.obj
 0002:000e0280       ??1Mapper009@@UAE@XZ       005bb280 f i MapperFactory.obj
 0002:000e02d0       ??0Mapper010@@QAE@PAVNES@@@Z 005bb2d0 f i MapperFactory.obj
 0002:000e0340       ?IsStateSave@Mapper010@@UAEHXZ 005bb340 f i MapperFactory.obj
 0002:000e0380       ??_GMapper010@@UAEPAXI@Z   005bb380 f i MapperFactory.obj
 0002:000e0380       ??_EMapper010@@UAEPAXI@Z   005bb380 f i MapperFactory.obj
 0002:000e03f0       ??1Mapper010@@UAE@XZ       005bb3f0 f i MapperFactory.obj
 0002:000e0440       ??0Mapper011@@QAE@PAVNES@@@Z 005bb440 f i MapperFactory.obj
 0002:000e04b0       ??_EMapper011@@UAEPAXI@Z   005bb4b0 f i MapperFactory.obj
 0002:000e04b0       ??_GMapper011@@UAEPAXI@Z   005bb4b0 f i MapperFactory.obj
 0002:000e0520       ??1Mapper011@@UAE@XZ       005bb520 f i MapperFactory.obj
 0002:000e0570       ??0Mapper013@@QAE@PAVNES@@@Z 005bb570 f i MapperFactory.obj
 0002:000e05e0       ??_GMapper013@@UAEPAXI@Z   005bb5e0 f i MapperFactory.obj
 0002:000e05e0       ??_EMapper013@@UAEPAXI@Z   005bb5e0 f i MapperFactory.obj
 0002:000e0650       ??1Mapper013@@UAE@XZ       005bb650 f i MapperFactory.obj
 0002:000e06a0       ??0Mapper015@@QAE@PAVNES@@@Z 005bb6a0 f i MapperFactory.obj
 0002:000e0710       ??_GMapper015@@UAEPAXI@Z   005bb710 f i MapperFactory.obj
 0002:000e0710       ??_EMapper015@@UAEPAXI@Z   005bb710 f i MapperFactory.obj
 0002:000e0780       ??1Mapper015@@UAE@XZ       005bb780 f i MapperFactory.obj
 0002:000e07d0       ??0Mapper016@@QAE@PAVNES@@@Z 005bb7d0 f i MapperFactory.obj
 0002:000e08a0       ??0X24C01@@QAE@XZ          005bb8a0 f i MapperFactory.obj
 0002:000e0930       ??0X24C02@@QAE@XZ          005bb930 f i MapperFactory.obj
 0002:000e09d0       ?IsStateSave@Mapper016@@UAEHXZ 005bb9d0 f i MapperFactory.obj
 0002:000e0a10       ??_EMapper016@@UAEPAXI@Z   005bba10 f i MapperFactory.obj
 0002:000e0a10       ??_GMapper016@@UAEPAXI@Z   005bba10 f i MapperFactory.obj
 0002:000e0a80       ??1Mapper016@@UAE@XZ       005bba80 f i MapperFactory.obj
 0002:000e0ad0       ??0Mapper017@@QAE@PAVNES@@@Z 005bbad0 f i MapperFactory.obj
 0002:000e0b40       ?IsStateSave@Mapper017@@UAEHXZ 005bbb40 f i MapperFactory.obj
 0002:000e0b80       ??_EMapper017@@UAEPAXI@Z   005bbb80 f i MapperFactory.obj
 0002:000e0b80       ??_GMapper017@@UAEPAXI@Z   005bbb80 f i MapperFactory.obj
 0002:000e0bf0       ??1Mapper017@@UAE@XZ       005bbbf0 f i MapperFactory.obj
 0002:000e0c40       ??0Mapper018@@QAE@PAVNES@@@Z 005bbc40 f i MapperFactory.obj
 0002:000e0cb0       ?IsStateSave@Mapper018@@UAEHXZ 005bbcb0 f i MapperFactory.obj
 0002:000e0cf0       ??_EMapper018@@UAEPAXI@Z   005bbcf0 f i MapperFactory.obj
 0002:000e0cf0       ??_GMapper018@@UAEPAXI@Z   005bbcf0 f i MapperFactory.obj
 0002:000e0d60       ??1Mapper018@@UAE@XZ       005bbd60 f i MapperFactory.obj
 0002:000e0db0       ??0Mapper019@@QAE@PAVNES@@@Z 005bbdb0 f i MapperFactory.obj
 0002:000e0e20       ?IsStateSave@Mapper019@@UAEHXZ 005bbe20 f i MapperFactory.obj
 0002:000e0e60       ??_GMapper019@@UAEPAXI@Z   005bbe60 f i MapperFactory.obj
 0002:000e0e60       ??_EMapper019@@UAEPAXI@Z   005bbe60 f i MapperFactory.obj
 0002:000e0ed0       ??1Mapper019@@UAE@XZ       005bbed0 f i MapperFactory.obj
 0002:000e0f20       ??0Mapper020@@QAE@PAVNES@@@Z 005bbf20 f i MapperFactory.obj
 0002:000e0f90       ?IsStateSave@Mapper020@@UAEHXZ 005bbf90 f i MapperFactory.obj
 0002:000e0fd0       ??_GMapper020@@UAEPAXI@Z   005bbfd0 f i MapperFactory.obj
 0002:000e0fd0       ??_EMapper020@@UAEPAXI@Z   005bbfd0 f i MapperFactory.obj
 0002:000e1040       ??1Mapper020@@UAE@XZ       005bc040 f i MapperFactory.obj
 0002:000e1090       ??0Mapper021@@QAE@PAVNES@@@Z 005bc090 f i MapperFactory.obj
 0002:000e1100       ?IsStateSave@Mapper021@@UAEHXZ 005bc100 f i MapperFactory.obj
 0002:000e1140       ??_EMapper021@@UAEPAXI@Z   005bc140 f i MapperFactory.obj
 0002:000e1140       ??_GMapper021@@UAEPAXI@Z   005bc140 f i MapperFactory.obj
 0002:000e11b0       ??1Mapper021@@UAE@XZ       005bc1b0 f i MapperFactory.obj
 0002:000e1200       ??0Mapper022@@QAE@PAVNES@@@Z 005bc200 f i MapperFactory.obj
 0002:000e1270       ??_GMapper022@@UAEPAXI@Z   005bc270 f i MapperFactory.obj
 0002:000e1270       ??_EMapper022@@UAEPAXI@Z   005bc270 f i MapperFactory.obj
 0002:000e12e0       ??1Mapper022@@UAE@XZ       005bc2e0 f i MapperFactory.obj
 0002:000e1330       ??0Mapper023@@QAE@PAVNES@@@Z 005bc330 f i MapperFactory.obj
 0002:000e13a0       ?IsStateSave@Mapper023@@UAEHXZ 005bc3a0 f i MapperFactory.obj
 0002:000e13e0       ??_GMapper023@@UAEPAXI@Z   005bc3e0 f i MapperFactory.obj
 0002:000e13e0       ??_EMapper023@@UAEPAXI@Z   005bc3e0 f i MapperFactory.obj
 0002:000e1450       ??1Mapper023@@UAE@XZ       005bc450 f i MapperFactory.obj
 0002:000e14a0       ??0Mapper024@@QAE@PAVNES@@@Z 005bc4a0 f i MapperFactory.obj
 0002:000e1510       ?IsStateSave@Mapper024@@UAEHXZ 005bc510 f i MapperFactory.obj
 0002:000e1550       ??_EMapper024@@UAEPAXI@Z   005bc550 f i MapperFactory.obj
 0002:000e1550       ??_GMapper024@@UAEPAXI@Z   005bc550 f i MapperFactory.obj
 0002:000e15c0       ??1Mapper024@@UAE@XZ       005bc5c0 f i MapperFactory.obj
 0002:000e1610       ??0Mapper025@@QAE@PAVNES@@@Z 005bc610 f i MapperFactory.obj
 0002:000e1680       ?IsStateSave@Mapper025@@UAEHXZ 005bc680 f i MapperFactory.obj
 0002:000e16c0       ??_EMapper025@@UAEPAXI@Z   005bc6c0 f i MapperFactory.obj
 0002:000e16c0       ??_GMapper025@@UAEPAXI@Z   005bc6c0 f i MapperFactory.obj
 0002:000e1730       ??1Mapper025@@UAE@XZ       005bc730 f i MapperFactory.obj
 0002:000e1780       ??0Mapper026@@QAE@PAVNES@@@Z 005bc780 f i MapperFactory.obj
 0002:000e17f0       ?IsStateSave@Mapper026@@UAEHXZ 005bc7f0 f i MapperFactory.obj
 0002:000e1830       ??_EMapper026@@UAEPAXI@Z   005bc830 f i MapperFactory.obj
 0002:000e1830       ??_GMapper026@@UAEPAXI@Z   005bc830 f i MapperFactory.obj
 0002:000e18a0       ??1Mapper026@@UAE@XZ       005bc8a0 f i MapperFactory.obj
 0002:000e18f0       ??0Mapper032@@QAE@PAVNES@@@Z 005bc8f0 f i MapperFactory.obj
 0002:000e1960       ?IsStateSave@Mapper032@@UAEHXZ 005bc960 f i MapperFactory.obj
 0002:000e19a0       ??_EMapper032@@UAEPAXI@Z   005bc9a0 f i MapperFactory.obj
 0002:000e19a0       ??_GMapper032@@UAEPAXI@Z   005bc9a0 f i MapperFactory.obj
 0002:000e1a10       ??1Mapper032@@UAE@XZ       005bca10 f i MapperFactory.obj
 0002:000e1a60       ??0Mapper033@@QAE@PAVNES@@@Z 005bca60 f i MapperFactory.obj
 0002:000e1ad0       ?IsStateSave@Mapper033@@UAEHXZ 005bcad0 f i MapperFactory.obj
 0002:000e1b10       ??_EMapper033@@UAEPAXI@Z   005bcb10 f i MapperFactory.obj
 0002:000e1b10       ??_GMapper033@@UAEPAXI@Z   005bcb10 f i MapperFactory.obj
 0002:000e1b80       ??1Mapper033@@UAE@XZ       005bcb80 f i MapperFactory.obj
 0002:000e1bd0       ??0Mapper034@@QAE@PAVNES@@@Z 005bcbd0 f i MapperFactory.obj
 0002:000e1c40       ??_GMapper034@@UAEPAXI@Z   005bcc40 f i MapperFactory.obj
 0002:000e1c40       ??_EMapper034@@UAEPAXI@Z   005bcc40 f i MapperFactory.obj
 0002:000e1cb0       ??1Mapper034@@UAE@XZ       005bccb0 f i MapperFactory.obj
 0002:000e1d00       ??0Mapper040@@QAE@PAVNES@@@Z 005bcd00 f i MapperFactory.obj
 0002:000e1d70       ?IsStateSave@Mapper040@@UAEHXZ 005bcd70 f i MapperFactory.obj
 0002:000e1db0       ??_GMapper040@@UAEPAXI@Z   005bcdb0 f i MapperFactory.obj
 0002:000e1db0       ??_EMapper040@@UAEPAXI@Z   005bcdb0 f i MapperFactory.obj
 0002:000e1e20       ??1Mapper040@@UAE@XZ       005bce20 f i MapperFactory.obj
 0002:000e1e70       ??0Mapper041@@QAE@PAVNES@@@Z 005bce70 f i MapperFactory.obj
 0002:000e1ee0       ?IsStateSave@Mapper041@@UAEHXZ 005bcee0 f i MapperFactory.obj
 0002:000e1f20       ??_GMapper041@@UAEPAXI@Z   005bcf20 f i MapperFactory.obj
 0002:000e1f20       ??_EMapper041@@UAEPAXI@Z   005bcf20 f i MapperFactory.obj
 0002:000e1f90       ??1Mapper041@@UAE@XZ       005bcf90 f i MapperFactory.obj
 0002:000e1fe0       ??0Mapper042@@QAE@PAVNES@@@Z 005bcfe0 f i MapperFactory.obj
 0002:000e2050       ?IsStateSave@Mapper042@@UAEHXZ 005bd050 f i MapperFactory.obj
 0002:000e2090       ??_EMapper042@@UAEPAXI@Z   005bd090 f i MapperFactory.obj
 0002:000e2090       ??_GMapper042@@UAEPAXI@Z   005bd090 f i MapperFactory.obj
 0002:000e2100       ??1Mapper042@@UAE@XZ       005bd100 f i MapperFactory.obj
 0002:000e2150       ??0Mapper043@@QAE@PAVNES@@@Z 005bd150 f i MapperFactory.obj
 0002:000e21c0       ?IsStateSave@Mapper043@@UAEHXZ 005bd1c0 f i MapperFactory.obj
 0002:000e2200       ??_GMapper043@@UAEPAXI@Z   005bd200 f i MapperFactory.obj
 0002:000e2200       ??_EMapper043@@UAEPAXI@Z   005bd200 f i MapperFactory.obj
 0002:000e2270       ??1Mapper043@@UAE@XZ       005bd270 f i MapperFactory.obj
 0002:000e22c0       ??0Mapper048@@QAE@PAVNES@@@Z 005bd2c0 f i MapperFactory.obj
 0002:000e2330       ?IsStateSave@Mapper048@@UAEHXZ 005bd330 f i MapperFactory.obj
 0002:000e2370       ??_GMapper048@@UAEPAXI@Z   005bd370 f i MapperFactory.obj
 0002:000e2370       ??_EMapper048@@UAEPAXI@Z   005bd370 f i MapperFactory.obj
 0002:000e23e0       ??1Mapper048@@UAE@XZ       005bd3e0 f i MapperFactory.obj
 0002:000e2430       ??0Mapper064@@QAE@PAVNES@@@Z 005bd430 f i MapperFactory.obj
 0002:000e24a0       ?IsStateSave@Mapper064@@UAEHXZ 005bd4a0 f i MapperFactory.obj
 0002:000e24e0       ??_GMapper064@@UAEPAXI@Z   005bd4e0 f i MapperFactory.obj
 0002:000e24e0       ??_EMapper064@@UAEPAXI@Z   005bd4e0 f i MapperFactory.obj
 0002:000e2550       ??1Mapper064@@UAE@XZ       005bd550 f i MapperFactory.obj
 0002:000e25a0       ??0Mapper065@@QAE@PAVNES@@@Z 005bd5a0 f i MapperFactory.obj
 0002:000e2610       ?IsStateSave@Mapper065@@UAEHXZ 005bd610 f i MapperFactory.obj
 0002:000e2650       ??_GMapper065@@UAEPAXI@Z   005bd650 f i MapperFactory.obj
 0002:000e2650       ??_EMapper065@@UAEPAXI@Z   005bd650 f i MapperFactory.obj
 0002:000e26c0       ??1Mapper065@@UAE@XZ       005bd6c0 f i MapperFactory.obj
 0002:000e2710       ??0Mapper066@@QAE@PAVNES@@@Z 005bd710 f i MapperFactory.obj
 0002:000e2780       ??_EMapper066@@UAEPAXI@Z   005bd780 f i MapperFactory.obj
 0002:000e2780       ??_GMapper066@@UAEPAXI@Z   005bd780 f i MapperFactory.obj
 0002:000e27f0       ??1Mapper066@@UAE@XZ       005bd7f0 f i MapperFactory.obj
 0002:000e2840       ??0Mapper067@@QAE@PAVNES@@@Z 005bd840 f i MapperFactory.obj
 0002:000e28b0       ?IsStateSave@Mapper067@@UAEHXZ 005bd8b0 f i MapperFactory.obj
 0002:000e28f0       ??_EMapper067@@UAEPAXI@Z   005bd8f0 f i MapperFactory.obj
 0002:000e28f0       ??_GMapper067@@UAEPAXI@Z   005bd8f0 f i MapperFactory.obj
 0002:000e2960       ??1Mapper067@@UAE@XZ       005bd960 f i MapperFactory.obj
 0002:000e29b0       ??0Mapper068@@QAE@PAVNES@@@Z 005bd9b0 f i MapperFactory.obj
 0002:000e2a20       ?IsStateSave@Mapper068@@UAEHXZ 005bda20 f i MapperFactory.obj
 0002:000e2a60       ??_GMapper068@@UAEPAXI@Z   005bda60 f i MapperFactory.obj
 0002:000e2a60       ??_EMapper068@@UAEPAXI@Z   005bda60 f i MapperFactory.obj
 0002:000e2ad0       ??1Mapper068@@UAE@XZ       005bdad0 f i MapperFactory.obj
 0002:000e2b20       ??0Mapper069@@QAE@PAVNES@@@Z 005bdb20 f i MapperFactory.obj
 0002:000e2b90       ?IsStateSave@Mapper069@@UAEHXZ 005bdb90 f i MapperFactory.obj
 0002:000e2bd0       ??_EMapper069@@UAEPAXI@Z   005bdbd0 f i MapperFactory.obj
 0002:000e2bd0       ??_GMapper069@@UAEPAXI@Z   005bdbd0 f i MapperFactory.obj
 0002:000e2c40       ??1Mapper069@@UAE@XZ       005bdc40 f i MapperFactory.obj
 0002:000e2c90       ??0Mapper070@@QAE@PAVNES@@@Z 005bdc90 f i MapperFactory.obj
 0002:000e2d00       ??_GMapper070@@UAEPAXI@Z   005bdd00 f i MapperFactory.obj
 0002:000e2d00       ??_EMapper070@@UAEPAXI@Z   005bdd00 f i MapperFactory.obj
 0002:000e2d70       ??1Mapper070@@UAE@XZ       005bdd70 f i MapperFactory.obj
 0002:000e2dc0       ??0Mapper071@@QAE@PAVNES@@@Z 005bddc0 f i MapperFactory.obj
 0002:000e2e30       ??_EMapper071@@UAEPAXI@Z   005bde30 f i MapperFactory.obj
 0002:000e2e30       ??_GMapper071@@UAEPAXI@Z   005bde30 f i MapperFactory.obj
 0002:000e2ea0       ??1Mapper071@@UAE@XZ       005bdea0 f i MapperFactory.obj
 0002:000e2ef0       ??0Mapper072@@QAE@PAVNES@@@Z 005bdef0 f i MapperFactory.obj
 0002:000e2f60       ??_GMapper072@@UAEPAXI@Z   005bdf60 f i MapperFactory.obj
 0002:000e2f60       ??_EMapper072@@UAEPAXI@Z   005bdf60 f i MapperFactory.obj
 0002:000e2fd0       ??1Mapper072@@UAE@XZ       005bdfd0 f i MapperFactory.obj
 0002:000e3020       ??0Mapper073@@QAE@PAVNES@@@Z 005be020 f i MapperFactory.obj
 0002:000e3090       ?IsStateSave@Mapper073@@UAEHXZ 005be090 f i MapperFactory.obj
 0002:000e30d0       ??_GMapper073@@UAEPAXI@Z   005be0d0 f i MapperFactory.obj
 0002:000e30d0       ??_EMapper073@@UAEPAXI@Z   005be0d0 f i MapperFactory.obj
 0002:000e3140       ??1Mapper073@@UAE@XZ       005be140 f i MapperFactory.obj
 0002:000e3190       ??0Mapper075@@QAE@PAVNES@@@Z 005be190 f i MapperFactory.obj
 0002:000e3200       ?IsStateSave@Mapper075@@UAEHXZ 005be200 f i MapperFactory.obj
 0002:000e3240       ??_GMapper075@@UAEPAXI@Z   005be240 f i MapperFactory.obj
 0002:000e3240       ??_EMapper075@@UAEPAXI@Z   005be240 f i MapperFactory.obj
 0002:000e32b0       ??1Mapper075@@UAE@XZ       005be2b0 f i MapperFactory.obj
 0002:000e3300       ??0Mapper076@@QAE@PAVNES@@@Z 005be300 f i MapperFactory.obj
 0002:000e3370       ?IsStateSave@Mapper076@@UAEHXZ 005be370 f i MapperFactory.obj
 0002:000e33b0       ??_EMapper076@@UAEPAXI@Z   005be3b0 f i MapperFactory.obj
 0002:000e33b0       ??_GMapper076@@UAEPAXI@Z   005be3b0 f i MapperFactory.obj
 0002:000e3420       ??1Mapper076@@UAE@XZ       005be420 f i MapperFactory.obj
 0002:000e3470       ??0Mapper077@@QAE@PAVNES@@@Z 005be470 f i MapperFactory.obj
 0002:000e34e0       ??_EMapper077@@UAEPAXI@Z   005be4e0 f i MapperFactory.obj
 0002:000e34e0       ??_GMapper077@@UAEPAXI@Z   005be4e0 f i MapperFactory.obj
 0002:000e3550       ??1Mapper077@@UAE@XZ       005be550 f i MapperFactory.obj
 0002:000e35a0       ??0Mapper078@@QAE@PAVNES@@@Z 005be5a0 f i MapperFactory.obj
 0002:000e3610       ??_EMapper078@@UAEPAXI@Z   005be610 f i MapperFactory.obj
 0002:000e3610       ??_GMapper078@@UAEPAXI@Z   005be610 f i MapperFactory.obj
 0002:000e3680       ??1Mapper078@@UAE@XZ       005be680 f i MapperFactory.obj
 0002:000e36d0       ??0Mapper079@@QAE@PAVNES@@@Z 005be6d0 f i MapperFactory.obj
 0002:000e3740       ??_GMapper079@@UAEPAXI@Z   005be740 f i MapperFactory.obj
 0002:000e3740       ??_EMapper079@@UAEPAXI@Z   005be740 f i MapperFactory.obj
 0002:000e37b0       ??1Mapper079@@UAE@XZ       005be7b0 f i MapperFactory.obj
 0002:000e3800       ??0Mapper080@@QAE@PAVNES@@@Z 005be800 f i MapperFactory.obj
 0002:000e3870       ??_GMapper080@@UAEPAXI@Z   005be870 f i MapperFactory.obj
 0002:000e3870       ??_EMapper080@@UAEPAXI@Z   005be870 f i MapperFactory.obj
 0002:000e38e0       ??1Mapper080@@UAE@XZ       005be8e0 f i MapperFactory.obj
 0002:000e3930       ??0Mapper082@@QAE@PAVNES@@@Z 005be930 f i MapperFactory.obj
 0002:000e39a0       ?IsStateSave@Mapper082@@UAEHXZ 005be9a0 f i MapperFactory.obj
 0002:000e39e0       ??_GMapper082@@UAEPAXI@Z   005be9e0 f i MapperFactory.obj
 0002:000e39e0       ??_EMapper082@@UAEPAXI@Z   005be9e0 f i MapperFactory.obj
 0002:000e3a50       ??1Mapper082@@UAE@XZ       005bea50 f i MapperFactory.obj
 0002:000e3aa0       ??0Mapper083@@QAE@PAVNES@@@Z 005beaa0 f i MapperFactory.obj
 0002:000e3b10       ?IsStateSave@Mapper083@@UAEHXZ 005beb10 f i MapperFactory.obj
 0002:000e3b50       ??_GMapper083@@UAEPAXI@Z   005beb50 f i MapperFactory.obj
 0002:000e3b50       ??_EMapper083@@UAEPAXI@Z   005beb50 f i MapperFactory.obj
 0002:000e3bc0       ??1Mapper083@@UAE@XZ       005bebc0 f i MapperFactory.obj
 0002:000e3c10       ??0Mapper085@@QAE@PAVNES@@@Z 005bec10 f i MapperFactory.obj
 0002:000e3c80       ?IsStateSave@Mapper085@@UAEHXZ 005bec80 f i MapperFactory.obj
 0002:000e3cc0       ??_EMapper085@@UAEPAXI@Z   005becc0 f i MapperFactory.obj
 0002:000e3cc0       ??_GMapper085@@UAEPAXI@Z   005becc0 f i MapperFactory.obj
 0002:000e3d30       ??1Mapper085@@UAE@XZ       005bed30 f i MapperFactory.obj
 0002:000e3d80       ??0Mapper086@@QAE@PAVNES@@@Z 005bed80 f i MapperFactory.obj
 0002:000e3df0       ??_GMapper086@@UAEPAXI@Z   005bedf0 f i MapperFactory.obj
 0002:000e3df0       ??_EMapper086@@UAEPAXI@Z   005bedf0 f i MapperFactory.obj
 0002:000e3e60       ??1Mapper086@@UAE@XZ       005bee60 f i MapperFactory.obj
 0002:000e3eb0       ??0Mapper087@@QAE@PAVNES@@@Z 005beeb0 f i MapperFactory.obj
 0002:000e3f20       ??_GMapper087@@UAEPAXI@Z   005bef20 f i MapperFactory.obj
 0002:000e3f20       ??_EMapper087@@UAEPAXI@Z   005bef20 f i MapperFactory.obj
 0002:000e3f90       ??1Mapper087@@UAE@XZ       005bef90 f i MapperFactory.obj
 0002:000e3fe0       ??0Mapper088@@QAE@PAVNES@@@Z 005befe0 f i MapperFactory.obj
 0002:000e4050       ?IsStateSave@Mapper088@@UAEHXZ 005bf050 f i MapperFactory.obj
 0002:000e4090       ??_GMapper088@@UAEPAXI@Z   005bf090 f i MapperFactory.obj
 0002:000e4090       ??_EMapper088@@UAEPAXI@Z   005bf090 f i MapperFactory.obj
 0002:000e4100       ??1Mapper088@@UAE@XZ       005bf100 f i MapperFactory.obj
 0002:000e4150       ??0Mapper089@@QAE@PAVNES@@@Z 005bf150 f i MapperFactory.obj
 0002:000e41c0       ??_GMapper089@@UAEPAXI@Z   005bf1c0 f i MapperFactory.obj
 0002:000e41c0       ??_EMapper089@@UAEPAXI@Z   005bf1c0 f i MapperFactory.obj
 0002:000e4230       ??1Mapper089@@UAE@XZ       005bf230 f i MapperFactory.obj
 0002:000e4280       ??0Mapper090@@QAE@PAVNES@@@Z 005bf280 f i MapperFactory.obj
 0002:000e42f0       ?IsStateSave@Mapper090@@UAEHXZ 005bf2f0 f i MapperFactory.obj
 0002:000e4330       ??_GMapper090@@UAEPAXI@Z   005bf330 f i MapperFactory.obj
 0002:000e4330       ??_EMapper090@@UAEPAXI@Z   005bf330 f i MapperFactory.obj
 0002:000e43a0       ??1Mapper090@@UAE@XZ       005bf3a0 f i MapperFactory.obj
 0002:000e43f0       ??0Mapper091@@QAE@PAVNES@@@Z 005bf3f0 f i MapperFactory.obj
 0002:000e4460       ?IsStateSave@Mapper091@@UAEHXZ 005bf460 f i MapperFactory.obj
 0002:000e44a0       ??_EMapper091@@UAEPAXI@Z   005bf4a0 f i MapperFactory.obj
 0002:000e44a0       ??_GMapper091@@UAEPAXI@Z   005bf4a0 f i MapperFactory.obj
 0002:000e4510       ??1Mapper091@@UAE@XZ       005bf510 f i MapperFactory.obj
 0002:000e4560       ??0Mapper092@@QAE@PAVNES@@@Z 005bf560 f i MapperFactory.obj
 0002:000e45d0       ??_GMapper092@@UAEPAXI@Z   005bf5d0 f i MapperFactory.obj
 0002:000e45d0       ??_EMapper092@@UAEPAXI@Z   005bf5d0 f i MapperFactory.obj
 0002:000e4640       ??1Mapper092@@UAE@XZ       005bf640 f i MapperFactory.obj
 0002:000e4690       ??0Mapper093@@QAE@PAVNES@@@Z 005bf690 f i MapperFactory.obj
 0002:000e4700       ??_EMapper093@@UAEPAXI@Z   005bf700 f i MapperFactory.obj
 0002:000e4700       ??_GMapper093@@UAEPAXI@Z   005bf700 f i MapperFactory.obj
 0002:000e4770       ??1Mapper093@@UAE@XZ       005bf770 f i MapperFactory.obj
 0002:000e47c0       ??0Mapper094@@QAE@PAVNES@@@Z 005bf7c0 f i MapperFactory.obj
 0002:000e4830       ??_GMapper094@@UAEPAXI@Z   005bf830 f i MapperFactory.obj
 0002:000e4830       ??_EMapper094@@UAEPAXI@Z   005bf830 f i MapperFactory.obj
 0002:000e48a0       ??1Mapper094@@UAE@XZ       005bf8a0 f i MapperFactory.obj
 0002:000e48f0       ??0Mapper095@@QAE@PAVNES@@@Z 005bf8f0 f i MapperFactory.obj
 0002:000e4960       ?IsStateSave@Mapper095@@UAEHXZ 005bf960 f i MapperFactory.obj
 0002:000e49a0       ??_EMapper095@@UAEPAXI@Z   005bf9a0 f i MapperFactory.obj
 0002:000e49a0       ??_GMapper095@@UAEPAXI@Z   005bf9a0 f i MapperFactory.obj
 0002:000e4a10       ??1Mapper095@@UAE@XZ       005bfa10 f i MapperFactory.obj
 0002:000e4a60       ??0Mapper096@@QAE@PAVNES@@@Z 005bfa60 f i MapperFactory.obj
 0002:000e4ad0       ?IsStateSave@Mapper096@@UAEHXZ 005bfad0 f i MapperFactory.obj
 0002:000e4b10       ??_EMapper096@@UAEPAXI@Z   005bfb10 f i MapperFactory.obj
 0002:000e4b10       ??_GMapper096@@UAEPAXI@Z   005bfb10 f i MapperFactory.obj
 0002:000e4b80       ??1Mapper096@@UAE@XZ       005bfb80 f i MapperFactory.obj
 0002:000e4bd0       ??0Mapper097@@QAE@PAVNES@@@Z 005bfbd0 f i MapperFactory.obj
 0002:000e4c40       ??_EMapper097@@UAEPAXI@Z   005bfc40 f i MapperFactory.obj
 0002:000e4c40       ??_GMapper097@@UAEPAXI@Z   005bfc40 f i MapperFactory.obj
 0002:000e4cb0       ??1Mapper097@@UAE@XZ       005bfcb0 f i MapperFactory.obj
 0002:000e4d00       ??0Mapper100@@QAE@PAVNES@@@Z 005bfd00 f i MapperFactory.obj
 0002:000e4d70       ?IsStateSave@Mapper100@@UAEHXZ 005bfd70 f i MapperFactory.obj
 0002:000e4db0       ??_GMapper100@@UAEPAXI@Z   005bfdb0 f i MapperFactory.obj
 0002:000e4db0       ??_EMapper100@@UAEPAXI@Z   005bfdb0 f i MapperFactory.obj
 0002:000e4e20       ??1Mapper100@@UAE@XZ       005bfe20 f i MapperFactory.obj
 0002:000e4e70       ??0Mapper101@@QAE@PAVNES@@@Z 005bfe70 f i MapperFactory.obj
 0002:000e4ee0       ??_EMapper101@@UAEPAXI@Z   005bfee0 f i MapperFactory.obj
 0002:000e4ee0       ??_GMapper101@@UAEPAXI@Z   005bfee0 f i MapperFactory.obj
 0002:000e4f50       ??1Mapper101@@UAE@XZ       005bff50 f i MapperFactory.obj
 0002:000e4fa0       ??0Mapper107@@QAE@PAVNES@@@Z 005bffa0 f i MapperFactory.obj
 0002:000e5010       ??_EMapper107@@UAEPAXI@Z   005c0010 f i MapperFactory.obj
 0002:000e5010       ??_GMapper107@@UAEPAXI@Z   005c0010 f i MapperFactory.obj
 0002:000e5080       ??1Mapper107@@UAE@XZ       005c0080 f i MapperFactory.obj
 0002:000e50d0       ??0Mapper113@@QAE@PAVNES@@@Z 005c00d0 f i MapperFactory.obj
 0002:000e5140       ??_EMapper113@@UAEPAXI@Z   005c0140 f i MapperFactory.obj
 0002:000e5140       ??_GMapper113@@UAEPAXI@Z   005c0140 f i MapperFactory.obj
 0002:000e51b0       ??1Mapper113@@UAE@XZ       005c01b0 f i MapperFactory.obj
 0002:000e5200       ??0Mapper118@@QAE@PAVNES@@@Z 005c0200 f i MapperFactory.obj
 0002:000e5270       ?IsStateSave@Mapper118@@UAEHXZ 005c0270 f i MapperFactory.obj
 0002:000e52b0       ??_EMapper118@@UAEPAXI@Z   005c02b0 f i MapperFactory.obj
 0002:000e52b0       ??_GMapper118@@UAEPAXI@Z   005c02b0 f i MapperFactory.obj
 0002:000e5320       ??1Mapper118@@UAE@XZ       005c0320 f i MapperFactory.obj
 0002:000e5370       ??0Mapper119@@QAE@PAVNES@@@Z 005c0370 f i MapperFactory.obj
 0002:000e53e0       ?IsStateSave@Mapper119@@UAEHXZ 005c03e0 f i MapperFactory.obj
 0002:000e5420       ??_EMapper119@@UAEPAXI@Z   005c0420 f i MapperFactory.obj
 0002:000e5420       ??_GMapper119@@UAEPAXI@Z   005c0420 f i MapperFactory.obj
 0002:000e5490       ??1Mapper119@@UAE@XZ       005c0490 f i MapperFactory.obj
 0002:000e54e0       ??0Mapper122@@QAE@PAVNES@@@Z 005c04e0 f i MapperFactory.obj
 0002:000e5550       ??_EMapper122@@UAEPAXI@Z   005c0550 f i MapperFactory.obj
 0002:000e5550       ??_GMapper122@@UAEPAXI@Z   005c0550 f i MapperFactory.obj
 0002:000e55c0       ??1Mapper122@@UAE@XZ       005c05c0 f i MapperFactory.obj
 0002:000e5610       ??0Mapper180@@QAE@PAVNES@@@Z 005c0610 f i MapperFactory.obj
 0002:000e5680       ??_EMapper180@@UAEPAXI@Z   005c0680 f i MapperFactory.obj
 0002:000e5680       ??_GMapper180@@UAEPAXI@Z   005c0680 f i MapperFactory.obj
 0002:000e56f0       ??1Mapper180@@UAE@XZ       005c06f0 f i MapperFactory.obj
 0002:000e5740       ??0Mapper181@@QAE@PAVNES@@@Z 005c0740 f i MapperFactory.obj
 0002:000e57b0       ??_GMapper181@@UAEPAXI@Z   005c07b0 f i MapperFactory.obj
 0002:000e57b0       ??_EMapper181@@UAEPAXI@Z   005c07b0 f i MapperFactory.obj
 0002:000e5820       ??1Mapper181@@UAE@XZ       005c0820 f i MapperFactory.obj
 0002:000e5870       ??0Mapper185@@QAE@PAVNES@@@Z 005c0870 f i MapperFactory.obj
 0002:000e58e0       ??_GMapper185@@UAEPAXI@Z   005c08e0 f i MapperFactory.obj
 0002:000e58e0       ??_EMapper185@@UAEPAXI@Z   005c08e0 f i MapperFactory.obj
 0002:000e5950       ??1Mapper185@@UAE@XZ       005c0950 f i MapperFactory.obj
 0002:000e59a0       ??0Mapper187@@QAE@PAVNES@@@Z 005c09a0 f i MapperFactory.obj
 0002:000e5a10       ?IsStateSave@Mapper187@@UAEHXZ 005c0a10 f i MapperFactory.obj
 0002:000e5a50       ??_GMapper187@@UAEPAXI@Z   005c0a50 f i MapperFactory.obj
 0002:000e5a50       ??_EMapper187@@UAEPAXI@Z   005c0a50 f i MapperFactory.obj
 0002:000e5ac0       ??1Mapper187@@UAE@XZ       005c0ac0 f i MapperFactory.obj
 0002:000e5b10       ??0Mapper188@@QAE@PAVNES@@@Z 005c0b10 f i MapperFactory.obj
 0002:000e5b80       ??_GMapper188@@UAEPAXI@Z   005c0b80 f i MapperFactory.obj
 0002:000e5b80       ??_EMapper188@@UAEPAXI@Z   005c0b80 f i MapperFactory.obj
 0002:000e5bf0       ??1Mapper188@@UAE@XZ       005c0bf0 f i MapperFactory.obj
 0002:000e5c40       ??0Mapper189@@QAE@PAVNES@@@Z 005c0c40 f i MapperFactory.obj
 0002:000e5cb0       ?IsStateSave@Mapper189@@UAEHXZ 005c0cb0 f i MapperFactory.obj
 0002:000e5cf0       ??_GMapper189@@UAEPAXI@Z   005c0cf0 f i MapperFactory.obj
 0002:000e5cf0       ??_EMapper189@@UAEPAXI@Z   005c0cf0 f i MapperFactory.obj
 0002:000e5d60       ??1Mapper189@@UAE@XZ       005c0d60 f i MapperFactory.obj
 0002:000e5db0       ??0Mapper243@@QAE@PAVNES@@@Z 005c0db0 f i MapperFactory.obj
 0002:000e5e20       ?IsStateSave@Mapper243@@UAEHXZ 005c0e20 f i MapperFactory.obj
 0002:000e5e60       ??_EMapper243@@UAEPAXI@Z   005c0e60 f i MapperFactory.obj
 0002:000e5e60       ??_GMapper243@@UAEPAXI@Z   005c0e60 f i MapperFactory.obj
 0002:000e5ed0       ??1Mapper243@@UAE@XZ       005c0ed0 f i MapperFactory.obj
 0002:000e5f20       ??0MapperNSF@@QAE@PAVNES@@@Z 005c0f20 f i MapperFactory.obj
 0002:000e5f90       ??_EMapperNSF@@UAEPAXI@Z   005c0f90 f i MapperFactory.obj
 0002:000e5f90       ??_GMapperNSF@@UAEPAXI@Z   005c0f90 f i MapperFactory.obj
 0002:000e6000       ??1MapperNSF@@UAE@XZ       005c1000 f i MapperFactory.obj
 0002:000e6050       ??0Mapper044@@QAE@PAVNES@@@Z 005c1050 f i MapperFactory.obj
 0002:000e60c0       ?IsStateSave@Mapper044@@UAEHXZ 005c10c0 f i MapperFactory.obj
 0002:000e6100       ??_EMapper044@@UAEPAXI@Z   005c1100 f i MapperFactory.obj
 0002:000e6100       ??_GMapper044@@UAEPAXI@Z   005c1100 f i MapperFactory.obj
 0002:000e6170       ??1Mapper044@@UAE@XZ       005c1170 f i MapperFactory.obj
 0002:000e61c0       ??0Mapper045@@QAE@PAVNES@@@Z 005c11c0 f i MapperFactory.obj
 0002:000e6230       ?IsStateSave@Mapper045@@UAEHXZ 005c1230 f i MapperFactory.obj
 0002:000e6270       ??_EMapper045@@UAEPAXI@Z   005c1270 f i MapperFactory.obj
 0002:000e6270       ??_GMapper045@@UAEPAXI@Z   005c1270 f i MapperFactory.obj
 0002:000e62e0       ??1Mapper045@@UAE@XZ       005c12e0 f i MapperFactory.obj
 0002:000e6330       ??0Mapper046@@QAE@PAVNES@@@Z 005c1330 f i MapperFactory.obj
 0002:000e63a0       ?IsStateSave@Mapper046@@UAEHXZ 005c13a0 f i MapperFactory.obj
 0002:000e63e0       ??_EMapper046@@UAEPAXI@Z   005c13e0 f i MapperFactory.obj
 0002:000e63e0       ??_GMapper046@@UAEPAXI@Z   005c13e0 f i MapperFactory.obj
 0002:000e6450       ??1Mapper046@@UAE@XZ       005c1450 f i MapperFactory.obj
 0002:000e64a0       ??0Mapper047@@QAE@PAVNES@@@Z 005c14a0 f i MapperFactory.obj
 0002:000e6510       ?IsStateSave@Mapper047@@UAEHXZ 005c1510 f i MapperFactory.obj
 0002:000e6550       ??_EMapper047@@UAEPAXI@Z   005c1550 f i MapperFactory.obj
 0002:000e6550       ??_GMapper047@@UAEPAXI@Z   005c1550 f i MapperFactory.obj
 0002:000e65c0       ??1Mapper047@@UAE@XZ       005c15c0 f i MapperFactory.obj
 0002:000e6610       ??0Mapper050@@QAE@PAVNES@@@Z 005c1610 f i MapperFactory.obj
 0002:000e6680       ?IsStateSave@Mapper050@@UAEHXZ 005c1680 f i MapperFactory.obj
 0002:000e66c0       ??_GMapper050@@UAEPAXI@Z   005c16c0 f i MapperFactory.obj
 0002:000e66c0       ??_EMapper050@@UAEPAXI@Z   005c16c0 f i MapperFactory.obj
 0002:000e6730       ??1Mapper050@@UAE@XZ       005c1730 f i MapperFactory.obj
 0002:000e6780       ??0Mapper051@@QAE@PAVNES@@@Z 005c1780 f i MapperFactory.obj
 0002:000e67f0       ?IsStateSave@Mapper051@@UAEHXZ 005c17f0 f i MapperFactory.obj
 0002:000e6830       ??_EMapper051@@UAEPAXI@Z   005c1830 f i MapperFactory.obj
 0002:000e6830       ??_GMapper051@@UAEPAXI@Z   005c1830 f i MapperFactory.obj
 0002:000e68a0       ??1Mapper051@@UAE@XZ       005c18a0 f i MapperFactory.obj
 0002:000e68f0       ??0Mapper057@@QAE@PAVNES@@@Z 005c18f0 f i MapperFactory.obj
 0002:000e6960       ?IsStateSave@Mapper057@@UAEHXZ 005c1960 f i MapperFactory.obj
 0002:000e69a0       ??_EMapper057@@UAEPAXI@Z   005c19a0 f i MapperFactory.obj
 0002:000e69a0       ??_GMapper057@@UAEPAXI@Z   005c19a0 f i MapperFactory.obj
 0002:000e6a10       ??1Mapper057@@UAE@XZ       005c1a10 f i MapperFactory.obj
 0002:000e6a60       ??0Mapper058@@QAE@PAVNES@@@Z 005c1a60 f i MapperFactory.obj
 0002:000e6ad0       ??_EMapper058@@UAEPAXI@Z   005c1ad0 f i MapperFactory.obj
 0002:000e6ad0       ??_GMapper058@@UAEPAXI@Z   005c1ad0 f i MapperFactory.obj
 0002:000e6b40       ??1Mapper058@@UAE@XZ       005c1b40 f i MapperFactory.obj
 0002:000e6b90       ??0Mapper060@@QAE@PAVNES@@@Z 005c1b90 f i MapperFactory.obj
 0002:000e6c00       ??_GMapper060@@UAEPAXI@Z   005c1c00 f i MapperFactory.obj
 0002:000e6c00       ??_EMapper060@@UAEPAXI@Z   005c1c00 f i MapperFactory.obj
 0002:000e6c70       ??1Mapper060@@UAE@XZ       005c1c70 f i MapperFactory.obj
 0002:000e6cc0       ??0Mapper062@@QAE@PAVNES@@@Z 005c1cc0 f i MapperFactory.obj
 0002:000e6d30       ??_EMapper062@@UAEPAXI@Z   005c1d30 f i MapperFactory.obj
 0002:000e6d30       ??_GMapper062@@UAEPAXI@Z   005c1d30 f i MapperFactory.obj
 0002:000e6da0       ??1Mapper062@@UAE@XZ       005c1da0 f i MapperFactory.obj
 0002:000e6df0       ??0Mapper074@@QAE@PAVNES@@@Z 005c1df0 f i MapperFactory.obj
 0002:000e6e60       ?IsStateSave@Mapper074@@UAEHXZ 005c1e60 f i MapperFactory.obj
 0002:000e6ea0       ??_GMapper074@@UAEPAXI@Z   005c1ea0 f i MapperFactory.obj
 0002:000e6ea0       ??_EMapper074@@UAEPAXI@Z   005c1ea0 f i MapperFactory.obj
 0002:000e6f10       ??1Mapper074@@UAE@XZ       005c1f10 f i MapperFactory.obj
 0002:000e6f60       ??0Mapper105@@QAE@PAVNES@@@Z 005c1f60 f i MapperFactory.obj
 0002:000e6fd0       ?IsStateSave@Mapper105@@UAEHXZ 005c1fd0 f i MapperFactory.obj
 0002:000e7010       ??_GMapper105@@UAEPAXI@Z   005c2010 f i MapperFactory.obj
 0002:000e7010       ??_EMapper105@@UAEPAXI@Z   005c2010 f i MapperFactory.obj
 0002:000e7080       ??1Mapper105@@UAE@XZ       005c2080 f i MapperFactory.obj
 0002:000e70d0       ??0Mapper108@@QAE@PAVNES@@@Z 005c20d0 f i MapperFactory.obj
 0002:000e7140       ??_GMapper108@@UAEPAXI@Z   005c2140 f i MapperFactory.obj
 0002:000e7140       ??_EMapper108@@UAEPAXI@Z   005c2140 f i MapperFactory.obj
 0002:000e71b0       ??1Mapper108@@UAE@XZ       005c21b0 f i MapperFactory.obj
 0002:000e7200       ??0Mapper109@@QAE@PAVNES@@@Z 005c2200 f i MapperFactory.obj
 0002:000e7270       ?IsStateSave@Mapper109@@UAEHXZ 005c2270 f i MapperFactory.obj
 0002:000e72b0       ??_EMapper109@@UAEPAXI@Z   005c22b0 f i MapperFactory.obj
 0002:000e72b0       ??_GMapper109@@UAEPAXI@Z   005c22b0 f i MapperFactory.obj
 0002:000e7320       ??1Mapper109@@UAE@XZ       005c2320 f i MapperFactory.obj
 0002:000e7370       ??0Mapper110@@QAE@PAVNES@@@Z 005c2370 f i MapperFactory.obj
 0002:000e73e0       ?IsStateSave@Mapper110@@UAEHXZ 005c23e0 f i MapperFactory.obj
 0002:000e7420       ??_GMapper110@@UAEPAXI@Z   005c2420 f i MapperFactory.obj
 0002:000e7420       ??_EMapper110@@UAEPAXI@Z   005c2420 f i MapperFactory.obj
 0002:000e7490       ??1Mapper110@@UAE@XZ       005c2490 f i MapperFactory.obj
 0002:000e74e0       ??0Mapper112@@QAE@PAVNES@@@Z 005c24e0 f i MapperFactory.obj
 0002:000e7550       ?IsStateSave@Mapper112@@UAEHXZ 005c2550 f i MapperFactory.obj
 0002:000e7590       ??_GMapper112@@UAEPAXI@Z   005c2590 f i MapperFactory.obj
 0002:000e7590       ??_EMapper112@@UAEPAXI@Z   005c2590 f i MapperFactory.obj
 0002:000e7600       ??1Mapper112@@UAE@XZ       005c2600 f i MapperFactory.obj
 0002:000e7650       ??0Mapper114@@QAE@PAVNES@@@Z 005c2650 f i MapperFactory.obj
 0002:000e76c0       ?IsStateSave@Mapper114@@UAEHXZ 005c26c0 f i MapperFactory.obj
 0002:000e7700       ??_EMapper114@@UAEPAXI@Z   005c2700 f i MapperFactory.obj
 0002:000e7700       ??_GMapper114@@UAEPAXI@Z   005c2700 f i MapperFactory.obj
 0002:000e7770       ??1Mapper114@@UAE@XZ       005c2770 f i MapperFactory.obj
 0002:000e77c0       ??0Mapper115@@QAE@PAVNES@@@Z 005c27c0 f i MapperFactory.obj
 0002:000e7830       ?IsStateSave@Mapper115@@UAEHXZ 005c2830 f i MapperFactory.obj
 0002:000e7870       ??_GMapper115@@UAEPAXI@Z   005c2870 f i MapperFactory.obj
 0002:000e7870       ??_EMapper115@@UAEPAXI@Z   005c2870 f i MapperFactory.obj
 0002:000e78e0       ??1Mapper115@@UAE@XZ       005c28e0 f i MapperFactory.obj
 0002:000e7930       ??0Mapper116@@QAE@PAVNES@@@Z 005c2930 f i MapperFactory.obj
 0002:000e79a0       ?IsStateSave@Mapper116@@UAEHXZ 005c29a0 f i MapperFactory.obj
 0002:000e79e0       ??_EMapper116@@UAEPAXI@Z   005c29e0 f i MapperFactory.obj
 0002:000e79e0       ??_GMapper116@@UAEPAXI@Z   005c29e0 f i MapperFactory.obj
 0002:000e7a50       ??1Mapper116@@UAE@XZ       005c2a50 f i MapperFactory.obj
 0002:000e7aa0       ??0Mapper117@@QAE@PAVNES@@@Z 005c2aa0 f i MapperFactory.obj
 0002:000e7b10       ?IsStateSave@Mapper117@@UAEHXZ 005c2b10 f i MapperFactory.obj
 0002:000e7b50       ??_GMapper117@@UAEPAXI@Z   005c2b50 f i MapperFactory.obj
 0002:000e7b50       ??_EMapper117@@UAEPAXI@Z   005c2b50 f i MapperFactory.obj
 0002:000e7bc0       ??1Mapper117@@UAE@XZ       005c2bc0 f i MapperFactory.obj
 0002:000e7c10       ??0Mapper133@@QAE@PAVNES@@@Z 005c2c10 f i MapperFactory.obj
 0002:000e7c80       ??_EMapper133@@UAEPAXI@Z   005c2c80 f i MapperFactory.obj
 0002:000e7c80       ??_GMapper133@@UAEPAXI@Z   005c2c80 f i MapperFactory.obj
 0002:000e7cf0       ??1Mapper133@@UAE@XZ       005c2cf0 f i MapperFactory.obj
 0002:000e7d40       ??0Mapper134@@QAE@PAVNES@@@Z 005c2d40 f i MapperFactory.obj
 0002:000e7db0       ?IsStateSave@Mapper134@@UAEHXZ 005c2db0 f i MapperFactory.obj
 0002:000e7df0       ??_EMapper134@@UAEPAXI@Z   005c2df0 f i MapperFactory.obj
 0002:000e7df0       ??_GMapper134@@UAEPAXI@Z   005c2df0 f i MapperFactory.obj
 0002:000e7e60       ??1Mapper134@@UAE@XZ       005c2e60 f i MapperFactory.obj
 0002:000e7eb0       ??0Mapper135@@QAE@PAVNES@@@Z 005c2eb0 f i MapperFactory.obj
 0002:000e7f20       ?IsStateSave@Mapper135@@UAEHXZ 005c2f20 f i MapperFactory.obj
 0002:000e7f60       ??_GMapper135@@UAEPAXI@Z   005c2f60 f i MapperFactory.obj
 0002:000e7f60       ??_EMapper135@@UAEPAXI@Z   005c2f60 f i MapperFactory.obj
 0002:000e7fd0       ??1Mapper135@@UAE@XZ       005c2fd0 f i MapperFactory.obj
 0002:000e8020       ??0Mapper140@@QAE@PAVNES@@@Z 005c3020 f i MapperFactory.obj
 0002:000e8090       ??_EMapper140@@UAEPAXI@Z   005c3090 f i MapperFactory.obj
 0002:000e8090       ??_GMapper140@@UAEPAXI@Z   005c3090 f i MapperFactory.obj
 0002:000e8100       ??1Mapper140@@UAE@XZ       005c3100 f i MapperFactory.obj
 0002:000e8150       ??0Mapper142@@QAE@PAVNES@@@Z 005c3150 f i MapperFactory.obj
 0002:000e81c0       ?IsStateSave@Mapper142@@UAEHXZ 005c31c0 f i MapperFactory.obj
 0002:000e8200       ??_EMapper142@@UAEPAXI@Z   005c3200 f i MapperFactory.obj
 0002:000e8200       ??_GMapper142@@UAEPAXI@Z   005c3200 f i MapperFactory.obj
 0002:000e8270       ??1Mapper142@@UAE@XZ       005c3270 f i MapperFactory.obj
 0002:000e82c0       ??0Mapper160@@QAE@PAVNES@@@Z 005c32c0 f i MapperFactory.obj
 0002:000e8330       ?IsStateSave@Mapper160@@UAEHXZ 005c3330 f i MapperFactory.obj
 0002:000e8370       ??_GMapper160@@UAEPAXI@Z   005c3370 f i MapperFactory.obj
 0002:000e8370       ??_EMapper160@@UAEPAXI@Z   005c3370 f i MapperFactory.obj
 0002:000e83e0       ??1Mapper160@@UAE@XZ       005c33e0 f i MapperFactory.obj
 0002:000e8430       ??0Mapper182@@QAE@PAVNES@@@Z 005c3430 f i MapperFactory.obj
 0002:000e84a0       ?IsStateSave@Mapper182@@UAEHXZ 005c34a0 f i MapperFactory.obj
 0002:000e84e0       ??_GMapper182@@UAEPAXI@Z   005c34e0 f i MapperFactory.obj
 0002:000e84e0       ??_EMapper182@@UAEPAXI@Z   005c34e0 f i MapperFactory.obj
 0002:000e8550       ??1Mapper182@@UAE@XZ       005c3550 f i MapperFactory.obj
 0002:000e85a0       ??0Mapper183@@QAE@PAVNES@@@Z 005c35a0 f i MapperFactory.obj
 0002:000e8610       ?IsStateSave@Mapper183@@UAEHXZ 005c3610 f i MapperFactory.obj
 0002:000e8650       ??_EMapper183@@UAEPAXI@Z   005c3650 f i MapperFactory.obj
 0002:000e8650       ??_GMapper183@@UAEPAXI@Z   005c3650 f i MapperFactory.obj
 0002:000e86c0       ??1Mapper183@@UAE@XZ       005c36c0 f i MapperFactory.obj
 0002:000e8710       ??0Mapper190@@QAE@PAVNES@@@Z 005c3710 f i MapperFactory.obj
 0002:000e8780       ?IsStateSave@Mapper190@@UAEHXZ 005c3780 f i MapperFactory.obj
 0002:000e87c0       ??_GMapper190@@UAEPAXI@Z   005c37c0 f i MapperFactory.obj
 0002:000e87c0       ??_EMapper190@@UAEPAXI@Z   005c37c0 f i MapperFactory.obj
 0002:000e8830       ??1Mapper190@@UAE@XZ       005c3830 f i MapperFactory.obj
 0002:000e8880       ??0Mapper191@@QAE@PAVNES@@@Z 005c3880 f i MapperFactory.obj
 0002:000e88f0       ?IsStateSave@Mapper191@@UAEHXZ 005c38f0 f i MapperFactory.obj
 0002:000e8930       ??_GMapper191@@UAEPAXI@Z   005c3930 f i MapperFactory.obj
 0002:000e8930       ??_EMapper191@@UAEPAXI@Z   005c3930 f i MapperFactory.obj
 0002:000e89a0       ??1Mapper191@@UAE@XZ       005c39a0 f i MapperFactory.obj
 0002:000e89f0       ??0Mapper193@@QAE@PAVNES@@@Z 005c39f0 f i MapperFactory.obj
 0002:000e8a60       ??_EMapper193@@UAEPAXI@Z   005c3a60 f i MapperFactory.obj
 0002:000e8a60       ??_GMapper193@@UAEPAXI@Z   005c3a60 f i MapperFactory.obj
 0002:000e8ad0       ??1Mapper193@@UAE@XZ       005c3ad0 f i MapperFactory.obj
 0002:000e8b20       ??0Mapper194@@QAE@PAVNES@@@Z 005c3b20 f i MapperFactory.obj
 0002:000e8b90       ??_GMapper194@@UAEPAXI@Z   005c3b90 f i MapperFactory.obj
 0002:000e8b90       ??_EMapper194@@UAEPAXI@Z   005c3b90 f i MapperFactory.obj
 0002:000e8c00       ??1Mapper194@@UAE@XZ       005c3c00 f i MapperFactory.obj
 0002:000e8c50       ??0Mapper198@@QAE@PAVNES@@@Z 005c3c50 f i MapperFactory.obj
 0002:000e8cc0       ?IsStateSave@Mapper198@@UAEHXZ 005c3cc0 f i MapperFactory.obj
 0002:000e8d00       ??_EMapper198@@UAEPAXI@Z   005c3d00 f i MapperFactory.obj
 0002:000e8d00       ??_GMapper198@@UAEPAXI@Z   005c3d00 f i MapperFactory.obj
 0002:000e8d70       ??1Mapper198@@UAE@XZ       005c3d70 f i MapperFactory.obj
 0002:000e8dc0       ??0Mapper222@@QAE@PAVNES@@@Z 005c3dc0 f i MapperFactory.obj
 0002:000e8e30       ??_GMapper222@@UAEPAXI@Z   005c3e30 f i MapperFactory.obj
 0002:000e8e30       ??_EMapper222@@UAEPAXI@Z   005c3e30 f i MapperFactory.obj
 0002:000e8ea0       ??1Mapper222@@UAE@XZ       005c3ea0 f i MapperFactory.obj
 0002:000e8ef0       ??0Mapper225@@QAE@PAVNES@@@Z 005c3ef0 f i MapperFactory.obj
 0002:000e8f60       ??_EMapper225@@UAEPAXI@Z   005c3f60 f i MapperFactory.obj
 0002:000e8f60       ??_GMapper225@@UAEPAXI@Z   005c3f60 f i MapperFactory.obj
 0002:000e8fd0       ??1Mapper225@@UAE@XZ       005c3fd0 f i MapperFactory.obj
 0002:000e9020       ??0Mapper226@@QAE@PAVNES@@@Z 005c4020 f i MapperFactory.obj
 0002:000e9090       ?IsStateSave@Mapper226@@UAEHXZ 005c4090 f i MapperFactory.obj
 0002:000e90d0       ??_GMapper226@@UAEPAXI@Z   005c40d0 f i MapperFactory.obj
 0002:000e90d0       ??_EMapper226@@UAEPAXI@Z   005c40d0 f i MapperFactory.obj
 0002:000e9140       ??1Mapper226@@UAE@XZ       005c4140 f i MapperFactory.obj
 0002:000e9190       ??0Mapper227@@QAE@PAVNES@@@Z 005c4190 f i MapperFactory.obj
 0002:000e9200       ??_EMapper227@@UAEPAXI@Z   005c4200 f i MapperFactory.obj
 0002:000e9200       ??_GMapper227@@UAEPAXI@Z   005c4200 f i MapperFactory.obj
 0002:000e9270       ??1Mapper227@@UAE@XZ       005c4270 f i MapperFactory.obj
 0002:000e92c0       ??0Mapper228@@QAE@PAVNES@@@Z 005c42c0 f i MapperFactory.obj
 0002:000e9330       ??_GMapper228@@UAEPAXI@Z   005c4330 f i MapperFactory.obj
 0002:000e9330       ??_EMapper228@@UAEPAXI@Z   005c4330 f i MapperFactory.obj
 0002:000e93a0       ??1Mapper228@@UAE@XZ       005c43a0 f i MapperFactory.obj
 0002:000e93f0       ??0Mapper229@@QAE@PAVNES@@@Z 005c43f0 f i MapperFactory.obj
 0002:000e9460       ??_EMapper229@@UAEPAXI@Z   005c4460 f i MapperFactory.obj
 0002:000e9460       ??_GMapper229@@UAEPAXI@Z   005c4460 f i MapperFactory.obj
 0002:000e94d0       ??1Mapper229@@UAE@XZ       005c44d0 f i MapperFactory.obj
 0002:000e9520       ??0Mapper230@@QAE@PAVNES@@@Z 005c4520 f i MapperFactory.obj
 0002:000e9590       ??_EMapper230@@UAEPAXI@Z   005c4590 f i MapperFactory.obj
 0002:000e9590       ??_GMapper230@@UAEPAXI@Z   005c4590 f i MapperFactory.obj
 0002:000e9600       ??1Mapper230@@UAE@XZ       005c4600 f i MapperFactory.obj
 0002:000e9650       ??0Mapper231@@QAE@PAVNES@@@Z 005c4650 f i MapperFactory.obj
 0002:000e96c0       ??_EMapper231@@UAEPAXI@Z   005c46c0 f i MapperFactory.obj
 0002:000e96c0       ??_GMapper231@@UAEPAXI@Z   005c46c0 f i MapperFactory.obj
 0002:000e9730       ??1Mapper231@@UAE@XZ       005c4730 f i MapperFactory.obj
 0002:000e9780       ??0Mapper232@@QAE@PAVNES@@@Z 005c4780 f i MapperFactory.obj
 0002:000e97f0       ?IsStateSave@Mapper232@@UAEHXZ 005c47f0 f i MapperFactory.obj
 0002:000e9830       ??_EMapper232@@UAEPAXI@Z   005c4830 f i MapperFactory.obj
 0002:000e9830       ??_GMapper232@@UAEPAXI@Z   005c4830 f i MapperFactory.obj
 0002:000e98a0       ??1Mapper232@@UAE@XZ       005c48a0 f i MapperFactory.obj
 0002:000e98f0       ??0Mapper233@@QAE@PAVNES@@@Z 005c48f0 f i MapperFactory.obj
 0002:000e9960       ??_GMapper233@@UAEPAXI@Z   005c4960 f i MapperFactory.obj
 0002:000e9960       ??_EMapper233@@UAEPAXI@Z   005c4960 f i MapperFactory.obj
 0002:000e99d0       ??1Mapper233@@UAE@XZ       005c49d0 f i MapperFactory.obj
 0002:000e9a20       ??0Mapper234@@QAE@PAVNES@@@Z 005c4a20 f i MapperFactory.obj
 0002:000e9a90       ?IsStateSave@Mapper234@@UAEHXZ 005c4a90 f i MapperFactory.obj
 0002:000e9ad0       ??_EMapper234@@UAEPAXI@Z   005c4ad0 f i MapperFactory.obj
 0002:000e9ad0       ??_GMapper234@@UAEPAXI@Z   005c4ad0 f i MapperFactory.obj
 0002:000e9b40       ??1Mapper234@@UAE@XZ       005c4b40 f i MapperFactory.obj
 0002:000e9b90       ??0Mapper235@@QAE@PAVNES@@@Z 005c4b90 f i MapperFactory.obj
 0002:000e9c00       ??_GMapper235@@UAEPAXI@Z   005c4c00 f i MapperFactory.obj
 0002:000e9c00       ??_EMapper235@@UAEPAXI@Z   005c4c00 f i MapperFactory.obj
 0002:000e9c70       ??1Mapper235@@UAE@XZ       005c4c70 f i MapperFactory.obj
 0002:000e9cc0       ??0Mapper236@@QAE@PAVNES@@@Z 005c4cc0 f i MapperFactory.obj
 0002:000e9d30       ?IsStateSave@Mapper236@@UAEHXZ 005c4d30 f i MapperFactory.obj
 0002:000e9d70       ??_EMapper236@@UAEPAXI@Z   005c4d70 f i MapperFactory.obj
 0002:000e9d70       ??_GMapper236@@UAEPAXI@Z   005c4d70 f i MapperFactory.obj
 0002:000e9de0       ??1Mapper236@@UAE@XZ       005c4de0 f i MapperFactory.obj
 0002:000e9e30       ??0Mapper240@@QAE@PAVNES@@@Z 005c4e30 f i MapperFactory.obj
 0002:000e9ea0       ??_GMapper240@@UAEPAXI@Z   005c4ea0 f i MapperFactory.obj
 0002:000e9ea0       ??_EMapper240@@UAEPAXI@Z   005c4ea0 f i MapperFactory.obj
 0002:000e9f10       ??1Mapper240@@UAE@XZ       005c4f10 f i MapperFactory.obj
 0002:000e9f60       ??0Mapper241@@QAE@PAVNES@@@Z 005c4f60 f i MapperFactory.obj
 0002:000e9fd0       ??_EMapper241@@UAEPAXI@Z   005c4fd0 f i MapperFactory.obj
 0002:000e9fd0       ??_GMapper241@@UAEPAXI@Z   005c4fd0 f i MapperFactory.obj
 0002:000ea040       ??1Mapper241@@UAE@XZ       005c5040 f i MapperFactory.obj
 0002:000ea090       ??0Mapper242@@QAE@PAVNES@@@Z 005c5090 f i MapperFactory.obj
 0002:000ea100       ??_EMapper242@@UAEPAXI@Z   005c5100 f i MapperFactory.obj
 0002:000ea100       ??_GMapper242@@UAEPAXI@Z   005c5100 f i MapperFactory.obj
 0002:000ea170       ??1Mapper242@@UAE@XZ       005c5170 f i MapperFactory.obj
 0002:000ea1c0       ??0Mapper244@@QAE@PAVNES@@@Z 005c51c0 f i MapperFactory.obj
 0002:000ea230       ??_GMapper244@@UAEPAXI@Z   005c5230 f i MapperFactory.obj
 0002:000ea230       ??_EMapper244@@UAEPAXI@Z   005c5230 f i MapperFactory.obj
 0002:000ea2a0       ??1Mapper244@@UAE@XZ       005c52a0 f i MapperFactory.obj
 0002:000ea2f0       ??0Mapper245@@QAE@PAVNES@@@Z 005c52f0 f i MapperFactory.obj
 0002:000ea360       ?IsStateSave@Mapper245@@UAEHXZ 005c5360 f i MapperFactory.obj
 0002:000ea3a0       ??_EMapper245@@UAEPAXI@Z   005c53a0 f i MapperFactory.obj
 0002:000ea3a0       ??_GMapper245@@UAEPAXI@Z   005c53a0 f i MapperFactory.obj
 0002:000ea410       ??1Mapper245@@UAE@XZ       005c5410 f i MapperFactory.obj
 0002:000ea460       ??0Mapper246@@QAE@PAVNES@@@Z 005c5460 f i MapperFactory.obj
 0002:000ea4d0       ??_GMapper246@@UAEPAXI@Z   005c54d0 f i MapperFactory.obj
 0002:000ea4d0       ??_EMapper246@@UAEPAXI@Z   005c54d0 f i MapperFactory.obj
 0002:000ea540       ??1Mapper246@@UAE@XZ       005c5540 f i MapperFactory.obj
 0002:000ea590       ??0Mapper248@@QAE@PAVNES@@@Z 005c5590 f i MapperFactory.obj
 0002:000ea600       ?IsStateSave@Mapper248@@UAEHXZ 005c5600 f i MapperFactory.obj
 0002:000ea640       ??_EMapper248@@UAEPAXI@Z   005c5640 f i MapperFactory.obj
 0002:000ea640       ??_GMapper248@@UAEPAXI@Z   005c5640 f i MapperFactory.obj
 0002:000ea6b0       ??1Mapper248@@UAE@XZ       005c56b0 f i MapperFactory.obj
 0002:000ea700       ??0Mapper249@@QAE@PAVNES@@@Z 005c5700 f i MapperFactory.obj
 0002:000ea770       ?IsStateSave@Mapper249@@UAEHXZ 005c5770 f i MapperFactory.obj
 0002:000ea7b0       ??_EMapper249@@UAEPAXI@Z   005c57b0 f i MapperFactory.obj
 0002:000ea7b0       ??_GMapper249@@UAEPAXI@Z   005c57b0 f i MapperFactory.obj
 0002:000ea820       ??1Mapper249@@UAE@XZ       005c5820 f i MapperFactory.obj
 0002:000ea870       ??0Mapper251@@QAE@PAVNES@@@Z 005c5870 f i MapperFactory.obj
 0002:000ea8e0       ?IsStateSave@Mapper251@@UAEHXZ 005c58e0 f i MapperFactory.obj
 0002:000ea920       ??_GMapper251@@UAEPAXI@Z   005c5920 f i MapperFactory.obj
 0002:000ea920       ??_EMapper251@@UAEPAXI@Z   005c5920 f i MapperFactory.obj
 0002:000ea990       ??1Mapper251@@UAE@XZ       005c5990 f i MapperFactory.obj
 0002:000ea9e0       ??0Mapper252@@QAE@PAVNES@@@Z 005c59e0 f i MapperFactory.obj
 0002:000eaa50       ?IsStateSave@Mapper252@@UAEHXZ 005c5a50 f i MapperFactory.obj
 0002:000eaa90       ??_GMapper252@@UAEPAXI@Z   005c5a90 f i MapperFactory.obj
 0002:000eaa90       ??_EMapper252@@UAEPAXI@Z   005c5a90 f i MapperFactory.obj
 0002:000eab00       ??1Mapper252@@UAE@XZ       005c5b00 f i MapperFactory.obj
 0002:000eab50       ??0Mapper253@@QAE@PAVNES@@@Z 005c5b50 f i MapperFactory.obj
 0002:000eabc0       ?IsStateSave@Mapper253@@UAEHXZ 005c5bc0 f i MapperFactory.obj
 0002:000eac00       ??_EMapper253@@UAEPAXI@Z   005c5c00 f i MapperFactory.obj
 0002:000eac00       ??_GMapper253@@UAEPAXI@Z   005c5c00 f i MapperFactory.obj
 0002:000eac70       ??1Mapper253@@UAE@XZ       005c5c70 f i MapperFactory.obj
 0002:000eacc0       ??0Mapper254@@QAE@PAVNES@@@Z 005c5cc0 f i MapperFactory.obj
 0002:000ead30       ?IsStateSave@Mapper254@@UAEHXZ 005c5d30 f i MapperFactory.obj
 0002:000ead70       ??_GMapper254@@UAEPAXI@Z   005c5d70 f i MapperFactory.obj
 0002:000ead70       ??_EMapper254@@UAEPAXI@Z   005c5d70 f i MapperFactory.obj
 0002:000eade0       ??1Mapper254@@UAE@XZ       005c5de0 f i MapperFactory.obj
 0002:000eae30       ??0Mapper255@@QAE@PAVNES@@@Z 005c5e30 f i MapperFactory.obj
 0002:000eaea0       ?IsStateSave@Mapper255@@UAEHXZ 005c5ea0 f i MapperFactory.obj
 0002:000eaee0       ??_EMapper255@@UAEPAXI@Z   005c5ee0 f i MapperFactory.obj
 0002:000eaee0       ??_GMapper255@@UAEPAXI@Z   005c5ee0 f i MapperFactory.obj
 0002:000eaf50       ??1Mapper255@@UAE@XZ       005c5f50 f i MapperFactory.obj
 0002:000eafa0       ??0Mapper099@@QAE@PAVNES@@@Z 005c5fa0 f i MapperFactory.obj
 0002:000eb010       ??_EMapper099@@UAEPAXI@Z   005c6010 f i MapperFactory.obj
 0002:000eb010       ??_GMapper099@@UAEPAXI@Z   005c6010 f i MapperFactory.obj
 0002:000eb080       ??1Mapper099@@UAE@XZ       005c6080 f i MapperFactory.obj
 0002:000eb0d0       ??0Mapper151@@QAE@PAVNES@@@Z 005c60d0 f i MapperFactory.obj
 0002:000eb140       ??_GMapper151@@UAEPAXI@Z   005c6140 f i MapperFactory.obj
 0002:000eb140       ??_EMapper151@@UAEPAXI@Z   005c6140 f i MapperFactory.obj
 0002:000eb1b0       ??1Mapper151@@UAE@XZ       005c61b0 f i MapperFactory.obj
 0002:000eb200       ??0Mapper012@@QAE@PAVNES@@@Z 005c6200 f i MapperFactory.obj
 0002:000eb270       ?IsStateSave@Mapper012@@UAEHXZ 005c6270 f i MapperFactory.obj
 0002:000eb2b0       ??_EMapper012@@UAEPAXI@Z   005c62b0 f i MapperFactory.obj
 0002:000eb2b0       ??_GMapper012@@UAEPAXI@Z   005c62b0 f i MapperFactory.obj
 0002:000eb320       ??1Mapper012@@UAE@XZ       005c6320 f i MapperFactory.obj
 0002:000eb370       ??0Mapper200@@QAE@PAVNES@@@Z 005c6370 f i MapperFactory.obj
 0002:000eb3e0       ??_GMapper200@@UAEPAXI@Z   005c63e0 f i MapperFactory.obj
 0002:000eb3e0       ??_EMapper200@@UAEPAXI@Z   005c63e0 f i MapperFactory.obj
 0002:000eb450       ??1Mapper200@@UAE@XZ       005c6450 f i MapperFactory.obj
 0002:000eb4a0       ??0Mapper201@@QAE@PAVNES@@@Z 005c64a0 f i MapperFactory.obj
 0002:000eb510       ??_GMapper201@@UAEPAXI@Z   005c6510 f i MapperFactory.obj
 0002:000eb510       ??_EMapper201@@UAEPAXI@Z   005c6510 f i MapperFactory.obj
 0002:000eb580       ??1Mapper201@@UAE@XZ       005c6580 f i MapperFactory.obj
 0002:000eb5d0       ??0Mapper202@@QAE@PAVNES@@@Z 005c65d0 f i MapperFactory.obj
 0002:000eb640       ??_GMapper202@@UAEPAXI@Z   005c6640 f i MapperFactory.obj
 0002:000eb640       ??_EMapper202@@UAEPAXI@Z   005c6640 f i MapperFactory.obj
 0002:000eb6b0       ??1Mapper202@@UAE@XZ       005c66b0 f i MapperFactory.obj
 0002:000eb700       ??0Mapper061@@QAE@PAVNES@@@Z 005c6700 f i MapperFactory.obj
 0002:000eb770       ??_EMapper061@@UAEPAXI@Z   005c6770 f i MapperFactory.obj
 0002:000eb770       ??_GMapper061@@UAEPAXI@Z   005c6770 f i MapperFactory.obj
 0002:000eb7e0       ??1Mapper061@@UAE@XZ       005c67e0 f i MapperFactory.obj
 0002:000eb830       ??0Mapper027@@QAE@PAVNES@@@Z 005c6830 f i MapperFactory.obj
 0002:000eb8a0       ?IsStateSave@Mapper027@@UAEHXZ 005c68a0 f i MapperFactory.obj
 0002:000eb8e0       ??_GMapper027@@UAEPAXI@Z   005c68e0 f i MapperFactory.obj
 0002:000eb8e0       ??_EMapper027@@UAEPAXI@Z   005c68e0 f i MapperFactory.obj
 0002:000eb950       ??1Mapper027@@UAE@XZ       005c6950 f i MapperFactory.obj
 0002:000eb9a0       ??0Mapper163@@QAE@PAVNES@@@Z 005c69a0 f i MapperFactory.obj
 0002:000eba10       ??_GMapper163@@UAEPAXI@Z   005c6a10 f i MapperFactory.obj
 0002:000eba10       ??_EMapper163@@UAEPAXI@Z   005c6a10 f i MapperFactory.obj
 0002:000eba80       ??1Mapper163@@UAE@XZ       005c6a80 f i MapperFactory.obj
 0002:000ebad0       ??0Mapper164@@QAE@PAVNES@@@Z 005c6ad0 f i MapperFactory.obj
 0002:000ebb40       ?IsStateSave@Mapper164@@UAEHXZ 005c6b40 f i MapperFactory.obj
 0002:000ebb80       ??_GMapper164@@UAEPAXI@Z   005c6b80 f i MapperFactory.obj
 0002:000ebb80       ??_EMapper164@@UAEPAXI@Z   005c6b80 f i MapperFactory.obj
 0002:000ebbf0       ??1Mapper164@@UAE@XZ       005c6bf0 f i MapperFactory.obj
 0002:000ebc40       ??0Mapper165@@QAE@PAVNES@@@Z 005c6c40 f i MapperFactory.obj
 0002:000ebcb0       ?IsStateSave@Mapper165@@UAEHXZ 005c6cb0 f i MapperFactory.obj
 0002:000ebcf0       ??_EMapper165@@UAEPAXI@Z   005c6cf0 f i MapperFactory.obj
 0002:000ebcf0       ??_GMapper165@@UAEPAXI@Z   005c6cf0 f i MapperFactory.obj
 0002:000ebd60       ??1Mapper165@@UAE@XZ       005c6d60 f i MapperFactory.obj
 0002:000ebdb0       ??0Mapper167@@QAE@PAVNES@@@Z 005c6db0 f i MapperFactory.obj
 0002:000ebe20       ?IsStateSave@Mapper167@@UAEHXZ 005c6e20 f i MapperFactory.obj
 0002:000ebe60       ??_EMapper167@@UAEPAXI@Z   005c6e60 f i MapperFactory.obj
 0002:000ebe60       ??_GMapper167@@UAEPAXI@Z   005c6e60 f i MapperFactory.obj
 0002:000ebed0       ??1Mapper167@@UAE@XZ       005c6ed0 f i MapperFactory.obj
 0002:000ebf20       ??0map0_3208cn@@QAE@PAVNES@@@Z 005c6f20 f i MapperFactory.obj
 0002:000ebf90       ??_Gmap0_3208cn@@UAEPAXI@Z 005c6f90 f i MapperFactory.obj
 0002:000ebf90       ??_Emap0_3208cn@@UAEPAXI@Z 005c6f90 f i MapperFactory.obj
 0002:000ec000       ??1map0_3208cn@@UAE@XZ     005c7000 f i MapperFactory.obj
 0002:000ec050       ??0GeniusMerioBros@@QAE@PAVNES@@@Z 005c7050 f i MapperFactory.obj
 0002:000ec0c0       ??_EGeniusMerioBros@@UAEPAXI@Z 005c70c0 f i MapperFactory.obj
 0002:000ec0c0       ??_GGeniusMerioBros@@UAEPAXI@Z 005c70c0 f i MapperFactory.obj
 0002:000ec130       ??1GeniusMerioBros@@UAE@XZ 005c7130 f i MapperFactory.obj
 0002:000ec180       ??0smb2j@@QAE@PAVNES@@@Z   005c7180 f i MapperFactory.obj
 0002:000ec1f0       ??_Esmb2j@@UAEPAXI@Z       005c71f0 f i MapperFactory.obj
 0002:000ec1f0       ??_Gsmb2j@@UAEPAXI@Z       005c71f0 f i MapperFactory.obj
 0002:000ec260       ??1smb2j@@UAE@XZ           005c7260 f i MapperFactory.obj
 0002:000ec2b0       _dump2patch                005c72b0 f   emu2413.obj
 0002:000ec500       _OPLL_forceRefresh         005c7500 f   emu2413.obj
 0002:000ec980       _OPLL_copyPatch            005c7980 f   emu2413.obj
 0002:000ec9f0       _OPLL_new                  005c79f0 f   emu2413.obj
 0002:000ed030       _OPLL_delete               005c8030 f   emu2413.obj
 0002:000ed100       _OPLL_reset_patch          005c8100 f   emu2413.obj
 0002:000ed1a0       _OPLL_reset                005c81a0 f   emu2413.obj
 0002:000ed590       _OPLL_setClock             005c8590 f   emu2413.obj
 0002:000edd90       _OPLL_init                 005c8d90 f   emu2413.obj
 0002:000ee940       _OPLL_close                005c9940 f   emu2413.obj
 0002:000ee970       _OPLL_calc                 005c9970 f   emu2413.obj
 0002:000ef9e0       _OPLL_setMask              005ca9e0 f   emu2413.obj
 0002:000efa40       _OPLL_toggleMask           005caa40 f   emu2413.obj
 0002:000efab0       _OPLL_writeReg             005caab0 f   emu2413.obj
 0002:000f3720       _OPLL_writeIO              005ce720 f   emu2413.obj
 0002:000f37b0       ??0APU_FDS@@QAE@XZ         005ce7b0 f   APU_FDS.obj
 0002:000f3880       ?WriteSync@APU_INTERFACE@@UAEXGE@Z 005ce880 f i APU_FDS.obj
 0002:000f38c0       ?ReadSync@APU_INTERFACE@@UAEEG@Z 005ce8c0 f i APU_FDS.obj
 0002:000f3900       ?VSync@APU_INTERFACE@@UAEXXZ 005ce900 f i APU_FDS.obj
 0002:000f3940       ??0APU_INTERFACE@@QAE@XZ   005ce940 f i APU_FDS.obj
 0002:000f3990       ?Read@APU_INTERFACE@@UAEEG@Z 005ce990 f i APU_FDS.obj
 0002:000f39d0       ?Sync@APU_INTERFACE@@UAEHH@Z 005ce9d0 f i APU_FDS.obj
 0002:000f3a10       ?GetFreq@APU_INTERFACE@@UAEHH@Z 005cea10 f i APU_FDS.obj
 0002:000f3a50       ?GetStateSize@APU_INTERFACE@@UAEHXZ 005cea50 f i APU_FDS.obj
 0002:000f3a90       ?SaveState@APU_INTERFACE@@UAEXPAE@Z 005cea90 f i APU_FDS.obj
 0002:000f3ad0       ?LoadState@APU_INTERFACE@@UAEXPAE@Z 005cead0 f i APU_FDS.obj
 0002:000f3b10       ??1APU_FDS@@QAE@XZ         005ceb10 f   APU_FDS.obj
 0002:000f3b50       ?Reset@APU_FDS@@UAEXMH@Z   005ceb50 f   APU_FDS.obj
 0002:000f3be0       ?Setup@APU_FDS@@UAEXMH@Z   005cebe0 f   APU_FDS.obj
 0002:000f3c30       ?WriteSub@APU_FDS@@IAEXGEAAUtagFDSSOUND@1@N@Z 005cec30 f   APU_FDS.obj
 0002:000f4210       ?Write@APU_FDS@@UAEXGE@Z   005cf210 f   APU_FDS.obj
 0002:000f4290       ?Read@APU_FDS@@UAEEG@Z     005cf290 f   APU_FDS.obj
 0002:000f4360       ?Process@APU_FDS@@UAEHH@Z  005cf360 f   APU_FDS.obj
 0002:000f4ad0       ?SyncWrite@APU_FDS@@QAEXGE@Z 005cfad0 f   APU_FDS.obj
 0002:000f4b50       ?SyncRead@APU_FDS@@QAEEG@Z 005cfb50 f   APU_FDS.obj
 0002:000f4c20       ?Sync@APU_FDS@@UAEHH@Z     005cfc20 f   APU_FDS.obj
 0002:000f4f10       ?GetFreq@APU_FDS@@UAEHH@Z  005cff10 f   APU_FDS.obj
 0002:000f4f60       ?GetStateSize@APU_FDS@@UAEHXZ 005cff60 f   APU_FDS.obj
 0002:000f4fa0       ?SaveState@APU_FDS@@UAEXPAE@Z 005cffa0 f   APU_FDS.obj
 0002:000f5050       ?LoadState@APU_FDS@@UAEXPAE@Z 005d0050 f   APU_FDS.obj
 0002:000f5100       ??0APU_FME7@@QAE@XZ        005d0100 f   APU_FME7.obj
 0002:000f5180       ??1APU_FME7@@QAE@XZ        005d0180 f   APU_FME7.obj
 0002:000f51c0       ?Reset@APU_FME7@@UAEXMH@Z  005d01c0 f   APU_FME7.obj
 0002:000f5350       ?Setup@APU_FME7@@UAEXMH@Z  005d0350 f   APU_FME7.obj
 0002:000f53d0       ?Write@APU_FME7@@UAEXGE@Z  005d03d0 f   APU_FME7.obj
 0002:000f5660       ?Process@APU_FME7@@UAEHH@Z 005d0660 f   APU_FME7.obj
 0002:000f56f0       ?GetFreq@APU_FME7@@UAEHH@Z 005d06f0 f   APU_FME7.obj
 0002:000f57f0       ?EnvelopeRender@APU_FME7@@IAEXXZ 005d07f0 f   APU_FME7.obj
 0002:000f58c0       ?NoiseRender@APU_FME7@@IAEXXZ 005d08c0 f   APU_FME7.obj
 0002:000f59b0       ?ChannelRender@APU_FME7@@IAEHAAUCHANNEL@1@@Z 005d09b0 f   APU_FME7.obj
 0002:000f5b30       ?GetStateSize@APU_FME7@@UAEHXZ 005d0b30 f   APU_FME7.obj
 0002:000f5b70       ?SaveState@APU_FME7@@UAEXPAE@Z 005d0b70 f   APU_FME7.obj
 0002:000f5c50       ?LoadState@APU_FME7@@UAEXPAE@Z 005d0c50 f   APU_FME7.obj
 0002:000f5d30       ??0APU_INTERNAL@@QAE@XZ    005d0d30 f   APU_INTERNAL.obj
 0002:000f5ec0       ??1APU_INTERNAL@@QAE@XZ    005d0ec0 f   APU_INTERNAL.obj
 0002:000f5f00       ?Reset@APU_INTERNAL@@UAEXMH@Z 005d0f00 f   APU_INTERNAL.obj
 0002:000f61b0       ?Setup@APU_INTERNAL@@UAEXMH@Z 005d11b0 f   APU_INTERNAL.obj
 0002:000f6240       ?ToneTableLoad@APU_INTERNAL@@QAEXXZ 005d1240 f   APU_INTERNAL.obj
 0002:000f6ad0       ?strchr@@YAPADPADH@Z       005d1ad0 f i APU_INTERNAL.obj
 0002:000f6b30       ?Process@APU_INTERNAL@@UAEHH@Z 005d1b30 f   APU_INTERNAL.obj
 0002:000f6c20       ?Write@APU_INTERNAL@@UAEXGE@Z 005d1c20 f   APU_INTERNAL.obj
 0002:000f6f20       ?Read@APU_INTERNAL@@UAEEG@Z 005d1f20 f   APU_INTERNAL.obj
 0002:000f7030       ?SyncWrite@APU_INTERNAL@@QAEXGE@Z 005d2030 f   APU_INTERNAL.obj
 0002:000f7360       ?SyncWrite4017@APU_INTERNAL@@IAEXE@Z 005d2360 f   APU_INTERNAL.obj
 0002:000f7440       ?UpdateFrame@APU_INTERNAL@@IAEXXZ 005d2440 f   APU_INTERNAL.obj
 0002:000f7550       ?GetFrameIRQmode@NES@@QAEHXZ 005d2550 f i APU_INTERNAL.obj
 0002:000f7590       ?SyncRead@APU_INTERNAL@@QAEEG@Z 005d2590 f   APU_INTERNAL.obj
 0002:000f7770       ?Sync@APU_INTERNAL@@UAEHH@Z 005d2770 f   APU_INTERNAL.obj
 0002:000f7820       ?GetFreq@APU_INTERNAL@@UAEHH@Z 005d2820 f   APU_INTERNAL.obj
 0002:000f7ab0       ?WriteRectangle@APU_INTERNAL@@IAEXHGE@Z 005d2ab0 f   APU_INTERNAL.obj
 0002:000f7d10       ?UpdateRectangle@APU_INTERNAL@@IAEXAAURECTANGLE@1@H@Z 005d2d10 f   APU_INTERNAL.obj
 0002:000f7f40       ?SyncWriteRectangle@APU_INTERNAL@@IAEXHGE@Z 005d2f40 f   APU_INTERNAL.obj
 0002:000f8050       ?SyncUpdateRectangle@APU_INTERNAL@@IAEXAAURECTANGLE@1@H@Z 005d3050 f   APU_INTERNAL.obj
 0002:000f80f0       ?RenderRectangle@APU_INTERNAL@@IAEHAAURECTANGLE@1@@Z 005d30f0 f   APU_INTERNAL.obj
 0002:000f8500       ?WriteTriangle@APU_INTERNAL@@IAEXGE@Z 005d3500 f   APU_INTERNAL.obj
 0002:000f8650       ?UpdateTriangle@APU_INTERNAL@@IAEXH@Z 005d3650 f   APU_INTERNAL.obj
 0002:000f8770       ?SyncWriteTriangle@APU_INTERNAL@@IAEXGE@Z 005d3770 f   APU_INTERNAL.obj
 0002:000f8860       ?SyncUpdateTriangle@APU_INTERNAL@@IAEXH@Z 005d3860 f   APU_INTERNAL.obj
 0002:000f8980       ?RenderTriangle@APU_INTERNAL@@IAEHXZ 005d3980 f   APU_INTERNAL.obj
 0002:000f8eb0       ?WriteNoise@APU_INTERNAL@@IAEXGE@Z 005d3eb0 f   APU_INTERNAL.obj
 0002:000f9050       ?UpdateNoise@APU_INTERNAL@@IAEXH@Z 005d4050 f   APU_INTERNAL.obj
 0002:000f91d0       ?SyncWriteNoise@APU_INTERNAL@@IAEXGE@Z 005d41d0 f   APU_INTERNAL.obj
 0002:000f92a0       ?SyncUpdateNoise@APU_INTERNAL@@IAEXH@Z 005d42a0 f   APU_INTERNAL.obj
 0002:000f9350       ?NoiseShiftreg@APU_INTERNAL@@IAEEE@Z 005d4350 f   APU_INTERNAL.obj
 0002:000f9400       ?RenderNoise@APU_INTERNAL@@IAEHXZ 005d4400 f   APU_INTERNAL.obj
 0002:000f96b0       ?WriteDPCM@APU_INTERNAL@@IAEXGE@Z 005d46b0 f   APU_INTERNAL.obj
 0002:000f9830       ?GetVideoMode@NES@@QAEHXZ  005d4830 f i APU_INTERNAL.obj
 0002:000f9870       ?RenderDPCM@APU_INTERNAL@@IAEHXZ 005d4870 f   APU_INTERNAL.obj
 0002:000f9bc0       ?SyncWriteDPCM@APU_INTERNAL@@IAEXGE@Z 005d4bc0 f   APU_INTERNAL.obj
 0002:000f9d30       ?SyncUpdateDPCM@APU_INTERNAL@@IAEHH@Z 005d4d30 f   APU_INTERNAL.obj
 0002:000f9ec0       ?GetStateSize@APU_INTERNAL@@UAEHXZ 005d4ec0 f   APU_INTERNAL.obj
 0002:000f9f00       ?SaveState@APU_INTERNAL@@UAEXPAE@Z 005d4f00 f   APU_INTERNAL.obj
 0002:000fa0c0       ?LoadState@APU_INTERNAL@@UAEXPAE@Z 005d50c0 f   APU_INTERNAL.obj
 0002:000fa290       ??0APU_MMC5@@QAE@XZ        005d5290 f   APU_MMC5.obj
 0002:000fa310       ??1APU_MMC5@@QAE@XZ        005d5310 f   APU_MMC5.obj
 0002:000fa350       ?Reset@APU_MMC5@@UAEXMH@Z  005d5350 f   APU_MMC5.obj
 0002:000fa480       ?Setup@APU_MMC5@@UAEXMH@Z  005d5480 f   APU_MMC5.obj
 0002:000fa590       ?Write@APU_MMC5@@UAEXGE@Z  005d5590 f   APU_MMC5.obj
 0002:000fa950       ?SyncWrite@APU_MMC5@@QAEXGE@Z 005d5950 f   APU_MMC5.obj
 0002:000faba0       ?SyncRead@APU_MMC5@@QAEEG@Z 005d5ba0 f   APU_MMC5.obj
 0002:000fac40       ?Sync@APU_MMC5@@UAEHH@Z    005d5c40 f   APU_MMC5.obj
 0002:000fad30       ?Process@APU_MMC5@@UAEHH@Z 005d5d30 f   APU_MMC5.obj
 0002:000fadf0       ?GetFreq@APU_MMC5@@UAEHH@Z 005d5df0 f   APU_MMC5.obj
 0002:000faf20       ?RectangleRender@APU_MMC5@@IAEHAAURECTANGLE@1@@Z 005d5f20 f   APU_MMC5.obj
 0002:000fb1e0       ?GetStateSize@APU_MMC5@@UAEHXZ 005d61e0 f   APU_MMC5.obj
 0002:000fb220       ?SaveState@APU_MMC5@@UAEXPAE@Z 005d6220 f   APU_MMC5.obj
 0002:000fb370       ?LoadState@APU_MMC5@@UAEXPAE@Z 005d6370 f   APU_MMC5.obj
 0002:000fb4c0       ??0APU_N106@@QAE@XZ        005d64c0 f   APU_N106.obj
 0002:000fb5c0       ??1APU_N106@@QAE@XZ        005d65c0 f   APU_N106.obj
 0002:000fb600       ?Reset@APU_N106@@UAEXMH@Z  005d6600 f   APU_N106.obj
 0002:000fb6f0       ?Setup@APU_N106@@UAEXMH@Z  005d66f0 f   APU_N106.obj
 0002:000fb7b0       ?Write@APU_N106@@UAEXGE@Z  005d67b0 f   APU_N106.obj
 0002:000fba60       ?Read@APU_N106@@UAEEG@Z    005d6a60 f   APU_N106.obj
 0002:000fbae0       ?Process@APU_N106@@UAEHH@Z 005d6ae0 f   APU_N106.obj
 0002:000fbb70       ?GetFreq@APU_N106@@UAEHH@Z 005d6b70 f   APU_N106.obj
 0002:000fbcc0       ?ChannelRender@APU_N106@@IAEHAAUCHANNEL@1@@Z 005d6cc0 f   APU_N106.obj
 0002:000fbe50       ?GetStateSize@APU_N106@@UAEHXZ 005d6e50 f   APU_N106.obj
 0002:000fbe90       ?SaveState@APU_N106@@UAEXPAE@Z 005d6e90 f   APU_N106.obj
 0002:000fbf90       ?LoadState@APU_N106@@UAEXPAE@Z 005d6f90 f   APU_N106.obj
 0002:000fc090       ??0APU_VRC6@@QAE@XZ        005d7090 f   APU_VRC6.obj
 0002:000fc110       ??1APU_VRC6@@QAE@XZ        005d7110 f   APU_VRC6.obj
 0002:000fc150       ?Reset@APU_VRC6@@UAEXMH@Z  005d7150 f   APU_VRC6.obj
 0002:000fc210       ?Setup@APU_VRC6@@UAEXMH@Z  005d7210 f   APU_VRC6.obj
 0002:000fc280       ?Write@APU_VRC6@@UAEXGE@Z  005d7280 f   APU_VRC6.obj
 0002:000fc5f0       ?Process@APU_VRC6@@UAEHH@Z 005d75f0 f   APU_VRC6.obj
 0002:000fc6b0       ?GetFreq@APU_VRC6@@UAEHH@Z 005d76b0 f   APU_VRC6.obj
 0002:000fc840       ?RectangleRender@APU_VRC6@@IAEHAAURECTANGLE@1@@Z 005d7840 f   APU_VRC6.obj
 0002:000fca60       ?SawtoothRender@APU_VRC6@@IAEHAAUSAWTOOTH@1@@Z 005d7a60 f   APU_VRC6.obj
 0002:000fcc70       ?GetStateSize@APU_VRC6@@UAEHXZ 005d7c70 f   APU_VRC6.obj
 0002:000fccb0       ?SaveState@APU_VRC6@@UAEXPAE@Z 005d7cb0 f   APU_VRC6.obj
 0002:000fcd70       ?LoadState@APU_VRC6@@UAEXPAE@Z 005d7d70 f   APU_VRC6.obj
 0002:000fce30       ??0APU_VRC7@@QAE@XZ        005d7e30 f   APU_VRC7.obj
 0002:000fcf20       ??1APU_VRC7@@QAE@XZ        005d7f20 f   APU_VRC7.obj
 0002:000fcfa0       ?Reset@APU_VRC7@@UAEXMH@Z  005d7fa0 f   APU_VRC7.obj
 0002:000fd060       ?Setup@APU_VRC7@@UAEXMH@Z  005d8060 f   APU_VRC7.obj
 0002:000fd100       ?Write@APU_VRC7@@UAEXGE@Z  005d8100 f   APU_VRC7.obj
 0002:000fd1a0       ?Process@APU_VRC7@@UAEHH@Z 005d81a0 f   APU_VRC7.obj
 0002:000fd210       ?GetFreq@APU_VRC7@@UAEHH@Z 005d8210 f   APU_VRC7.obj
 0002:000fd390       ??0APU@@QAE@PAVNES@@@Z     005d8390 f   APU.obj
 0002:000fd5c0       ?SetParent@APU_INTERNAL@@QAEXPAVNES@@@Z 005d85c0 f i APU.obj
 0002:000fd610       ??_GAPU@@UAEPAXI@Z         005d8610 f i APU.obj
 0002:000fd610       ??_EAPU@@UAEPAXI@Z         005d8610 f i APU.obj
 0002:000fd680       ??1APU@@UAE@XZ             005d8680 f   APU.obj
 0002:000fd7b0       ?SetQueue@APU@@IAEXHGE@Z   005d87b0 f   APU.obj
 0002:000fd890       ?GetQueue@APU@@IAEHHAAUQUEUEDATA@1@@Z 005d8890 f   APU.obj
 0002:000fd950       ?SetExQueue@APU@@IAEXHGE@Z 005d8950 f   APU.obj
 0002:000fda60       ?GetExQueue@APU@@IAEHHAAUQUEUEDATA@1@@Z 005d8a60 f   APU.obj
 0002:000fdb50       ?QueueClear@APU@@QAEXXZ    005d8b50 f   APU.obj
 0002:000fdbd0       ?QueueFlush@APU@@IAEXXZ    005d8bd0 f   APU.obj
 0002:000fdd20       ?SoundSetup@APU@@QAEXXZ    005d8d20 f   APU.obj
 0002:000fdf00       ?Reset@APU@@QAEXXZ         005d8f00 f   APU.obj
 0002:000fe130       ?SelectExSound@APU@@QAEXE@Z 005d9130 f   APU.obj
 0002:000fe180       ?Read@APU@@QAEEG@Z         005d9180 f   APU.obj
 0002:000fe1e0       ?Write@APU@@QAEXGE@Z       005d91e0 f   APU.obj
 0002:000fe290       ?ExRead@APU@@QAEEG@Z       005d9290 f   APU.obj
 0002:000fe3c0       ?ExWrite@APU@@QAEXGE@Z     005d93c0 f   APU.obj
 0002:000fe4d0       ?Sync@APU@@QAEXXZ          005d94d0 f   APU.obj
 0002:000fe510       ?SyncDPCM@APU@@QAEXH@Z     005d9510 f   APU.obj
 0002:000fe610       ?WriteProcess@APU@@IAEXGE@Z 005d9610 f   APU.obj
 0002:000fe6b0       ?WriteExProcess@APU@@IAEXGE@Z 005d96b0 f   APU.obj
 0002:000fe8f0       ?Process@APU@@QAEXPAEK@Z   005d98f0 f   APU.obj
 0002:000ffe00       ?GetChannelFrequency@APU@@QAEHH@Z 005dae00 f   APU.obj
 0002:00100230       ?SaveState@APU@@QAEXPAE@Z  005db230 f   APU.obj
 0002:001005e0       ?LoadState@APU@@QAEXPAE@Z  005db5e0 f   APU.obj
 0002:00100960       ??0CPU@@QAE@PAVNES@@@Z     005db960 f   Cpu.obj
 0002:001009d0       ??_ECPU@@UAEPAXI@Z         005db9d0 f i Cpu.obj
 0002:001009d0       ??_GCPU@@UAEPAXI@Z         005db9d0 f i Cpu.obj
 0002:00100a40       ??1CPU@@UAE@XZ             005dba40 f   Cpu.obj
 0002:00100a80       ?Reset@CPU@@QAEXXZ         005dba80 f   Cpu.obj
 0002:00100bb0       ?RD6502W@CPU@@QAEGG@Z      005dbbb0 f i Cpu.obj
 0002:00100c90       ?GetDmaCycles@CPU@@QAEHXZ  005dbc90 f   Cpu.obj
 0002:00100cd0       ?SetDmaCycles@CPU@@QAEXH@Z 005dbcd0 f   Cpu.obj
 0002:00100d20       ?GetTotalCycles@CPU@@QAEHXZ 005dbd20 f   Cpu.obj
 0002:00100d60       ?SetTotalCycles@CPU@@QAEXH@Z 005dbd60 f   Cpu.obj
 0002:00100db0       ?DMA@CPU@@QAEXH@Z          005dbdb0 f   Cpu.obj
 0002:00100e00       ?NMI@CPU@@QAEXXZ           005dbe00 f   Cpu.obj
 0002:00100e60       ?SetIRQ@CPU@@QAEXE@Z       005dbe60 f   Cpu.obj
 0002:00100eb0       ?ClrIRQ@CPU@@QAEXE@Z       005dbeb0 f   Cpu.obj
 0002:00100f10       ?EXEC@CPU@@QAEHH@Z         005dbf10 f   Cpu.obj
 0002:0010e440       ?OP6502@@YAEG@Z            005e9440 f i Cpu.obj
 0002:0010e490       ?OP6502W@@YAGG@Z           005e9490 f i Cpu.obj
 0002:0010e4f0       ?RD6502@CPU@@QAEEG@Z       005e94f0 f i Cpu.obj
 0002:0010e600       ?WR6502@CPU@@QAEXGE@Z      005e9600 f i Cpu.obj
 0002:0010e690       ?ApplyIPS@@YAHPBDPAEJ@Z    005e9690 f   IPS.obj
 0002:0010f3b0       ??0?$vector@EV?$allocator@E@std@@@std@@QAE@XZ 005ea3b0 f i IPS.obj
 0002:0010f470       ??1?$vector@EV?$allocator@E@std@@@std@@QAE@XZ 005ea470 f i IPS.obj
 0002:0010f510       ?reserve@?$vector@EV?$allocator@E@std@@@std@@QAEXI@Z 005ea510 f i IPS.obj
 0002:0010f720       ??A?$vector@EV?$allocator@E@std@@@std@@QAEAAEI@Z 005ea720 f i IPS.obj
 0002:0010f860       ??1?$_Vector_val@EV?$allocator@E@std@@@std@@QAE@XZ 005ea860 f i IPS.obj
 0002:0010f8b0       ??1?$_Vector_iterator@EV?$allocator@E@std@@@std@@QAE@XZ 005ea8b0 f i IPS.obj
 0002:0010f900       ??1?$_Vector_const_iterator@EV?$allocator@E@std@@@std@@QAE@XZ 005ea900 f i IPS.obj
 0002:0010f950       ??1?$_Ranit@EHPBEABE@std@@QAE@XZ 005ea950 f i IPS.obj
 0002:0010f9a0       ??1?$_Iterator_with_base@Urandom_access_iterator_tag@std@@EHPBEABEV_Iterator_base@2@@std@@QAE@XZ 005ea9a0 f i IPS.obj
 0002:0010f9f0       ?capacity@?$vector@EV?$allocator@E@std@@@std@@QBEIXZ 005ea9f0 f i IPS.obj
 0002:0010fa60       ?begin@?$vector@EV?$allocator@E@std@@@std@@QAE?AV?$_Vector_iterator@EV?$allocator@E@std@@@2@XZ 005eaa60 f i IPS.obj
 0002:0010faf0       ?end@?$vector@EV?$allocator@E@std@@@std@@QAE?AV?$_Vector_iterator@EV?$allocator@E@std@@@2@XZ 005eaaf0 f i IPS.obj
 0002:0010fb80       ?size@?$vector@EV?$allocator@E@std@@@std@@QBEIXZ 005eab80 f i IPS.obj
 0002:0010fbd0       ?max_size@?$vector@EV?$allocator@E@std@@@std@@QBEIXZ 005eabd0 f i IPS.obj
 0002:0010fc30       ?_Buy@?$vector@EV?$allocator@E@std@@@std@@IAE_NI@Z 005eac30 f i IPS.obj
 0002:0010fd10       ?_Destroy@?$vector@EV?$allocator@E@std@@@std@@IAEXPAE0@Z 005ead10 f i IPS.obj
 0002:0010fd80       ?_Tidy@?$vector@EV?$allocator@E@std@@@std@@IAEXXZ 005ead80 f i IPS.obj
 0002:0010fe50       ?_Xlen@?$vector@EV?$allocator@E@std@@@std@@KAXXZ 005eae50 f i IPS.obj
 0002:0010ff30       ??0?$_Vector_val@EV?$allocator@E@std@@@std@@IAE@V?$allocator@E@1@@Z 005eaf30 f i IPS.obj
 0002:0010ffb0       ??1?$_Container_base_aux_alloc_empty@V?$allocator@E@std@@@std@@IAE@XZ 005eafb0 f i IPS.obj
 0002:00110000       ??0?$allocator@E@std@@QAE@XZ 005eb000 f i IPS.obj
 0002:00110040       ?deallocate@?$allocator@E@std@@QAEXPAEI@Z 005eb040 f i IPS.obj
 0002:001100a0       ?allocate@?$allocator@E@std@@QAEPAEI@Z 005eb0a0 f i IPS.obj
 0002:00110100       ??0?$_Container_base_aux_alloc_empty@V?$allocator@E@std@@@std@@IAE@V?$allocator@E@1@@Z 005eb100 f i IPS.obj
 0002:00110160       ??0?$allocator@E@std@@QAE@ABV01@@Z 005eb160 f i IPS.obj
 0002:001101a0       ?max_size@?$allocator@E@std@@QBEIXZ 005eb1a0 f i IPS.obj
 0002:00110210       ??0?$_Vector_iterator@EV?$allocator@E@std@@@std@@QAE@PAEPBV_Container_base_secure@1@@Z 005eb210 f i IPS.obj
 0002:00110270       ??0?$_Vector_const_iterator@EV?$allocator@E@std@@@std@@QAE@PAEPBV_Container_base_secure@1@@Z 005eb270 f i IPS.obj
 0002:001103a0       ??0?$_Ranit@EHPBEABE@std@@QAE@XZ 005eb3a0 f i IPS.obj
 0002:00110400       ??0?$_Iterator_with_base@Urandom_access_iterator_tag@std@@EHPBEABEV_Iterator_base@2@@std@@QAE@XZ 005eb400 f i IPS.obj
 0002:00110460       ??$?9DU?$char_traits@D@std@@V?$allocator@D@1@@std@@YA_NABV?$basic_string@DU?$char_traits@D@std@@V?$allocator@D@2@@0@PBD@Z 005eb460 f i IPS.obj
 0002:001104c0       ??$_Umove@V?$_Vector_iterator@EV?$allocator@E@std@@@std@@@?$vector@EV?$allocator@E@std@@@std@@IAEPAEV?$_Vector_iterator@EV?$allocator@E@std@@@1@0PAE@Z 005eb4c0 f i IPS.obj
 0002:00110600       ??$_Destroy_range@V?$allocator@E@std@@@std@@YAXPAE0AAV?$allocator@E@0@@Z 005eb600 f i IPS.obj
 0002:00110680       ??$_Allocate@E@std@@YAPAEIPAE@Z 005eb680 f i IPS.obj
 0002:00110720       ??0?$_Vector_iterator@EV?$allocator@E@std@@@std@@QAE@ABV01@@Z 005eb720 f i IPS.obj
 0002:00110780       ??0?$_Vector_const_iterator@EV?$allocator@E@std@@@std@@QAE@ABV01@@Z 005eb780 f i IPS.obj
 0002:001107f0       ??0?$_Ranit@EHPBEABE@std@@QAE@ABU01@@Z 005eb7f0 f i IPS.obj
 0002:00110850       ??0?$_Iterator_with_base@Urandom_access_iterator_tag@std@@EHPBEABEV_Iterator_base@2@@std@@QAE@ABU01@@Z 005eb850 f i IPS.obj
 0002:001108b0       ??$?8DU?$char_traits@D@std@@V?$allocator@D@1@@std@@YA_NABV?$basic_string@DU?$char_traits@D@std@@V?$allocator@D@2@@0@PBD@Z 005eb8b0 f i IPS.obj
 0002:00110910       ??$_Unchecked_uninitialized_move@V?$_Vector_iterator@EV?$allocator@E@std@@@std@@PAEV?$allocator@E@2@@stdext@@YAPAEV?$_Vector_iterator@EV?$allocator@E@std@@@std@@0PAEAAV?$allocator@E@2@@Z 005eb910 f i IPS.obj
 0002:00110a80       ??$_Ptr_cat@PAEPAE@std@@YA?AU_Scalar_ptr_iterator_tag@0@AAPAE0@Z 005eba80 f i IPS.obj
 0002:00110af0       ??$_Destroy_range@V?$allocator@E@std@@@std@@YAXPAE0AAV?$allocator@E@0@U_Scalar_ptr_iterator_tag@0@@Z 005ebaf0 f i IPS.obj
 0002:00110b20       ??$_Checked_base@V?$_Vector_iterator@EV?$allocator@E@std@@@std@@@std@@YA?AV?$_Vector_iterator@EV?$allocator@E@std@@@0@AAV10@@Z 005ebb20 f i IPS.obj
 0002:00110be0       ??$_Move_cat@PAE@std@@YA?AU_Undefined_move_tag@0@ABQAE@Z 005ebbe0 f i IPS.obj
 0002:00110c50       ??$_Uninit_move@V?$_Vector_iterator@EV?$allocator@E@std@@@std@@PAEV?$allocator@E@2@U_Undefined_move_tag@2@@std@@YAPAEV?$_Vector_iterator@EV?$allocator@E@std@@@0@0PAEAAV?$allocator@E@0@U_Undefined_move_tag@0@U_Range_checked_iterator_tag@0@@Z 005ebc50 f i IPS.obj
 0002:00110d80       ??$_Checked_base@V?$_Vector_iterator@EV?$allocator@E@std@@@std@@@std@@YA?AV?$_Vector_iterator@EV?$allocator@E@std@@@0@AAV10@U_Unchanged_checked_iterator_base_type_tag@0@@Z 005ebd80 f i IPS.obj
 0002:00110df0       ??$unchecked_uninitialized_copy@V?$_Vector_iterator@EV?$allocator@E@std@@@std@@PAEV?$allocator@E@2@@stdext@@YAPAEV?$_Vector_iterator@EV?$allocator@E@std@@@std@@0PAEAAV?$allocator@E@2@@Z 005ebdf0 f i IPS.obj
 0002:00110f60       ??$_Ptr_cat@V?$_Vector_iterator@EV?$allocator@E@std@@@std@@PAE@std@@YA?AU_Scalar_ptr_iterator_tag@0@AAV?$_Vector_iterator@EV?$allocator@E@std@@@0@AAPAE@Z 005ebf60 f i IPS.obj
 0002:00110fd0       ??$_Uninit_copy@V?$_Vector_iterator@EV?$allocator@E@std@@@std@@PAEV?$allocator@E@2@@std@@YAPAEV?$_Vector_iterator@EV?$allocator@E@std@@@0@0PAEAAV?$allocator@E@0@U_Scalar_ptr_iterator_tag@0@U_Range_checked_iterator_tag@0@@Z 005ebfd0 f i IPS.obj
 0002:00111160       ??$_Debug_pointer@E@std@@YAXPAEPB_WI@Z 005ec160 f i IPS.obj
 0002:001111c0       ??D?$_Vector_iterator@EV?$allocator@E@std@@@std@@QBEAAEXZ 005ec1c0 f i IPS.obj
 0002:00111210       ??G?$_Vector_iterator@EV?$allocator@E@std@@@std@@QBEHABV?$_Vector_const_iterator@EV?$allocator@E@std@@@1@@Z 005ec210 f i IPS.obj
 0002:00111270       ??D?$_Vector_const_iterator@EV?$allocator@E@std@@@std@@QBEABEXZ 005ec270 f i IPS.obj
 0002:00111360       ??G?$_Vector_const_iterator@EV?$allocator@E@std@@@std@@QBEHABV01@@Z 005ec360 f i IPS.obj
 0002:001113d0       ?_Compat@?$_Vector_const_iterator@EV?$allocator@E@std@@@std@@QBEXABV12@@Z 005ec3d0 f i IPS.obj
 0002:001114a0       ??$_Debug_range@V?$_Vector_iterator@EV?$allocator@E@std@@@std@@@std@@YAXV?$_Vector_iterator@EV?$allocator@E@std@@@0@0PB_WI@Z 005ec4a0 f i IPS.obj
 0002:001115d0       ??$_Iter_cat@V?$_Vector_iterator@EV?$allocator@E@std@@@std@@@std@@YA?AUrandom_access_iterator_tag@0@ABV?$_Vector_iterator@EV?$allocator@E@std@@@0@@Z 005ec5d0 f i IPS.obj
 0002:00111640       ??$_Debug_range2@V?$_Vector_iterator@EV?$allocator@E@std@@@std@@@std@@YAXV?$_Vector_iterator@EV?$allocator@E@std@@@0@0PB_WIUrandom_access_iterator_tag@0@@Z 005ec640 f i IPS.obj
 0002:00111760       ??9?$_Vector_const_iterator@EV?$allocator@E@std@@@std@@QBE_NABV01@@Z 005ec760 f i IPS.obj
 0002:001117d0       ??M?$_Vector_const_iterator@EV?$allocator@E@std@@@std@@QBE_NABV01@@Z 005ec7d0 f i IPS.obj
 0002:00111840       ??8?$_Vector_const_iterator@EV?$allocator@E@std@@@std@@QBE_NABV01@@Z 005ec840 f i IPS.obj
 0002:001118b0       ??$_Debug_pointer@V?$_Vector_iterator@EV?$allocator@E@std@@@std@@@std@@YAXAAV?$_Vector_iterator@EV?$allocator@E@std@@@0@PB_WI@Z 005ec8b0 f i IPS.obj
 0002:001118e0       ?NesSub_MemoryInitial@@YAXXZ 005ec8e0 f   MMU.obj
 0002:00111ba0       ?SetPROM_Bank@@YAXEPAEE@Z  005ecba0 f   MMU.obj
 0002:00111c10       ?SetPROM_8K_Bank@@YAXEH@Z  005ecc10 f   MMU.obj
 0002:00111c90       ?SetPROM_16K_Bank@@YAXEH@Z 005ecc90 f   MMU.obj
 0002:00111d10       ?SetPROM_32K_Bank@@YAXH@Z  005ecd10 f   MMU.obj
 0002:00111dc0       ?SetPROM_32K_Bank@@YAXHHHH@Z 005ecdc0 f   MMU.obj
 0002:00111e50       ?SetVROM_Bank@@YAXEPAEE@Z  005ece50 f   MMU.obj
 0002:00111ec0       ?SetVROM_1K_Bank@@YAXEH@Z  005ecec0 f   MMU.obj
 0002:00111f40       ?SetVROM_2K_Bank@@YAXEH@Z  005ecf40 f   MMU.obj
 0002:00111fc0       ?SetVROM_4K_Bank@@YAXEH@Z  005ecfc0 f   MMU.obj
 0002:00112080       ?SetVROM_8K_Bank@@YAXH@Z   005ed080 f   MMU.obj
 0002:00112100       ?SetVROM_8K_Bank@@YAXHHHHHHHH@Z 005ed100 f   MMU.obj
 0002:001121d0       ?SetCRAM_1K_Bank@@YAXEH@Z  005ed1d0 f   MMU.obj
 0002:00112260       ?SetCRAM_2K_Bank@@YAXEH@Z  005ed260 f   MMU.obj
 0002:001122e0       ?SetCRAM_4K_Bank@@YAXEH@Z  005ed2e0 f   MMU.obj
 0002:001123a0       ?SetCRAM_8K_Bank@@YAXH@Z   005ed3a0 f   MMU.obj
 0002:00112420       ?SetVRAM_1K_Bank@@YAXEH@Z  005ed420 f   MMU.obj
 0002:001124a0       ?SetVRAM_Bank@@YAXHHHH@Z   005ed4a0 f   MMU.obj
 0002:00112530       ?SetVRAM_Mirror@@YAXH@Z    005ed530 f   MMU.obj
 0002:00112620       ?SetVRAM_Mirror@@YAXHHHH@Z 005ed620 f   MMU.obj
 0002:001126b0       ??0NES@@QAE@PBD@Z          005ed6b0 f   Nes.obj
 0002:001141d0       ?GetRenderMethod@NES@@QAE?AW4RENDERMETHOD@1@XZ 005ef1d0 f i Nes.obj
 0002:00114210       ?SetVSMode@PPU@@QAEXH@Z    005ef210 f i Nes.obj
 0002:00114260       ?SetVSSecurity@PPU@@QAEXE@Z 005ef260 f i Nes.obj
 0002:001142b0       ?SetVSColorMap@PPU@@QAEXH@Z 005ef2b0 f i Nes.obj
 0002:00114300       ?SetVSType@PAD@@QAEXH@Z    005ef300 f i Nes.obj
 0002:00114350       ?IsUnifMapper@ROM@@QAEHXZ  005ef350 f i Nes.obj
 0002:00114390       ?GetUnifBoard@ROM@@QAEHXZ  005ef390 f i Nes.obj
 0002:001143d0       ?GetBoardName@ROM@@QAEPADXZ 005ef3d0 f i Nes.obj
 0002:00114410       ??_GNES@@UAEPAXI@Z         005ef410 f i Nes.obj
 0002:00114410       ??_ENES@@UAEPAXI@Z         005ef410 f i Nes.obj
 0002:00114480       ??1NES@@UAE@XZ             005ef480 f   Nes.obj
 0002:00114880       ?SetVideoMode@NES@@QAEXH@Z 005ef880 f   Nes.obj
 0002:00114910       ?Reset@NES@@QAEXXZ         005ef910 f   Nes.obj
 0002:00114d50       ?GetVROM@ROM@@QAEPAEXZ     005efd50 f i Nes.obj
 0002:00114d90       ?GetTRAINER@ROM@@QAEPAEXZ  005efd90 f i Nes.obj
 0002:00114dd0       ?IsPAL@ROM@@QAEHXZ         005efdd0 f i Nes.obj
 0002:00114e10       ?SoftReset@NES@@QAEXXZ     005efe10 f   Nes.obj
 0002:00114ef0       ?EmulationCPU@NES@@QAEXH@Z 005efef0 f   Nes.obj
 0002:00114fc0       ?EmulationCPU_BeforeNMI@NES@@QAEXH@Z 005effc0 f   Nes.obj
 0002:00115060       ?EmulateFrame@NES@@QAEXH@Z 005f0060 f   Nes.obj
 0002:00115d90       ?IsZapperMode@PAD@@QAEHXZ  005f0d90 f i Nes.obj
 0002:00115dd0       ?EmulateNSF@NES@@QAEXXZ    005f0dd0 f   Nes.obj
 0002:00116120       ?SetContext@CPU@@QAEXUR6502@@@Z 005f1120 f i Nes.obj
 0002:00116170       ?GetContext@CPU@@QAEXAAUR6502@@@Z 005f1170 f i Nes.obj
 0002:001161c0       ?SetNsfPlay@NES@@QAEXHH@Z  005f11c0 f   Nes.obj
 0002:00116230       ?SetNsfStop@NES@@QAEXXZ    005f1230 f   Nes.obj
 0002:00116290       ?Clock@NES@@QAEXH@Z        005f1290 f   Nes.obj
 0002:00116300       ?Read@NES@@QAEEG@Z         005f1300 f   Nes.obj
 0002:00116490       ?Write@NES@@QAEXGE@Z       005f1490 f   Nes.obj
 0002:00116650       ?ReadReg@NES@@IAEEG@Z      005f1650 f   Nes.obj
 0002:00116860       ?WriteReg@NES@@IAEXGE@Z    005f1860 f   Nes.obj
 0002:00116ab0       ?LoadSRAM@NES@@IAEXXZ      005f1ab0 f   Nes.obj
 0002:00116f60       ?SaveSRAM@NES@@IAEXXZ      005f1f60 f   Nes.obj
 0002:00117460       ?LoadDISK@NES@@IAEXXZ      005f2460 f   Nes.obj
 0002:00118060       ?SaveDISK@NES@@IAEXXZ      005f3060 f   Nes.obj
 0002:00118750       ?LoadTurboFile@NES@@IAEXXZ 005f3750 f   Nes.obj
 0002:00118bf0       ?SaveTurboFile@NES@@IAEXXZ 005f3bf0 f   Nes.obj
 0002:001190d0       ?IsStateFile@NES@@SAHPBDPAVROM@@@Z 005f40d0 f   Nes.obj
 0002:001192d0       ?LoadState@NES@@QAEHPBD@Z  005f42d0 f   Nes.obj
 0002:00119510       ?SaveState@NES@@QAEHPBD@Z  005f4510 f   Nes.obj
 0002:00119720       ?ReadState@NES@@IAEHPAU_iobuf@@@Z 005f4720 f   Nes.obj
 0002:0011ab30       ?SetFrameIRQ@APU@@QAEXHEEEE@Z 005f5b30 f i Nes.obj
 0002:0011abb0       ?SetFrameIRQ@APU_INTERNAL@@QAEXHEEEE@Z 005f5bb0 f i Nes.obj
 0002:0011ac30       ?SetStrobe@PAD@@QAEXH@Z    005f5c30 f i Nes.obj
 0002:0011ac80       ?WriteState@NES@@IAEXPAU_iobuf@@@Z 005f5c80 f   Nes.obj
 0002:0011be90       ?GetFrameIRQ@APU@@QAEXAAHAAE111@Z 005f6e90 f i Nes.obj
 0002:0011bf10       ?GetFrameIRQ@APU_INTERNAL@@QAEXAAHAAE111@Z 005f6f10 f i Nes.obj
 0002:0011bf90       ?GetStrobe@PAD@@QAEHXZ     005f6f90 f i Nes.obj
 0002:0011bfd0       ?GetDiskNo@NES@@QAEHXZ     005f6fd0 f   Nes.obj
 0002:0011c030       ?SoundSetup@NES@@QAEXXZ    005f7030 f   Nes.obj
 0002:0011c090       ?Command@NES@@QAEXW4NESCOMMAND@1@@Z 005f7090 f   Nes.obj
 0002:0011c0f0       ?CommandParam@NES@@QAEHW4NESCOMMAND@1@H@Z 005f70f0 f   Nes.obj
 0002:0011c560       ?SetChannelMute@APU@@QAEHH@Z 005f7560 f i Nes.obj
 0002:0011c5d0       ?Snapshot@NES@@QAEHXZ      005f75d0 f   Nes.obj
 0002:0011cf70       ?Write@PNGWRITE@@QAE_NPBDHHPAUtagRGBQUAD@@PAEK@Z 005f7f70 f i Nes.obj
 0002:0011d480       ?ConvertNetworkOrder@PNGWRITE@@IAEXIPAE@Z 005f8480 f i Nes.obj
 0002:0011d4f0       ?WriteSignature@PNGWRITE@@IAE_NPAU_iobuf@@@Z 005f84f0 f i Nes.obj
 0002:0011d5e0       ?WriteChunk@PNGWRITE@@IAE_NPAU_iobuf@@IPAEI@Z 005f85e0 f i Nes.obj
 0002:0011d780       ?IsMovieFile@NES@@SAHPBDPAVROM@@@Z 005f8780 f   Nes.obj
 0002:0011d990       ?MoviePlay@NES@@QAEHPBD@Z  005f8990 f   Nes.obj
 0002:0011df50       ?MovieRec@NES@@QAEHPBD@Z   005f8f50 f   Nes.obj
 0002:0011e5a0       ?MovieRecAppend@NES@@QAEHPBD@Z 005f95a0 f   Nes.obj
 0002:0011eff0       ?MovieStop@NES@@QAEHXZ     005f9ff0 f   Nes.obj
 0002:0011f320       ?GetMovieInfo@NES@@QAEXAAG0AAK1@Z 005fa320 f   Nes.obj
 0002:0011f3b0       ?Movie@NES@@QAEXXZ         005fa3b0 f   Nes.obj
 0002:0011fc30       ?CheatInitial@NES@@QAEXXZ  005fac30 f   Nes.obj
 0002:0011fc90       ?IsCheatCodeAdd@NES@@QAEHXZ 005fac90 f   Nes.obj
 0002:0011fcf0       ?GetCheatCodeNum@NES@@QAEHXZ 005facf0 f   Nes.obj
 0002:0011fd50       ?GetCheatCode@NES@@QAEHHAAVCHEATCODE@@@Z 005fad50 f   Nes.obj
 0002:0011fde0       ?SetCheatCodeFlag@NES@@QAEXHH@Z 005fade0 f   Nes.obj
 0002:0011fec0       ?SetCheatCodeAllFlag@NES@@QAEXHH@Z 005faec0 f   Nes.obj
 0002:00120060       ?ReplaceCheatCode@NES@@QAEXHVCHEATCODE@@@Z 005fb060 f   Nes.obj
 0002:00120190       ?AddCheatCode@NES@@QAEXVCHEATCODE@@@Z 005fb190 f   Nes.obj
 0002:00120290       ?DelCheatCode@NES@@QAEXH@Z 005fb290 f   Nes.obj
 0002:00120420       ?CheatRead@NES@@QAEKHG@Z   005fb420 f   Nes.obj
 0002:001204d0       ?CheatWrite@NES@@QAEXHGK@Z 005fb4d0 f   Nes.obj
 0002:00120570       ?CheatCodeProcess@NES@@QAEXXZ 005fb570 f   Nes.obj
 0002:001208e0       ?GenieInitial@NES@@QAEXXZ  005fb8e0 f   Nes.obj
 0002:00120950       ?GenieLoad@NES@@QAEXPAD@Z  005fb950 f   Nes.obj
 0002:001211c0       ?GenieCodeProcess@NES@@QAEXXZ 005fc1c0 f   Nes.obj
 0002:00121340       ?DrawPad@NES@@IAEXXZ       005fc340 f   Nes.obj
 0002:00121790       ?DrawBitmap@NES@@IAEXHHPAE@Z 005fc790 f   Nes.obj
 0002:001218c0       ?TapePlay@NES@@QAEHPBD@Z   005fc8c0 f   Nes.obj
 0002:001219f0       ?SetClockProcess@CPU@@QAEXH@Z 005fc9f0 f i Nes.obj
 0002:00121a40       ?TapeRec@NES@@QAEHPBD@Z    005fca40 f   Nes.obj
 0002:00121b70       ?TapeStop@NES@@QAEXXZ      005fcb70 f   Nes.obj
 0002:00121c40       ?Tape@NES@@QAEXH@Z         005fcc40 f   Nes.obj
 0002:00121de0       ?Barcode@NES@@QAEXH@Z      005fcde0 f   Nes.obj
 0002:00121f50       ?SetBarcodeData@NES@@QAEXPAEH@Z 005fcf50 f   Nes.obj
 0002:00123100       ?Barcode2@NES@@QAEEXZ      005fe100 f   Nes.obj
 0002:00123320       ?SetBarcode2Data@NES@@QAEXPAEH@Z 005fe320 f   Nes.obj
 0002:00123440       ?DrawFont@NES@@IAEXHHEE@Z  005fe440 f   Nes.obj
 0002:001235e0       ?DrawString@NES@@IAEXHHPADE@Z 005fe5e0 f   Nes.obj
 0002:00123670       ?erase@?$vector@VCHEATCODE@@V?$allocator@VCHEATCODE@@@std@@@std@@QAE?AV?$_Vector_iterator@VCHEATCODE@@V?$allocator@VCHEATCODE@@@std@@@2@V?$_Vector_const_iterator@VCHEATCODE@@V?$allocator@VCHEATCODE@@@std@@@2@@Z 005fe670 f i Nes.obj
 0002:001237f0       ??0?$vector@VGENIECODE@@V?$allocator@VGENIECODE@@@std@@@std@@QAE@XZ 005fe7f0 f i Nes.obj
 0002:001238b0       ??1?$vector@VGENIECODE@@V?$allocator@VGENIECODE@@@std@@@std@@QAE@XZ 005fe8b0 f i Nes.obj
 0002:00123950       ?size@?$vector@VGENIECODE@@V?$allocator@VGENIECODE@@@std@@@std@@QBEIXZ 005fe950 f i Nes.obj
 0002:001239a0       ??A?$vector@VGENIECODE@@V?$allocator@VGENIECODE@@@std@@@std@@QAEAAVGENIECODE@@I@Z 005fe9a0 f i Nes.obj
 0002:00123ae0       ?push_back@?$vector@VGENIECODE@@V?$allocator@VGENIECODE@@@std@@@std@@QAEXABVGENIECODE@@@Z 005feae0 f i Nes.obj
 0002:00123c50       ?clear@?$vector@VGENIECODE@@V?$allocator@VGENIECODE@@@std@@@std@@QAEXXZ 005fec50 f i Nes.obj
 0002:00123de0       ??C?$_Vector_iterator@VCHEATCODE@@V?$allocator@VCHEATCODE@@@std@@@std@@QBEPAVCHEATCODE@@XZ 005fede0 f i Nes.obj
 0002:00123e30       ??E?$_Vector_iterator@VCHEATCODE@@V?$allocator@VCHEATCODE@@@std@@@std@@QAE?AV01@H@Z 005fee30 f i Nes.obj
 0002:00123f50       ??1?$_Vector_val@VGENIECODE@@V?$allocator@VGENIECODE@@@std@@@std@@QAE@XZ 005fef50 f i Nes.obj
 0002:00123fa0       ??1?$_Vector_iterator@VGENIECODE@@V?$allocator@VGENIECODE@@@std@@@std@@QAE@XZ 005fefa0 f i Nes.obj
 0002:00123ff0       ??0?$_Vector_const_iterator@VGENIECODE@@V?$allocator@VGENIECODE@@@std@@@std@@QAE@ABV01@@Z 005feff0 f i Nes.obj
 0002:00124060       ??1?$_Vector_const_iterator@VGENIECODE@@V?$allocator@VGENIECODE@@@std@@@std@@QAE@XZ 005ff060 f i Nes.obj
 0002:001240b0       ??0?$_Ranit@VGENIECODE@@HPBV1@ABV1@@std@@QAE@ABU01@@Z 005ff0b0 f i Nes.obj
 0002:00124110       ??1?$_Ranit@VGENIECODE@@HPBV1@ABV1@@std@@QAE@XZ 005ff110 f i Nes.obj
 0002:00124160       ??0?$_Iterator_with_base@Urandom_access_iterator_tag@std@@VGENIECODE@@HPBV3@ABV3@V_Iterator_base@2@@std@@QAE@ABU01@@Z 005ff160 f i Nes.obj
 0002:001241c0       ??1?$_Iterator_with_base@Urandom_access_iterator_tag@std@@VGENIECODE@@HPBV3@ABV3@V_Iterator_base@2@@std@@QAE@XZ 005ff1c0 f i Nes.obj
 0002:00124210       ?capacity@?$vector@VGENIECODE@@V?$allocator@VGENIECODE@@@std@@@std@@QBEIXZ 005ff210 f i Nes.obj
 0002:00124280       ?begin@?$vector@VGENIECODE@@V?$allocator@VGENIECODE@@@std@@@std@@QAE?AV?$_Vector_iterator@VGENIECODE@@V?$allocator@VGENIECODE@@@std@@@2@XZ 005ff280 f i Nes.obj
 0002:00124310       ?end@?$vector@VGENIECODE@@V?$allocator@VGENIECODE@@@std@@@std@@QAE?AV?$_Vector_iterator@VGENIECODE@@V?$allocator@VGENIECODE@@@std@@@2@XZ 005ff310 f i Nes.obj
 0002:001243a0       ?insert@?$vector@VGENIECODE@@V?$allocator@VGENIECODE@@@std@@@std@@QAE?AV?$_Vector_iterator@VGENIECODE@@V?$allocator@VGENIECODE@@@std@@@2@V?$_Vector_const_iterator@VGENIECODE@@V?$allocator@VGENIECODE@@@std@@@2@ABVGENIECODE@@@Z 005ff3a0 f i Nes.obj
 0002:001245a0       ?erase@?$vector@VGENIECODE@@V?$allocator@VGENIECODE@@@std@@@std@@QAE?AV?$_Vector_iterator@VGENIECODE@@V?$allocator@VGENIECODE@@@std@@@2@V?$_Vector_const_iterator@VGENIECODE@@V?$allocator@VGENIECODE@@@std@@@2@0@Z 005ff5a0 f i Nes.obj
 0002:00124830       ?_Buy@?$vector@VGENIECODE@@V?$allocator@VGENIECODE@@@std@@@std@@IAE_NI@Z 005ff830 f i Nes.obj
 0002:00124910       ?_Tidy@?$vector@VGENIECODE@@V?$allocator@VGENIECODE@@@std@@@std@@IAEXXZ 005ff910 f i Nes.obj
 0002:001249e0       ?_Ufill@?$vector@VGENIECODE@@V?$allocator@VGENIECODE@@@std@@@std@@IAEPAVGENIECODE@@PAV3@IABV3@@Z 005ff9e0 f i Nes.obj
 0002:00124a60       ?_Orphan_range@?$vector@VGENIECODE@@V?$allocator@VGENIECODE@@@std@@@std@@IBEXPAVGENIECODE@@0@Z 005ffa60 f i Nes.obj
 0002:00124b60       ??0?$_Vector_val@VGENIECODE@@V?$allocator@VGENIECODE@@@std@@@std@@IAE@V?$allocator@VGENIECODE@@@1@@Z 005ffb60 f i Nes.obj
 0002:00124be0       ??1?$_Container_base_aux_alloc_empty@V?$allocator@VGENIECODE@@@std@@@std@@IAE@XZ 005ffbe0 f i Nes.obj
 0002:00124c30       ??0?$allocator@VGENIECODE@@@std@@QAE@XZ 005ffc30 f i Nes.obj
 0002:00124c70       ??D?$_Vector_iterator@VCHEATCODE@@V?$allocator@VCHEATCODE@@@std@@@std@@QBEAAVCHEATCODE@@XZ 005ffc70 f i Nes.obj
 0002:00124cc0       ??E?$_Vector_iterator@VCHEATCODE@@V?$allocator@VCHEATCODE@@@std@@@std@@QAEAAV01@XZ 005ffcc0 f i Nes.obj
 0002:00124d20       ?_Make_iter@?$vector@VGENIECODE@@V?$allocator@VGENIECODE@@@std@@@std@@QBE?AV?$_Vector_iterator@VGENIECODE@@V?$allocator@VGENIECODE@@@std@@@2@V?$_Vector_const_iterator@VGENIECODE@@V?$allocator@VGENIECODE@@@std@@@2@@Z 005ffd20 f i Nes.obj
 0002:00124df0       ?max_size@?$vector@VGENIECODE@@V?$allocator@VGENIECODE@@@std@@@std@@QBEIXZ 005ffdf0 f i Nes.obj
 0002:00124e50       ?_Destroy@?$vector@VGENIECODE@@V?$allocator@VGENIECODE@@@std@@@std@@IAEXPAVGENIECODE@@0@Z 005ffe50 f i Nes.obj
 0002:00124ec0       ?_Insert_n@?$vector@VGENIECODE@@V?$allocator@VGENIECODE@@@std@@@std@@IAEXV?$_Vector_const_iterator@VGENIECODE@@V?$allocator@VGENIECODE@@@std@@@2@IABVGENIECODE@@@Z 005ffec0 f i Nes.obj
 0002:00125460       ?_Xlen@?$vector@VGENIECODE@@V?$allocator@VGENIECODE@@@std@@@std@@KAXXZ 00600460 f i Nes.obj
 0002:00125540       ??0?$_Container_base_aux_alloc_empty@V?$allocator@VGENIECODE@@@std@@@std@@IAE@V?$allocator@VGENIECODE@@@1@@Z 00600540 f i Nes.obj
 0002:001255a0       ??0?$allocator@VGENIECODE@@@std@@QAE@ABV01@@Z 006005a0 f i Nes.obj
 0002:001255e0       ?deallocate@?$allocator@VGENIECODE@@@std@@QAEXPAVGENIECODE@@I@Z 006005e0 f i Nes.obj
 0002:00125640       ?allocate@?$allocator@VGENIECODE@@@std@@QAEPAVGENIECODE@@I@Z 00600640 f i Nes.obj
 0002:001256a0       ??D?$_Vector_const_iterator@VCHEATCODE@@V?$allocator@VCHEATCODE@@@std@@@std@@QBEABVCHEATCODE@@XZ 006006a0 f i Nes.obj
 0002:00125790       ??E?$_Vector_const_iterator@VCHEATCODE@@V?$allocator@VCHEATCODE@@@std@@@std@@QAEAAV01@XZ 00600790 f i Nes.obj
 0002:001258f0       ??0?$_Vector_iterator@VGENIECODE@@V?$allocator@VGENIECODE@@@std@@@std@@QAE@PAVGENIECODE@@PBV_Container_base_secure@1@@Z 006008f0 f i Nes.obj
 0002:00125950       ??H?$_Vector_iterator@VGENIECODE@@V?$allocator@VGENIECODE@@@std@@@std@@QBE?AV01@H@Z 00600950 f i Nes.obj
 0002:00125a70       ??G?$_Vector_const_iterator@VGENIECODE@@V?$allocator@VGENIECODE@@@std@@@std@@QBEHABV01@@Z 00600a70 f i Nes.obj
 0002:00125ae0       ??9?$_Vector_const_iterator@VGENIECODE@@V?$allocator@VGENIECODE@@@std@@@std@@QBE_NABV01@@Z 00600ae0 f i Nes.obj
 0002:00125b50       ??M?$_Vector_const_iterator@VGENIECODE@@V?$allocator@VGENIECODE@@@std@@@std@@QBE_NABV01@@Z 00600b50 f i Nes.obj
 0002:00125bc0       ??0?$_Vector_iterator@VGENIECODE@@V?$allocator@VGENIECODE@@@std@@@std@@QAE@ABV01@@Z 00600bc0 f i Nes.obj
 0002:00125c20       ?max_size@?$allocator@VGENIECODE@@@std@@QBEIXZ 00600c20 f i Nes.obj
 0002:00125c90       ??Y?$_Vector_iterator@VGENIECODE@@V?$allocator@VGENIECODE@@@std@@@std@@QAEAAV01@H@Z 00600c90 f i Nes.obj
 0002:00125cf0       ??0?$_Vector_const_iterator@VGENIECODE@@V?$allocator@VGENIECODE@@@std@@@std@@QAE@PAVGENIECODE@@PBV_Container_base_secure@1@@Z 00600cf0 f i Nes.obj
 0002:00125e20       ??8?$_Vector_const_iterator@VGENIECODE@@V?$allocator@VGENIECODE@@@std@@@std@@QBE_NABV01@@Z 00600e20 f i Nes.obj
 0002:00125e90       ?_Compat@?$_Vector_const_iterator@VGENIECODE@@V?$allocator@VGENIECODE@@@std@@@std@@QBEXABV12@@Z 00600e90 f i Nes.obj
 0002:00125f60       ??0?$_Ranit@VGENIECODE@@HPBV1@ABV1@@std@@QAE@XZ 00600f60 f i Nes.obj
 0002:00125fc0       ??0?$_Iterator_with_base@Urandom_access_iterator_tag@std@@VGENIECODE@@HPBV3@ABV3@V_Iterator_base@2@@std@@QAE@XZ 00600fc0 f i Nes.obj
 0002:00126020       ??Y?$_Vector_const_iterator@VGENIECODE@@V?$allocator@VGENIECODE@@@std@@@std@@QAEAAV01@H@Z 00601020 f i Nes.obj
 0002:00126190       ??$unchecked_copy@PAVGENIECODE@@PAV1@@stdext@@YAPAVGENIECODE@@PAV1@00@Z 00601190 f i Nes.obj
 0002:00126260       ??$unchecked_uninitialized_fill_n@PAVGENIECODE@@IV1@V?$allocator@VGENIECODE@@@std@@@stdext@@YAXPAVGENIECODE@@IABV1@AAV?$allocator@VGENIECODE@@@std@@@Z 00601260 f i Nes.obj
 0002:00126300       ??$_Destroy_range@V?$allocator@VGENIECODE@@@std@@@std@@YAXPAVGENIECODE@@0AAV?$allocator@VGENIECODE@@@0@@Z 00601300 f i Nes.obj
 0002:00126380       ??$_Umove@PAVGENIECODE@@@?$vector@VGENIECODE@@V?$allocator@VGENIECODE@@@std@@@std@@IAEPAVGENIECODE@@PAV2@00@Z 00601380 f i Nes.obj
 0002:001263f0       ??$fill@PAVGENIECODE@@V1@@std@@YAXPAVGENIECODE@@0ABV1@@Z 006013f0 f i Nes.obj
 0002:00126460       ??$_Unchecked_move_backward@PAVGENIECODE@@PAV1@@stdext@@YAPAVGENIECODE@@PAV1@00@Z 00601460 f i Nes.obj
 0002:00126530       ??$_Allocate@VGENIECODE@@@std@@YAPAVGENIECODE@@IPAV1@@Z 00601530 f i Nes.obj
 0002:001265d0       ??$_Checked_base@PAVGENIECODE@@@std@@YAPAVGENIECODE@@AAPAV1@@Z 006015d0 f i Nes.obj
 0002:00126660       ??$_Iter_random@PAVGENIECODE@@PAV1@@std@@YA?AUrandom_access_iterator_tag@0@ABQAVGENIECODE@@0@Z 00601660 f i Nes.obj
 0002:001266d0       ??$_Ptr_cat@PAVGENIECODE@@PAV1@@std@@YA?AU_Nonscalar_ptr_iterator_tag@0@AAPAVGENIECODE@@0@Z 006016d0 f i Nes.obj
 0002:00126740       ??$_Copy_opt@PAVGENIECODE@@PAV1@@std@@YAPAVGENIECODE@@PAV1@00Urandom_access_iterator_tag@0@U_Nonscalar_ptr_iterator_tag@0@U_Range_checked_iterator_tag@0@@Z 00601740 f i Nes.obj
 0002:001267f0       ??$_Uninit_fill_n@PAVGENIECODE@@IV1@V?$allocator@VGENIECODE@@@std@@@std@@YAXPAVGENIECODE@@IABV1@AAV?$allocator@VGENIECODE@@@0@U_Nonscalar_ptr_iterator_tag@0@U_Range_checked_iterator_tag@0@@Z 006017f0 f i Nes.obj
 0002:00126900       ??$_Destroy_range@V?$allocator@VGENIECODE@@@std@@@std@@YAXPAVGENIECODE@@0AAV?$allocator@VGENIECODE@@@0@U_Nonscalar_ptr_iterator_tag@0@@Z 00601900 f i Nes.obj
 0002:00126970       ??$_Unchecked_uninitialized_move@PAVGENIECODE@@PAV1@V?$allocator@VGENIECODE@@@std@@@stdext@@YAPAVGENIECODE@@PAV1@00AAV?$allocator@VGENIECODE@@@std@@@Z 00601970 f i Nes.obj
 0002:00126a20       ??$_Fill@PAVGENIECODE@@V1@@std@@YAXPAVGENIECODE@@0ABV1@@Z 00601a20 f i Nes.obj
 0002:00126ab0       ??$_Move_cat@PAVGENIECODE@@@std@@YA?AU_Undefined_move_tag@0@ABQAVGENIECODE@@@Z 00601ab0 f i Nes.obj
 0002:00126b20       ??$_Move_backward_opt@PAVGENIECODE@@PAV1@Urandom_access_iterator_tag@std@@U_Undefined_move_tag@3@@std@@YAPAVGENIECODE@@PAV1@00Urandom_access_iterator_tag@0@U_Undefined_move_tag@0@U_Range_checked_iterator_tag@0@@Z 00601b20 f i Nes.obj
 0002:00126bc0       ?construct@?$allocator@VGENIECODE@@@std@@QAEXPAVGENIECODE@@ABV3@@Z 00601bc0 f i Nes.obj
 0002:00126c20       ?destroy@?$allocator@VGENIECODE@@@std@@QAEXPAVGENIECODE@@@Z 00601c20 f i Nes.obj
 0002:00126c80       ??$_Checked_base@PAVGENIECODE@@@std@@YAPAVGENIECODE@@AAPAV1@U_Unchanged_checked_iterator_base_type_tag@0@@Z 00601c80 f i Nes.obj
 0002:00126cc0       ??$_Copy_opt@PAVGENIECODE@@PAV1@Uforward_iterator_tag@std@@@std@@YAPAVGENIECODE@@PAV1@00Uforward_iterator_tag@0@U_Nonscalar_ptr_iterator_tag@0@U_Range_checked_iterator_tag@0@@Z 00601cc0 f i Nes.obj
 0002:00126d60       ??$_Uninit_move@PAVGENIECODE@@PAV1@V?$allocator@VGENIECODE@@@std@@U_Undefined_move_tag@3@@std@@YAPAVGENIECODE@@PAV1@00AAV?$allocator@VGENIECODE@@@0@U_Undefined_move_tag@0@U_Range_checked_iterator_tag@0@@Z 00601d60 f i Nes.obj
 0002:00126dc0       ??$_Debug_range@PAVGENIECODE@@@std@@YAXPAVGENIECODE@@0PB_WI@Z 00601dc0 f i Nes.obj
 0002:00126e40       ??$_Copy_backward_opt@PAVGENIECODE@@PAV1@@std@@YAPAVGENIECODE@@PAV1@00Urandom_access_iterator_tag@0@U_Nonscalar_ptr_iterator_tag@0@U_Range_checked_iterator_tag@0@@Z 00601e40 f i Nes.obj
 0002:00126f00       ??$_Construct@VGENIECODE@@V1@@std@@YAXPAVGENIECODE@@ABV1@@Z 00601f00 f i Nes.obj
 0002:00126fa0       ??$_Destroy@VGENIECODE@@@std@@YAXPAVGENIECODE@@@Z 00601fa0 f i Nes.obj
 0002:00126fd0       ??$unchecked_uninitialized_copy@PAVGENIECODE@@PAV1@V?$allocator@VGENIECODE@@@std@@@stdext@@YAPAVGENIECODE@@PAV1@00AAV?$allocator@VGENIECODE@@@std@@@Z 00601fd0 f i Nes.obj
 0002:00127080       ??$_Iter_cat@PAVGENIECODE@@@std@@YA?AUrandom_access_iterator_tag@0@ABQAVGENIECODE@@@Z 00602080 f i Nes.obj
 0002:001270f0       ??$_Debug_range2@PAVGENIECODE@@@std@@YAXPAVGENIECODE@@0PB_WIUrandom_access_iterator_tag@0@@Z 006020f0 f i Nes.obj
 0002:00127190       ??$_Copy_backward_opt@PAVGENIECODE@@PAV1@Uforward_iterator_tag@std@@@std@@YAPAVGENIECODE@@PAV1@00Uforward_iterator_tag@0@U_Nonscalar_ptr_iterator_tag@0@U_Range_checked_iterator_tag@0@@Z 00602190 f i Nes.obj
 0002:00127230       ??$_Uninit_copy@PAVGENIECODE@@PAV1@V?$allocator@VGENIECODE@@@std@@@std@@YAPAVGENIECODE@@PAV1@00AAV?$allocator@VGENIECODE@@@0@U_Nonscalar_ptr_iterator_tag@0@U_Range_checked_iterator_tag@0@@Z 00602230 f i Nes.obj
 0002:00127380       ??$_Debug_pointer@VGENIECODE@@@std@@YAXPAVGENIECODE@@PB_WI@Z 00602380 f i Nes.obj
 0002:001273e0       ??0PAD@@QAE@PAVNES@@@Z     006023e0 f   PAD.obj
 0002:001274e0       ??_EPAD@@UAEPAXI@Z         006024e0 f i PAD.obj
 0002:001274e0       ??_GPAD@@UAEPAXI@Z         006024e0 f i PAD.obj
 0002:00127550       ??1PAD@@UAE@XZ             00602550 f   PAD.obj
 0002:00127640       ?SetZapperMode@CDirectDraw@@QAEXH@Z 00602640 f i PAD.obj
 0002:00127690       ?SetZapperDrawMode@CDirectDraw@@QAEXH@Z 00602690 f i PAD.obj
 0002:001276e0       ?Reset@PAD@@QAEXXZ         006026e0 f   PAD.obj
 0002:00127b60       ?SetExController@PAD@@QAEXH@Z 00602b60 f   PAD.obj
 0002:00128620       ??0EXPAD_Zapper@@QAE@PAVNES@@@Z 00603620 f i PAD.obj
 0002:00128690       ??0EXPAD@@QAE@PAVNES@@@Z   00603690 f i PAD.obj
 0002:001286f0       ?Reset@EXPAD@@UAEXXZ       006036f0 f i PAD.obj
 0002:00128730       ?Strobe@EXPAD@@UAEXXZ      00603730 f i PAD.obj
 0002:00128770       ?Read4016@EXPAD@@UAEEXZ    00603770 f i PAD.obj
 0002:001287b0       ?Read4017@EXPAD@@UAEEXZ    006037b0 f i PAD.obj
 0002:001287f0       ?Write4016@EXPAD@@UAEXE@Z  006037f0 f i PAD.obj
 0002:00128830       ?Write4017@EXPAD@@UAEXE@Z  00603830 f i PAD.obj
 0002:00128870       ?Sync@EXPAD@@UAEXXZ        00603870 f i PAD.obj
 0002:001288b0       ?SetSyncData@EXPAD@@UAEXHJ@Z 006038b0 f i PAD.obj
 0002:001288f0       ?GetSyncData@EXPAD@@UAEJH@Z 006038f0 f i PAD.obj
 0002:00128930       ??_EEXPAD@@UAEPAXI@Z       00603930 f i PAD.obj
 0002:00128930       ??_GEXPAD@@UAEPAXI@Z       00603930 f i PAD.obj
 0002:001289a0       ??1EXPAD@@UAE@XZ           006039a0 f i PAD.obj
 0002:001289e0       ??_GEXPAD_Zapper@@UAEPAXI@Z 006039e0 f i PAD.obj
 0002:001289e0       ??_EEXPAD_Zapper@@UAEPAXI@Z 006039e0 f i PAD.obj
 0002:00128a50       ??1EXPAD_Zapper@@UAE@XZ    00603a50 f i PAD.obj
 0002:00128aa0       ??0EXPAD_Paddle@@QAE@PAVNES@@@Z 00603aa0 f i PAD.obj
 0002:00128b10       ??_GEXPAD_Paddle@@UAEPAXI@Z 00603b10 f i PAD.obj
 0002:00128b10       ??_EEXPAD_Paddle@@UAEPAXI@Z 00603b10 f i PAD.obj
 0002:00128b80       ??1EXPAD_Paddle@@UAE@XZ    00603b80 f i PAD.obj
 0002:00128bd0       ??0EXPAD_HyperShot@@QAE@PAVNES@@@Z 00603bd0 f i PAD.obj
 0002:00128c40       ??_GEXPAD_HyperShot@@UAEPAXI@Z 00603c40 f i PAD.obj
 0002:00128c40       ??_EEXPAD_HyperShot@@UAEPAXI@Z 00603c40 f i PAD.obj
 0002:00128cb0       ??1EXPAD_HyperShot@@UAE@XZ 00603cb0 f i PAD.obj
 0002:00128d00       ??0EXPAD_Keyboard@@QAE@PAVNES@@@Z 00603d00 f i PAD.obj
 0002:00128d70       ??_EEXPAD_Keyboard@@UAEPAXI@Z 00603d70 f i PAD.obj
 0002:00128d70       ??_GEXPAD_Keyboard@@UAEPAXI@Z 00603d70 f i PAD.obj
 0002:00128de0       ??1EXPAD_Keyboard@@UAE@XZ  00603de0 f i PAD.obj
 0002:00128e30       ??0EXPAD_Supor_Keyboard@@QAE@PAVNES@@@Z 00603e30 f i PAD.obj
 0002:00128ea0       ??_EEXPAD_Supor_Keyboard@@UAEPAXI@Z 00603ea0 f i PAD.obj
 0002:00128ea0       ??_GEXPAD_Supor_Keyboard@@UAEPAXI@Z 00603ea0 f i PAD.obj
 0002:00128f10       ??1EXPAD_Supor_Keyboard@@UAE@XZ 00603f10 f i PAD.obj
 0002:00128f60       ??0EXPAD_CrazyClimber@@QAE@PAVNES@@@Z 00603f60 f i PAD.obj
 0002:00128fd0       ??_GEXPAD_CrazyClimber@@UAEPAXI@Z 00603fd0 f i PAD.obj
 0002:00128fd0       ??_EEXPAD_CrazyClimber@@UAEPAXI@Z 00603fd0 f i PAD.obj
 0002:00129040       ??1EXPAD_CrazyClimber@@UAE@XZ 00604040 f i PAD.obj
 0002:00129090       ??0EXPAD_Toprider@@QAE@PAVNES@@@Z 00604090 f i PAD.obj
 0002:00129100       ??_GEXPAD_Toprider@@UAEPAXI@Z 00604100 f i PAD.obj
 0002:00129100       ??_EEXPAD_Toprider@@UAEPAXI@Z 00604100 f i PAD.obj
 0002:00129170       ??1EXPAD_Toprider@@UAE@XZ  00604170 f i PAD.obj
 0002:001291c0       ??0EXPAD_SpaceShadowGun@@QAE@PAVNES@@@Z 006041c0 f i PAD.obj
 0002:00129230       ??_GEXPAD_SpaceShadowGun@@UAEPAXI@Z 00604230 f i PAD.obj
 0002:00129230       ??_EEXPAD_SpaceShadowGun@@UAEPAXI@Z 00604230 f i PAD.obj
 0002:001292a0       ??1EXPAD_SpaceShadowGun@@UAE@XZ 006042a0 f i PAD.obj
 0002:001292f0       ??0EXPAD_FamlyTrainer@@QAE@PAVNES@@@Z 006042f0 f i PAD.obj
 0002:00129360       ??_GEXPAD_FamlyTrainer@@UAEPAXI@Z 00604360 f i PAD.obj
 0002:00129360       ??_EEXPAD_FamlyTrainer@@UAEPAXI@Z 00604360 f i PAD.obj
 0002:001293d0       ??1EXPAD_FamlyTrainer@@UAE@XZ 006043d0 f i PAD.obj
 0002:00129420       ??0EXPAD_ExcitingBoxing@@QAE@PAVNES@@@Z 00604420 f i PAD.obj
 0002:00129490       ??_GEXPAD_ExcitingBoxing@@UAEPAXI@Z 00604490 f i PAD.obj
 0002:00129490       ??_EEXPAD_ExcitingBoxing@@UAEPAXI@Z 00604490 f i PAD.obj
 0002:00129500       ??1EXPAD_ExcitingBoxing@@UAE@XZ 00604500 f i PAD.obj
 0002:00129550       ??0EXPAD_Mahjang@@QAE@PAVNES@@@Z 00604550 f i PAD.obj
 0002:001295c0       ??_EEXPAD_Mahjang@@UAEPAXI@Z 006045c0 f i PAD.obj
 0002:001295c0       ??_GEXPAD_Mahjang@@UAEPAXI@Z 006045c0 f i PAD.obj
 0002:00129630       ??1EXPAD_Mahjang@@UAE@XZ   00604630 f i PAD.obj
 0002:00129680       ??0EXPAD_OekakidsTablet@@QAE@PAVNES@@@Z 00604680 f i PAD.obj
 0002:001296f0       ??_GEXPAD_OekakidsTablet@@UAEPAXI@Z 006046f0 f i PAD.obj
 0002:001296f0       ??_EEXPAD_OekakidsTablet@@UAEPAXI@Z 006046f0 f i PAD.obj
 0002:00129760       ??1EXPAD_OekakidsTablet@@UAE@XZ 00604760 f i PAD.obj
 0002:001297b0       ??0EXPAD_TurboFile@@QAE@PAVNES@@@Z 006047b0 f i PAD.obj
 0002:00129820       ??_GEXPAD_TurboFile@@UAEPAXI@Z 00604820 f i PAD.obj
 0002:00129820       ??_EEXPAD_TurboFile@@UAEPAXI@Z 00604820 f i PAD.obj
 0002:00129890       ??1EXPAD_TurboFile@@UAE@XZ 00604890 f i PAD.obj
 0002:001298e0       ??0EXPAD_VSUnisystem@@QAE@PAVNES@@@Z 006048e0 f i PAD.obj
 0002:00129950       ??_EEXPAD_VSUnisystem@@UAEPAXI@Z 00604950 f i PAD.obj
 0002:00129950       ??_GEXPAD_VSUnisystem@@UAEPAXI@Z 00604950 f i PAD.obj
 0002:001299c0       ??1EXPAD_VSUnisystem@@UAE@XZ 006049c0 f i PAD.obj
 0002:00129a10       ??0EXPAD_VSZapper@@QAE@PAVNES@@@Z 00604a10 f i PAD.obj
 0002:00129a80       ??_GEXPAD_VSZapper@@UAEPAXI@Z 00604a80 f i PAD.obj
 0002:00129a80       ??_EEXPAD_VSZapper@@UAEPAXI@Z 00604a80 f i PAD.obj
 0002:00129af0       ??1EXPAD_VSZapper@@UAE@XZ  00604af0 f i PAD.obj
 0002:00129b40       ??0EXPAD_Gyromite@@QAE@PAVNES@@@Z 00604b40 f i PAD.obj
 0002:00129bb0       ??_EEXPAD_Gyromite@@UAEPAXI@Z 00604bb0 f i PAD.obj
 0002:00129bb0       ??_GEXPAD_Gyromite@@UAEPAXI@Z 00604bb0 f i PAD.obj
 0002:00129c20       ??1EXPAD_Gyromite@@UAE@XZ  00604c20 f i PAD.obj
 0002:00129c70       ?GetSyncData@PAD@@QAEKXZ   00604c70 f   PAD.obj
 0002:00129d00       ?SetSyncData@PAD@@QAEXK@Z  00604d00 f   PAD.obj
 0002:00129d90       ?GetSyncExData@PAD@@QAEKXZ 00604d90 f   PAD.obj
 0002:0012a060       ?SetSyncExData@PAD@@QAEXK@Z 00605060 f   PAD.obj
 0002:0012a380       ?Sync@PAD@@QAEXXZ          00605380 f   PAD.obj
 0002:0012a490       ?VSync@PAD@@QAEXXZ         00605490 f   PAD.obj
 0002:0012a510       ?SyncSub@PAD@@QAEEH@Z      00605510 f   PAD.obj
 0002:0012a8d0       ?Strobe@PAD@@QAEXXZ        006058d0 f   PAD.obj
 0002:0012ac00       ?Read@PAD@@QAEEG@Z         00605c00 f   PAD.obj
 0002:0012adf0       ?Write@PAD@@QAEXGE@Z       00605df0 f   PAD.obj
 0002:0012af30       ?NsfSub@PAD@@IAEXXZ        00605f30 f   PAD.obj
 0002:0012b0e0       ?Reset@EXPAD_Zapper@@UAEXXZ 006060e0 f   PAD.obj
 0002:0012b130       ?Read4017@EXPAD_Zapper@@UAEEXZ 00606130 f   PAD.obj
 0002:0012b220       ?GetZapperHit@NES@@QAEHXZ  00606220 f i PAD.obj
 0002:0012b260       ?Sync@EXPAD_Zapper@@UAEXXZ 00606260 f   PAD.obj
 0002:0012b340       ?GetZapperPos@NES@@QAEXAAJ0@Z 00606340 f i PAD.obj
 0002:0012b3a0       ?SetSyncData@EXPAD_Zapper@@UAEXHJ@Z 006063a0 f   PAD.obj
 0002:0012b420       ?GetSyncData@EXPAD_Zapper@@UAEJH@Z 00606420 f   PAD.obj
 0002:0012b4b0       ?Reset@EXPAD_Paddle@@UAEXXZ 006064b0 f   PAD.obj
 0002:0012b500       ?Read4016@EXPAD_Paddle@@UAEEXZ 00606500 f   PAD.obj
 0002:0012b540       ?Read4017@EXPAD_Paddle@@UAEEXZ 00606540 f   PAD.obj
 0002:0012b5a0       ?Write4016@EXPAD_Paddle@@UAEXE@Z 006065a0 f   PAD.obj
 0002:0012b720       ?Sync@EXPAD_Paddle@@UAEXXZ 00606720 f   PAD.obj
 0002:0012b7f0       ?SetSyncData@EXPAD_Paddle@@UAEXHJ@Z 006067f0 f   PAD.obj
 0002:0012b860       ?GetSyncData@EXPAD_Paddle@@UAEJH@Z 00606860 f   PAD.obj
 0002:0012b8e0       ?Reset@EXPAD_HyperShot@@UAEXXZ 006068e0 f   PAD.obj
 0002:0012b920       ?Strobe@EXPAD_HyperShot@@UAEXXZ 00606920 f   PAD.obj
 0002:0012b9b0       ?Read4017@EXPAD_HyperShot@@UAEEXZ 006069b0 f   PAD.obj
 0002:0012b9f0       ?Reset@EXPAD_Keyboard@@UAEXXZ 006069f0 f   PAD.obj
 0002:0012ba50       ?Read4016@EXPAD_Keyboard@@UAEEXZ 00606a50 f   PAD.obj
 0002:0012ba90       ?Read4017@EXPAD_Keyboard@@UAEEXZ 00606a90 f   PAD.obj
 0002:0012c3c0       ?Write4016@EXPAD_Keyboard@@UAEXE@Z 006073c0 f   PAD.obj
 0002:0012c4a0       ?Reset@EXPAD_Supor_Keyboard@@UAEXXZ 006074a0 f   PAD.obj
 0002:0012c500       ?Read4016@EXPAD_Supor_Keyboard@@UAEEXZ 00607500 f   PAD.obj
 0002:0012c540       ?Read4017@EXPAD_Supor_Keyboard@@UAEEXZ 00607540 f   PAD.obj
 0002:0012d100       ?Write4016@EXPAD_Supor_Keyboard@@UAEXE@Z 00608100 f   PAD.obj
 0002:0012d1d0       ?Strobe@EXPAD_CrazyClimber@@UAEXXZ 006081d0 f   PAD.obj
 0002:0012d2b0       ?Sync@EXPAD_CrazyClimber@@UAEXXZ 006082b0 f   PAD.obj
 0002:0012d500       ?SetSyncData@EXPAD_CrazyClimber@@UAEXHJ@Z 00608500 f   PAD.obj
 0002:0012d550       ?GetSyncData@EXPAD_CrazyClimber@@UAEJH@Z 00608550 f   PAD.obj
 0002:0012d590       ?Reset@EXPAD_Toprider@@UAEXXZ 00608590 f   PAD.obj
 0002:0012d610       ?Write4016@EXPAD_Toprider@@UAEXE@Z 00608610 f   PAD.obj
 0002:0012d8d0       ?Read4017@EXPAD_Toprider@@UAEEXZ 006088d0 f   PAD.obj
 0002:0012d970       ?Sync@EXPAD_Toprider@@UAEXXZ 00608970 f   PAD.obj
 0002:0012dec0       ?SetSyncData@EXPAD_Toprider@@UAEXHJ@Z 00608ec0 f   PAD.obj
 0002:0012df50       ?GetSyncData@EXPAD_Toprider@@UAEJH@Z 00608f50 f   PAD.obj
 0002:0012dfe0       ?Reset@EXPAD_SpaceShadowGun@@UAEXXZ 00608fe0 f   PAD.obj
 0002:0012e030       ?Strobe@EXPAD_SpaceShadowGun@@UAEXXZ 00609030 f   PAD.obj
 0002:0012e0a0       ?Read4016@EXPAD_SpaceShadowGun@@UAEEXZ 006090a0 f   PAD.obj
 0002:0012e100       ?Read4017@EXPAD_SpaceShadowGun@@UAEEXZ 00609100 f   PAD.obj
 0002:0012e1b0       ?Sync@EXPAD_SpaceShadowGun@@UAEXXZ 006091b0 f   PAD.obj
 0002:0012e290       ?SetSyncData@EXPAD_SpaceShadowGun@@UAEXHJ@Z 00609290 f   PAD.obj
 0002:0012e310       ?GetSyncData@EXPAD_SpaceShadowGun@@UAEJH@Z 00609310 f   PAD.obj
 0002:0012e3a0       ?Reset@EXPAD_FamlyTrainer@@UAEXXZ 006093a0 f   PAD.obj
 0002:0012e3f0       ?Read4017@EXPAD_FamlyTrainer@@UAEEXZ 006093f0 f   PAD.obj
 0002:0012e430       ?Write4016@EXPAD_FamlyTrainer@@UAEXE@Z 00609430 f   PAD.obj
 0002:0012e4e0       ?Sync@EXPAD_FamlyTrainer@@UAEXXZ 006094e0 f   PAD.obj
 0002:0012e970       ?SetSyncData@EXPAD_FamlyTrainer@@UAEXHJ@Z 00609970 f   PAD.obj
 0002:0012e9c0       ?GetSyncData@EXPAD_FamlyTrainer@@UAEJH@Z 006099c0 f   PAD.obj
 0002:0012ea00       ?Reset@EXPAD_ExcitingBoxing@@UAEXXZ 00609a00 f   PAD.obj
 0002:0012ea50       ?Read4017@EXPAD_ExcitingBoxing@@UAEEXZ 00609a50 f   PAD.obj
 0002:0012ea90       ?Write4016@EXPAD_ExcitingBoxing@@UAEXE@Z 00609a90 f   PAD.obj
 0002:0012eb10       ?Sync@EXPAD_ExcitingBoxing@@UAEXXZ 00609b10 f   PAD.obj
 0002:0012ecc0       ?SetSyncData@EXPAD_ExcitingBoxing@@UAEXHJ@Z 00609cc0 f   PAD.obj
 0002:0012ed10       ?GetSyncData@EXPAD_ExcitingBoxing@@UAEJH@Z 00609d10 f   PAD.obj
 0002:0012ed50       ?Reset@EXPAD_Mahjang@@UAEXXZ 00609d50 f   PAD.obj
 0002:0012eda0       ?Read4017@EXPAD_Mahjang@@UAEEXZ 00609da0 f   PAD.obj
 0002:0012ee00       ?Write4016@EXPAD_Mahjang@@UAEXE@Z 00609e00 f   PAD.obj
 0002:0012eeb0       ?Sync@EXPAD_Mahjang@@UAEXXZ 00609eb0 f   PAD.obj
 0002:0012f2c0       ?SetSyncData@EXPAD_Mahjang@@UAEXHJ@Z 0060a2c0 f   PAD.obj
 0002:0012f310       ?GetSyncData@EXPAD_Mahjang@@UAEJH@Z 0060a310 f   PAD.obj
 0002:0012f350       ?Reset@EXPAD_OekakidsTablet@@UAEXXZ 0060a350 f   PAD.obj
 0002:0012f3d0       ?Read4017@EXPAD_OekakidsTablet@@UAEEXZ 0060a3d0 f   PAD.obj
 0002:0012f410       ?Write4016@EXPAD_OekakidsTablet@@UAEXE@Z 0060a410 f   PAD.obj
 0002:0012f620       ?Sync@EXPAD_OekakidsTablet@@UAEXXZ 0060a620 f   PAD.obj
 0002:0012f6c0       ?SetSyncData@EXPAD_OekakidsTablet@@UAEXHJ@Z 0060a6c0 f   PAD.obj
 0002:0012f740       ?GetSyncData@EXPAD_OekakidsTablet@@UAEJH@Z 0060a740 f   PAD.obj
 0002:0012f7d0       ?Reset@EXPAD_TurboFile@@UAEXXZ 0060a7d0 f   PAD.obj
 0002:0012f830       ?Read4017@EXPAD_TurboFile@@UAEEXZ 0060a830 f   PAD.obj
 0002:0012f870       ?Write4016@EXPAD_TurboFile@@UAEXE@Z 0060a870 f   PAD.obj
 0002:0012fa50       ?Reset@EXPAD_VSUnisystem@@UAEXXZ 0060aa50 f   PAD.obj
 0002:0012fa90       ?Read4016@EXPAD_VSUnisystem@@UAEEXZ 0060aa90 f   PAD.obj
 0002:0012fba0       ?Read4017@EXPAD_VSUnisystem@@UAEEXZ 0060aba0 f   PAD.obj
 0002:0012fc10       ?Reset@EXPAD_VSZapper@@UAEXXZ 0060ac10 f   PAD.obj
 0002:0012fc90       ?Strobe@EXPAD_VSZapper@@UAEXXZ 0060ac90 f   PAD.obj
 0002:0012fdb0       ?Read4016@EXPAD_VSZapper@@UAEEXZ 0060adb0 f   PAD.obj
 0002:0012fec0       ?Read4017@EXPAD_VSZapper@@UAEEXZ 0060aec0 f   PAD.obj
 0002:0012ff60       ?Sync@EXPAD_VSZapper@@UAEXXZ 0060af60 f   PAD.obj
 0002:00130040       ?SetSyncData@EXPAD_VSZapper@@UAEXHJ@Z 0060b040 f   PAD.obj
 0002:001300f0       ?GetSyncData@EXPAD_VSZapper@@UAEJH@Z 0060b0f0 f   PAD.obj
 0002:001301b0       ?CheckSignal@EXPAD_Gyromite@@IAEHXZ 0060b1b0 f   PAD.obj
 0002:00130300       ?Reset@EXPAD_Gyromite@@UAEXXZ 0060b300 f   PAD.obj
 0002:001303d0       ?Strobe@EXPAD_Gyromite@@UAEXXZ 0060b3d0 f   PAD.obj
 0002:00130450       ?Sync@EXPAD_Gyromite@@UAEXXZ 0060b450 f   PAD.obj
 0002:001305a0       ?SetSyncData@EXPAD_Gyromite@@UAEXHJ@Z 0060b5a0 f   PAD.obj
 0002:00130610       ?GetSyncData@EXPAD_Gyromite@@UAEJH@Z 0060b610 f   PAD.obj
 0002:00130690       ??0PPU@@QAE@PAVNES@@@Z     0060b690 f   PPU.obj
 0002:001307c0       ??_GPPU@@UAEPAXI@Z         0060b7c0 f i PPU.obj
 0002:001307c0       ??_EPPU@@UAEPAXI@Z         0060b7c0 f i PPU.obj
 0002:00130830       ??1PPU@@UAE@XZ             0060b830 f   PPU.obj
 0002:00130870       ?Reset@PPU@@QAEXXZ         0060b870 f   PPU.obj
 0002:001309a0       ?Read@PPU@@QAEEG@Z         0060b9a0 f   PPU.obj
 0002:00130c00       ?Write@PPU@@QAEXGE@Z       0060bc00 f   PPU.obj
 0002:00131120       ?DMA@PPU@@QAEXE@Z          0060c120 f   PPU.obj
 0002:001311c0       ?VBlankStart@PPU@@QAEXXZ   0060c1c0 f   PPU.obj
 0002:00131210       ?VBlankEnd@PPU@@QAEXXZ     0060c210 f   PPU.obj
 0002:00131270       ?FrameStart@PPU@@QAEXXZ    0060c270 f   PPU.obj
 0002:00131340       ?FrameEnd@PPU@@QAEXXZ      0060c340 f   PPU.obj
 0002:00131380       ?SetRenderScanline@PPU@@QAEXH@Z 0060c380 f   PPU.obj
 0002:001313f0       ?ScanlineStart@PPU@@QAEXXZ 0060c3f0 f   PPU.obj
 0002:001314e0       ?ScanlineNext@PPU@@QAEXXZ  0060c4e0 f   PPU.obj
 0002:00131620       ?Scanline@PPU@@QAEXHHH@Z   0060c620 f   PPU.obj
 0002:00133be0       ?IsSprite0@PPU@@QAEHH@Z    0060ebe0 f   PPU.obj
 0002:00133cb0       ?DummyScanline@PPU@@QAEXH@Z 0060ecb0 f   PPU.obj
 0002:00133de0       ??0ROM@@QAE@PBD@Z          0060ede0 f   ROM.obj
 0002:00137700       ??_EROM@@UAEPAXI@Z         00612700 f i ROM.obj
 0002:00137700       ??_GROM@@UAEPAXI@Z         00612700 f i ROM.obj
 0002:00137770       ??1ROM@@UAE@XZ             00612770 f   ROM.obj
 0002:001378d0       ?IsRomFile@ROM@@SAHPBD@Z   006128d0 f   ROM.obj
 0002:00137ce0       ?FilenameCheck@ROM@@IAEXPBD@Z 00612ce0 f   ROM.obj
 0002:00137d90       ?HeaderCheck@ROMDATABASE@@QAEHAAUtagNESHEADER@@KKAAVROMDB@@@Z 00612d90 f   ROMDB.obj
 0002:00137ff0       ??1iterator@?$_Tree@V?$_Tmap_traits@KVROMDB@@VROMDBCMP@@V?$allocator@U?$pair@$$CBKVROMDB@@@std@@@std@@$0A@@std@@@std@@QAE@XZ 00612ff0 f i ROMDB.obj
 0002:00138040       ??4ROMDB@@QAEAAV0@ABV0@@Z  00613040 f i ROMDB.obj
 0002:00138190       ??1const_iterator@?$_Tree@V?$_Tmap_traits@KVROMDB@@VROMDBCMP@@V?$allocator@U?$pair@$$CBKVROMDB@@@std@@@std@@$0A@@std@@@std@@QAE@XZ 00613190 f i ROMDB.obj
 0002:001381e0       ??1?$_Bidit@U?$pair@$$CBKVROMDB@@@std@@HPBU12@ABU12@@std@@QAE@XZ 006131e0 f i ROMDB.obj
 0002:00138230       ??1?$_Iterator_with_base@Ubidirectional_iterator_tag@std@@U?$pair@$$CBKVROMDB@@@2@HPBU32@ABU32@V_Iterator_base@2@@std@@QAE@XZ 00613230 f i ROMDB.obj
 0002:00138280       ?HeaderCorrect@ROMDATABASE@@QAEHAAUtagNESHEADER@@KK@Z 00613280 f   ROMDB.obj
 0002:00138560       ??0ROMDB@@QAE@ABV0@@Z      00613560 f i ROMDB.obj
 0002:00138710       ?LoadDatabase@ROMDATABASE@@IAEXXZ 00613710 f   ROMDB.obj
 0002:00139250       ??1?$_String_iterator@DU?$char_traits@D@std@@V?$allocator@D@2@@std@@QAE@XZ 00614250 f i ROMDB.obj
 0002:001392a0       ??0?$_String_const_iterator@DU?$char_traits@D@std@@V?$allocator@D@2@@std@@QAE@ABV01@@Z 006142a0 f i ROMDB.obj
 0002:00139310       ??1?$_String_const_iterator@DU?$char_traits@D@std@@V?$allocator@D@2@@std@@QAE@XZ 00614310 f i ROMDB.obj
 0002:00139360       ??0?$_Ranit_base@DHPBDABDV_Iterator_base@std@@@std@@QAE@ABU01@@Z 00614360 f i ROMDB.obj
 0002:001393c0       ??1?$_Ranit_base@DHPBDABDV_Iterator_base@std@@@std@@QAE@XZ 006143c0 f i ROMDB.obj
 0002:00139410       ?erase@?$basic_string@DU?$char_traits@D@std@@V?$allocator@D@2@@std@@QAE?AV?$_String_iterator@DU?$char_traits@D@std@@V?$allocator@D@2@@2@V?$_String_const_iterator@DU?$char_traits@D@std@@V?$allocator@D@2@@2@0@Z 00614410 f i ROMDB.obj
 0002:00139640       ?begin@?$basic_string@DU?$char_traits@D@std@@V?$allocator@D@2@@std@@QAE?AV?$_String_iterator@DU?$char_traits@D@std@@V?$allocator@D@2@@2@XZ 00614640 f i ROMDB.obj
 0002:001396d0       ?end@?$basic_string@DU?$char_traits@D@std@@V?$allocator@D@2@@std@@QAE?AV?$_String_iterator@DU?$char_traits@D@std@@V?$allocator@D@2@@2@XZ 006146d0 f i ROMDB.obj
 0002:00139760       ??A?$map@KVROMDB@@VROMDBCMP@@V?$allocator@U?$pair@$$CBKVROMDB@@@std@@@std@@@std@@QAEAAVROMDB@@ABK@Z 00614760 f i ROMDB.obj
 0002:00139a70       ??RROMDBCMP@@QBE_NABK0@Z   00614a70 f i ROMDB.obj
 0002:00139ac0       ?end@?$_Tree@V?$_Tmap_traits@KVROMDB@@VROMDBCMP@@V?$allocator@U?$pair@$$CBKVROMDB@@@std@@@std@@$0A@@std@@@std@@QAE?AViterator@12@XZ 00614ac0 f i ROMDB.obj
 0002:00139b50       ?empty@?$_Tree@V?$_Tmap_traits@KVROMDB@@VROMDBCMP@@V?$allocator@U?$pair@$$CBKVROMDB@@@std@@@std@@$0A@@std@@@std@@QBE_NXZ 00614b50 f i ROMDB.obj
 0002:00139bb0       ?clear@?$_Tree@V?$_Tmap_traits@KVROMDB@@VROMDBCMP@@V?$allocator@U?$pair@$$CBKVROMDB@@@std@@@std@@$0A@@std@@@std@@QAEXXZ 00614bb0 f i ROMDB.obj
 0002:00139c70       ?find@?$_Tree@V?$_Tmap_traits@KVROMDB@@VROMDBCMP@@V?$allocator@U?$pair@$$CBKVROMDB@@@std@@@std@@$0A@@std@@@std@@QAE?AViterator@12@ABK@Z 00614c70 f i ROMDB.obj
 0002:00139f00       ??Diterator@?$_Tree@V?$_Tmap_traits@KVROMDB@@VROMDBCMP@@V?$allocator@U?$pair@$$CBKVROMDB@@@std@@@std@@$0A@@std@@@std@@QBEAAU?$pair@$$CBKVROMDB@@@2@XZ 00614f00 f i ROMDB.obj
 0002:00139f50       ??8const_iterator@?$_Tree@V?$_Tmap_traits@KVROMDB@@VROMDBCMP@@V?$allocator@U?$pair@$$CBKVROMDB@@@std@@@std@@$0A@@std@@@std@@QBE_NABV012@@Z 00614f50 f i ROMDB.obj
 0002:0013a040       ??1?$pair@$$CBKVROMDB@@@std@@QAE@XZ 00615040 f i ROMDB.obj
 0002:0013a0a0       ??0const_iterator@?$_Tree@V?$_Tmap_traits@KVROMDB@@VROMDBCMP@@V?$allocator@U?$pair@$$CBKVROMDB@@@std@@@std@@$0A@@std@@@std@@QAE@ABV012@@Z 006150a0 f i ROMDB.obj
 0002:0013a110       ??4iterator@?$_Tree@V?$_Tmap_traits@KVROMDB@@VROMDBCMP@@V?$allocator@U?$pair@$$CBKVROMDB@@@std@@@std@@$0A@@std@@@std@@QAEAAV012@ABV012@@Z 00615110 f i ROMDB.obj
 0002:0013a170       ??0iterator@?$_Tree@V?$_Tmap_traits@KVROMDB@@VROMDBCMP@@V?$allocator@U?$pair@$$CBKVROMDB@@@std@@@std@@$0A@@std@@@std@@QAE@ABV012@@Z 00615170 f i ROMDB.obj
 0002:0013a1d0       ??0?$_Bidit@U?$pair@$$CBKVROMDB@@@std@@HPBU12@ABU12@@std@@QAE@ABU01@@Z 006151d0 f i ROMDB.obj
 0002:0013a230       ??4const_iterator@?$_Tree@V?$_Tmap_traits@KVROMDB@@VROMDBCMP@@V?$allocator@U?$pair@$$CBKVROMDB@@@std@@@std@@$0A@@std@@@std@@QAEAAV012@ABV012@@Z 00615230 f i ROMDB.obj
 0002:0013a2a0       ??0?$_Iterator_with_base@Ubidirectional_iterator_tag@std@@U?$pair@$$CBKVROMDB@@@2@HPBU32@ABU32@V_Iterator_base@2@@std@@QAE@ABU01@@Z 006152a0 f i ROMDB.obj
 0002:0013a300       ??4?$_Bidit@U?$pair@$$CBKVROMDB@@@std@@HPBU12@ABU12@@std@@QAEAAU01@ABU01@@Z 00615300 f i ROMDB.obj
 0002:0013a360       ??4?$_Iterator_with_base@Ubidirectional_iterator_tag@std@@U?$pair@$$CBKVROMDB@@@2@HPBU32@ABU32@V_Iterator_base@2@@std@@QAEAAU01@ABU01@@Z 00615360 f i ROMDB.obj
 0002:0013a3c0       ?_Pdif@?$basic_string@DU?$char_traits@D@std@@V?$allocator@D@2@@std@@KAIV?$_String_const_iterator@DU?$char_traits@D@std@@V?$allocator@D@2@@2@0@Z 006153c0 f i ROMDB.obj
 0002:0013a4b0       ?_Key@?$_Tree@V?$_Tmap_traits@KVROMDB@@VROMDBCMP@@V?$allocator@U?$pair@$$CBKVROMDB@@@std@@@std@@$0A@@std@@@std@@KAABKPAU_Node@?$_Tree_nod@V?$_Tmap_traits@KVROMDB@@VROMDBCMP@@V?$allocator@U?$pair@$$CBKVROMDB@@@std@@@std@@$0A@@std@@@2@@Z 006154b0 f i ROMDB.obj
 0002:0013a510       ?size@?$_Tree@V?$_Tmap_traits@KVROMDB@@VROMDBCMP@@V?$allocator@U?$pair@$$CBKVROMDB@@@std@@@std@@$0A@@std@@@std@@QBEIXZ 00615510 f i ROMDB.obj
 0002:0013a550       ?insert@?$_Tree@V?$_Tmap_traits@KVROMDB@@VROMDBCMP@@V?$allocator@U?$pair@$$CBKVROMDB@@@std@@@std@@$0A@@std@@@std@@QAE?AViterator@12@Vconst_iterator@12@ABU?$pair@$$CBKVROMDB@@@2@@Z 00615550 f i ROMDB.obj
 0002:0013b420       ?lower_bound@?$_Tree@V?$_Tmap_traits@KVROMDB@@VROMDBCMP@@V?$allocator@U?$pair@$$CBKVROMDB@@@std@@@std@@$0A@@std@@@std@@QAE?AViterator@12@ABK@Z 00616420 f i ROMDB.obj
 0002:0013b4b0       ?_Erase@?$_Tree@V?$_Tmap_traits@KVROMDB@@VROMDBCMP@@V?$allocator@U?$pair@$$CBKVROMDB@@@std@@@std@@$0A@@std@@@std@@IAEXPAU_Node@?$_Tree_nod@V?$_Tmap_traits@KVROMDB@@VROMDBCMP@@V?$allocator@U?$pair@$$CBKVROMDB@@@std@@@std@@$0A@@std@@@2@@Z 006164b0 f i ROMDB.obj
 0002:0013b580       ?_Lmost@?$_Tree@V?$_Tmap_traits@KVROMDB@@VROMDBCMP@@V?$allocator@U?$pair@$$CBKVROMDB@@@std@@@std@@$0A@@std@@@std@@IBEAAPAU_Node@?$_Tree_nod@V?$_Tmap_traits@KVROMDB@@VROMDBCMP@@V?$allocator@U?$pair@$$CBKVROMDB@@@std@@@std@@$0A@@std@@@2@XZ 00616580 f i ROMDB.obj
 0002:0013b5e0       ?_Rmost@?$_Tree@V?$_Tmap_traits@KVROMDB@@VROMDBCMP@@V?$allocator@U?$pair@$$CBKVROMDB@@@std@@@std@@$0A@@std@@@std@@IBEAAPAU_Node@?$_Tree_nod@V?$_Tmap_traits@KVROMDB@@VROMDBCMP@@V?$allocator@U?$pair@$$CBKVROMDB@@@std@@@std@@$0A@@std@@@2@XZ 006165e0 f i ROMDB.obj
 0002:0013b640       ?_Root@?$_Tree@V?$_Tmap_traits@KVROMDB@@VROMDBCMP@@V?$allocator@U?$pair@$$CBKVROMDB@@@std@@@std@@$0A@@std@@@std@@IBEAAPAU_Node@?$_Tree_nod@V?$_Tmap_traits@KVROMDB@@VROMDBCMP@@V?$allocator@U?$pair@$$CBKVROMDB@@@std@@@std@@$0A@@std@@@2@XZ 00616640 f i ROMDB.obj
 0002:0013b6a0       ?_Orphan_ptr@?$_Tree@V?$_Tmap_traits@KVROMDB@@VROMDBCMP@@V?$allocator@U?$pair@$$CBKVROMDB@@@std@@@std@@$0A@@std@@@std@@IBEXAAV12@PAU_Node@?$_Tree_nod@V?$_Tmap_traits@KVROMDB@@VROMDBCMP@@V?$allocator@U?$pair@$$CBKVROMDB@@@std@@@std@@$0A@@std@@@2@@Z 006166a0 f i ROMDB.obj
 0002:0013b7b0       ??0iterator@?$_Tree@V?$_Tmap_traits@KVROMDB@@VROMDBCMP@@V?$allocator@U?$pair@$$CBKVROMDB@@@std@@@std@@$0A@@std@@@std@@QAE@PAU_Node@?$_Tree_nod@V?$_Tmap_traits@KVROMDB@@VROMDBCMP@@V?$allocator@U?$pair@$$CBKVROMDB@@@std@@@std@@$0A@@std@@@2@PBV12@@Z 006167b0 f i ROMDB.obj
 0002:0013b810       ??Dconst_iterator@?$_Tree@V?$_Tmap_traits@KVROMDB@@VROMDBCMP@@V?$allocator@U?$pair@$$CBKVROMDB@@@std@@@std@@$0A@@std@@@std@@QBEABU?$pair@$$CBKVROMDB@@@2@XZ 00616810 f i ROMDB.obj
 0002:0013b910       ?_Mynode@const_iterator@?$_Tree@V?$_Tmap_traits@KVROMDB@@VROMDBCMP@@V?$allocator@U?$pair@$$CBKVROMDB@@@std@@@std@@$0A@@std@@@std@@QBEPAU_Node@?$_Tree_nod@V?$_Tmap_traits@KVROMDB@@VROMDBCMP@@V?$allocator@U?$pair@$$CBKVROMDB@@@std@@@std@@$0A@@std@@@3@XZ 00616910 f i ROMDB.obj
 0002:0013b950       ??0?$pair@$$CBKVROMDB@@@std@@QAE@ABKABVROMDB@@@Z 00616950 f i ROMDB.obj
 0002:0013b9c0       ??0?$_String_iterator@DU?$char_traits@D@std@@V?$allocator@D@2@@std@@QAE@PADPBV_Container_base_secure@1@@Z 006169c0 f i ROMDB.obj
 0002:0013ba20       ??1?$pair@Viterator@?$_Tree@V?$_Tmap_traits@KVROMDB@@VROMDBCMP@@V?$allocator@U?$pair@$$CBKVROMDB@@@std@@@std@@$0A@@std@@@std@@_N@std@@QAE@XZ 00616a20 f i ROMDB.obj
 0002:0013ba70       ?_Isnil@?$_Tree@V?$_Tmap_traits@KVROMDB@@VROMDBCMP@@V?$allocator@U?$pair@$$CBKVROMDB@@@std@@@std@@$0A@@std@@@std@@KAAADPAU_Node@?$_Tree_nod@V?$_Tmap_traits@KVROMDB@@VROMDBCMP@@V?$allocator@U?$pair@$$CBKVROMDB@@@std@@@std@@$0A@@std@@@2@@Z 00616a70 f i ROMDB.obj
 0002:0013bab0       ?_Left@?$_Tree@V?$_Tmap_traits@KVROMDB@@VROMDBCMP@@V?$allocator@U?$pair@$$CBKVROMDB@@@std@@@std@@$0A@@std@@@std@@KAAAPAU_Node@?$_Tree_nod@V?$_Tmap_traits@KVROMDB@@VROMDBCMP@@V?$allocator@U?$pair@$$CBKVROMDB@@@std@@@std@@$0A@@std@@@2@PAU342@@Z 00616ab0 f i ROMDB.obj
 0002:0013baf0       ?_Parent@?$_Tree@V?$_Tmap_traits@KVROMDB@@VROMDBCMP@@V?$allocator@U?$pair@$$CBKVROMDB@@@std@@@std@@$0A@@std@@@std@@KAAAPAU_Node@?$_Tree_nod@V?$_Tmap_traits@KVROMDB@@VROMDBCMP@@V?$allocator@U?$pair@$$CBKVROMDB@@@std@@@std@@$0A@@std@@@2@PAU342@@Z 00616af0 f i ROMDB.obj
 0002:0013bb30       ?_Right@?$_Tree@V?$_Tmap_traits@KVROMDB@@VROMDBCMP@@V?$allocator@U?$pair@$$CBKVROMDB@@@std@@@std@@$0A@@std@@@std@@KAAAPAU_Node@?$_Tree_nod@V?$_Tmap_traits@KVROMDB@@VROMDBCMP@@V?$allocator@U?$pair@$$CBKVROMDB@@@std@@@std@@$0A@@std@@@2@PAU342@@Z 00616b30 f i ROMDB.obj
 0002:0013bb70       ?_Myval@?$_Tree@V?$_Tmap_traits@KVROMDB@@VROMDBCMP@@V?$allocator@U?$pair@$$CBKVROMDB@@@std@@@std@@$0A@@std@@@std@@KAAAU?$pair@$$CBKVROMDB@@@2@PAU_Node@?$_Tree_nod@V?$_Tmap_traits@KVROMDB@@VROMDBCMP@@V?$allocator@U?$pair@$$CBKVROMDB@@@std@@@std@@$0A@@std@@@2@@Z 00616b70 f i ROMDB.obj
 0002:0013bbb0       ?begin@?$_Tree@V?$_Tmap_traits@KVROMDB@@VROMDBCMP@@V?$allocator@U?$pair@$$CBKVROMDB@@@std@@@std@@$0A@@std@@@std@@QAE?AViterator@12@XZ 00616bb0 f i ROMDB.obj
 0002:0013bc40       ?insert@?$_Tree@V?$_Tmap_traits@KVROMDB@@VROMDBCMP@@V?$allocator@U?$pair@$$CBKVROMDB@@@std@@@std@@$0A@@std@@@std@@QAE?AU?$pair@Viterator@?$_Tree@V?$_Tmap_traits@KVROMDB@@VROMDBCMP@@V?$allocator@U?$pair@$$CBKVROMDB@@@std@@@std@@$0A@@std@@@std@@_N@2@ABU?$pair@$$CBKVROMDB@@@2@@Z 00616c40 f i ROMDB.obj
 0002:0013c110       ?_Insert@?$_Tree@V?$_Tmap_traits@KVROMDB@@VROMDBCMP@@V?$allocator@U?$pair@$$CBKVROMDB@@@std@@@std@@$0A@@std@@@std@@IAE?AViterator@12@_NPAU_Node@?$_Tree_nod@V?$_Tmap_traits@KVROMDB@@VROMDBCMP@@V?$allocator@U?$pair@$$CBKVROMDB@@@std@@@std@@$0A@@std@@@2@ABU?$pair@$$CBKVROMDB@@@2@@Z 00617110 f i ROMDB.obj
 0002:0013c710       ?_Lbound@?$_Tree@V?$_Tmap_traits@KVROMDB@@VROMDBCMP@@V?$allocator@U?$pair@$$CBKVROMDB@@@std@@@std@@$0A@@std@@@std@@IBEPAU_Node@?$_Tree_nod@V?$_Tmap_traits@KVROMDB@@VROMDBCMP@@V?$allocator@U?$pair@$$CBKVROMDB@@@std@@@std@@$0A@@std@@@2@ABK@Z 00617710 f i ROMDB.obj
 0002:0013c810       ?_Kfn@?$_Tmap_traits@KVROMDB@@VROMDBCMP@@V?$allocator@U?$pair@$$CBKVROMDB@@@std@@@std@@$0A@@std@@SAABKABU?$pair@$$CBKVROMDB@@@2@@Z 00617810 f i ROMDB.obj
 0002:0013c850       ?deallocate@?$allocator@U_Node@?$_Tree_nod@V?$_Tmap_traits@KVROMDB@@VROMDBCMP@@V?$allocator@U?$pair@$$CBKVROMDB@@@std@@@std@@$0A@@std@@@std@@@std@@QAEXPAU_Node@?$_Tree_nod@V?$_Tmap_traits@KVROMDB@@VROMDBCMP@@V?$allocator@U?$pair@$$CBKVROMDB@@@std@@@std@@$0A@@std@@@2@I@Z 00617850 f i ROMDB.obj
 0002:0013c8b0       ?destroy@?$allocator@U_Node@?$_Tree_nod@V?$_Tmap_traits@KVROMDB@@VROMDBCMP@@V?$allocator@U?$pair@$$CBKVROMDB@@@std@@@std@@$0A@@std@@@std@@@std@@QAEXPAU_Node@?$_Tree_nod@V?$_Tmap_traits@KVROMDB@@VROMDBCMP@@V?$allocator@U?$pair@$$CBKVROMDB@@@std@@@std@@$0A@@std@@@2@@Z 006178b0 f i ROMDB.obj
 0002:0013c910       ??0const_iterator@?$_Tree@V?$_Tmap_traits@KVROMDB@@VROMDBCMP@@V?$allocator@U?$pair@$$CBKVROMDB@@@std@@@std@@$0A@@std@@@std@@QAE@XZ 00617910 f i ROMDB.obj
 0002:0013c970       ??0const_iterator@?$_Tree@V?$_Tmap_traits@KVROMDB@@VROMDBCMP@@V?$allocator@U?$pair@$$CBKVROMDB@@@std@@@std@@$0A@@std@@@std@@QAE@PAU_Node@?$_Tree_nod@V?$_Tmap_traits@KVROMDB@@VROMDBCMP@@V?$allocator@U?$pair@$$CBKVROMDB@@@std@@@std@@$0A@@std@@@2@PBV12@@Z 00617970 f i ROMDB.obj
 0002:0013ca30       ??Econst_iterator@?$_Tree@V?$_Tmap_traits@KVROMDB@@VROMDBCMP@@V?$allocator@U?$pair@$$CBKVROMDB@@@std@@@std@@$0A@@std@@@std@@QAEAAV012@XZ 00617a30 f i ROMDB.obj
 0002:0013ca90       ??Fconst_iterator@?$_Tree@V?$_Tmap_traits@KVROMDB@@VROMDBCMP@@V?$allocator@U?$pair@$$CBKVROMDB@@@std@@@std@@$0A@@std@@@std@@QAEAAV012@XZ 00617a90 f i ROMDB.obj
 0002:0013caf0       ??0?$_String_const_iterator@DU?$char_traits@D@std@@V?$allocator@D@2@@std@@QAE@PBDPBV_Container_base_secure@1@@Z 00617af0 f i ROMDB.obj
 0002:0013cc30       ??G?$_String_const_iterator@DU?$char_traits@D@std@@V?$allocator@D@2@@std@@QBEHABV01@@Z 00617c30 f i ROMDB.obj
 0002:0013cca0       ??0?$_Bidit@U?$pair@$$CBKVROMDB@@@std@@HPBU12@ABU12@@std@@QAE@XZ 00617ca0 f i ROMDB.obj
 0002:0013cd00       ??0?$_Ranit_base@DHPBDABDV_Iterator_base@std@@@std@@QAE@XZ 00617d00 f i ROMDB.obj
 0002:0013cd60       ??0?$_Iterator_with_base@Ubidirectional_iterator_tag@std@@U?$pair@$$CBKVROMDB@@@2@HPBU32@ABU32@V_Iterator_base@2@@std@@QAE@XZ 00617d60 f i ROMDB.obj
 0002:0013cdc0       ?_Color@?$_Tree@V?$_Tmap_traits@KVROMDB@@VROMDBCMP@@V?$allocator@U?$pair@$$CBKVROMDB@@@std@@@std@@$0A@@std@@@std@@KAAADPAU_Node@?$_Tree_nod@V?$_Tmap_traits@KVROMDB@@VROMDBCMP@@V?$allocator@U?$pair@$$CBKVROMDB@@@std@@@std@@$0A@@std@@@2@@Z 00617dc0 f i ROMDB.obj
 0002:0013ce00       ?max_size@?$_Tree@V?$_Tmap_traits@KVROMDB@@VROMDBCMP@@V?$allocator@U?$pair@$$CBKVROMDB@@@std@@@std@@$0A@@std@@@std@@QBEIXZ 00617e00 f i ROMDB.obj
 0002:0013ce60       ?_Lrotate@?$_Tree@V?$_Tmap_traits@KVROMDB@@VROMDBCMP@@V?$allocator@U?$pair@$$CBKVROMDB@@@std@@@std@@$0A@@std@@@std@@IAEXPAU_Node@?$_Tree_nod@V?$_Tmap_traits@KVROMDB@@VROMDBCMP@@V?$allocator@U?$pair@$$CBKVROMDB@@@std@@@std@@$0A@@std@@@2@@Z 00617e60 f i ROMDB.obj
 0002:0013d010       ?_Rrotate@?$_Tree@V?$_Tmap_traits@KVROMDB@@VROMDBCMP@@V?$allocator@U?$pair@$$CBKVROMDB@@@std@@@std@@$0A@@std@@@std@@IAEXPAU_Node@?$_Tree_nod@V?$_Tmap_traits@KVROMDB@@VROMDBCMP@@V?$allocator@U?$pair@$$CBKVROMDB@@@std@@@std@@$0A@@std@@@2@@Z 00618010 f i ROMDB.obj
 0002:0013d1c0       ?_Buynode@?$_Tree@V?$_Tmap_traits@KVROMDB@@VROMDBCMP@@V?$allocator@U?$pair@$$CBKVROMDB@@@std@@@std@@$0A@@std@@@std@@IAEPAU_Node@?$_Tree_nod@V?$_Tmap_traits@KVROMDB@@VROMDBCMP@@V?$allocator@U?$pair@$$CBKVROMDB@@@std@@@std@@$0A@@std@@@2@PAU342@00ABU?$pair@$$CBKVROMDB@@@2@D@Z 006181c0 f i ROMDB.obj
 0002:0013d330       ??Fiterator@?$_Tree@V?$_Tmap_traits@KVROMDB@@VROMDBCMP@@V?$allocator@U?$pair@$$CBKVROMDB@@@std@@@std@@$0A@@std@@@std@@QAEAAV012@XZ 00618330 f i ROMDB.obj
 0002:0013d390       ?_Dec@const_iterator@?$_Tree@V?$_Tmap_traits@KVROMDB@@VROMDBCMP@@V?$allocator@U?$pair@$$CBKVROMDB@@@std@@@std@@$0A@@std@@@std@@QAEXXZ 00618390 f i ROMDB.obj
 0002:0013d680       ?_Inc@const_iterator@?$_Tree@V?$_Tmap_traits@KVROMDB@@VROMDBCMP@@V?$allocator@U?$pair@$$CBKVROMDB@@@std@@@std@@$0A@@std@@@std@@QAEXXZ 00618680 f i ROMDB.obj
 0002:0013d830       ?_Compat@?$_String_const_iterator@DU?$char_traits@D@std@@V?$allocator@D@2@@std@@QBEXABV12@@Z 00618830 f i ROMDB.obj
 0002:0013d900       ??0?$pair@Viterator@?$_Tree@V?$_Tmap_traits@KVROMDB@@VROMDBCMP@@V?$allocator@U?$pair@$$CBKVROMDB@@@std@@@std@@$0A@@std@@@std@@_N@std@@QAE@ABViterator@?$_Tree@V?$_Tmap_traits@KVROMDB@@VROMDBCMP@@V?$allocator@U?$pair@$$CBKVROMDB@@@std@@@std@@$0A@@std@@@1@AB_N@Z 00618900 f i ROMDB.obj
 0002:0013d970       ?_Max@?$_Tree@V?$_Tmap_traits@KVROMDB@@VROMDBCMP@@V?$allocator@U?$pair@$$CBKVROMDB@@@std@@@std@@$0A@@std@@@std@@KAPAU_Node@?$_Tree_nod@V?$_Tmap_traits@KVROMDB@@VROMDBCMP@@V?$allocator@U?$pair@$$CBKVROMDB@@@std@@@std@@$0A@@std@@@2@PAU342@@Z 00618970 f i ROMDB.obj
 0002:0013d9f0       ?_Min@?$_Tree@V?$_Tmap_traits@KVROMDB@@VROMDBCMP@@V?$allocator@U?$pair@$$CBKVROMDB@@@std@@@std@@$0A@@std@@@std@@KAPAU_Node@?$_Tree_nod@V?$_Tmap_traits@KVROMDB@@VROMDBCMP@@V?$allocator@U?$pair@$$CBKVROMDB@@@std@@@std@@$0A@@std@@@2@PAU342@@Z 006189f0 f i ROMDB.obj
 0002:0013da70       ?max_size@?$allocator@U?$pair@$$CBKVROMDB@@@std@@@std@@QBEIXZ 00618a70 f i ROMDB.obj
 0002:0013dae0       ?allocate@?$allocator@U_Node@?$_Tree_nod@V?$_Tmap_traits@KVROMDB@@VROMDBCMP@@V?$allocator@U?$pair@$$CBKVROMDB@@@std@@@std@@$0A@@std@@@std@@@std@@QAEPAU_Node@?$_Tree_nod@V?$_Tmap_traits@KVROMDB@@VROMDBCMP@@V?$allocator@U?$pair@$$CBKVROMDB@@@std@@@std@@$0A@@std@@@2@I@Z 00618ae0 f i ROMDB.obj
 0002:0013db40       ??0_Node@?$_Tree_nod@V?$_Tmap_traits@KVROMDB@@VROMDBCMP@@V?$allocator@U?$pair@$$CBKVROMDB@@@std@@@std@@$0A@@std@@@std@@QAE@PAU012@00ABU?$pair@$$CBKVROMDB@@@2@D@Z 00618b40 f i ROMDB.obj
 0002:0013dbe0       ??0?$pair@$$CBKVROMDB@@@std@@QAE@ABU01@@Z 00618be0 f i ROMDB.obj
 0002:0013dc50       ??$_Debug_lt_pred@VROMDBCMP@@KK@std@@YA_NVROMDBCMP@@ABK1PB_WI@Z 00618c50 f i ROMDB.obj
 0002:0013dcf0       ??$_Destroy@U_Node@?$_Tree_nod@V?$_Tmap_traits@KVROMDB@@VROMDBCMP@@V?$allocator@U?$pair@$$CBKVROMDB@@@std@@@std@@$0A@@std@@@std@@@std@@YAXPAU_Node@?$_Tree_nod@V?$_Tmap_traits@KVROMDB@@VROMDBCMP@@V?$allocator@U?$pair@$$CBKVROMDB@@@std@@@std@@$0A@@std@@@0@@Z 00618cf0 f i ROMDB.obj
 0002:0013dd40       ??$_Allocate@U_Node@?$_Tree_nod@V?$_Tmap_traits@KVROMDB@@VROMDBCMP@@V?$allocator@U?$pair@$$CBKVROMDB@@@std@@@std@@$0A@@std@@@std@@@std@@YAPAU_Node@?$_Tree_nod@V?$_Tmap_traits@KVROMDB@@VROMDBCMP@@V?$allocator@U?$pair@$$CBKVROMDB@@@std@@@std@@$0A@@std@@@0@IPAU120@@Z 00618d40 f i ROMDB.obj
 0002:0013dde0       ??_G_Node@?$_Tree_nod@V?$_Tmap_traits@KVROMDB@@VROMDBCMP@@V?$allocator@U?$pair@$$CBKVROMDB@@@std@@@std@@$0A@@std@@@std@@QAEPAXI@Z 00618de0 f i ROMDB.obj
 0002:0013de50       ??1_Node@?$_Tree_nod@V?$_Tmap_traits@KVROMDB@@VROMDBCMP@@V?$allocator@U?$pair@$$CBKVROMDB@@@std@@@std@@$0A@@std@@@std@@QAE@XZ 00618e50 f i ROMDB.obj
 0002:0013deb0       ??0ROMDATABASE@@QAE@XZ     00618eb0 f i ROMDB.obj
 0002:0013df10       ??0?$map@KVROMDB@@VROMDBCMP@@V?$allocator@U?$pair@$$CBKVROMDB@@@std@@@std@@@std@@QAE@XZ 00618f10 f i ROMDB.obj
 0002:0013df90       ??0?$_Tree@V?$_Tmap_traits@KVROMDB@@VROMDBCMP@@V?$allocator@U?$pair@$$CBKVROMDB@@@std@@@std@@$0A@@std@@@std@@QAE@ABVROMDBCMP@@ABV?$allocator@U?$pair@$$CBKVROMDB@@@std@@@1@@Z 00618f90 f i ROMDB.obj
 0002:0013e050       ??1?$_Tree_val@V?$_Tmap_traits@KVROMDB@@VROMDBCMP@@V?$allocator@U?$pair@$$CBKVROMDB@@@std@@@std@@$0A@@std@@@std@@QAE@XZ 00619050 f i ROMDB.obj
 0002:0013e0a0       ??1?$_Tree_ptr@V?$_Tmap_traits@KVROMDB@@VROMDBCMP@@V?$allocator@U?$pair@$$CBKVROMDB@@@std@@@std@@$0A@@std@@@std@@QAE@XZ 006190a0 f i ROMDB.obj
 0002:0013e0f0       ??1?$_Tree_nod@V?$_Tmap_traits@KVROMDB@@VROMDBCMP@@V?$allocator@U?$pair@$$CBKVROMDB@@@std@@@std@@$0A@@std@@@std@@QAE@XZ 006190f0 f i ROMDB.obj
 0002:0013e140       ??1?$_Tmap_traits@KVROMDB@@VROMDBCMP@@V?$allocator@U?$pair@$$CBKVROMDB@@@std@@@std@@$0A@@std@@QAE@XZ 00619140 f i ROMDB.obj
 0002:0013e190       ??1?$_Container_base_aux_alloc_empty@V?$allocator@U?$pair@$$CBKVROMDB@@@std@@@std@@@std@@IAE@XZ 00619190 f i ROMDB.obj
 0002:0013e1e0       ??0?$allocator@U?$pair@$$CBKVROMDB@@@std@@@std@@QAE@XZ 006191e0 f i ROMDB.obj
 0002:0013e220       ?_Init@?$_Tree@V?$_Tmap_traits@KVROMDB@@VROMDBCMP@@V?$allocator@U?$pair@$$CBKVROMDB@@@std@@@std@@$0A@@std@@@std@@IAEXXZ 00619220 f i ROMDB.obj
 0002:0013e2e0       ??0?$_Tree_val@V?$_Tmap_traits@KVROMDB@@VROMDBCMP@@V?$allocator@U?$pair@$$CBKVROMDB@@@std@@@std@@$0A@@std@@@std@@IAE@ABVROMDBCMP@@V?$allocator@U?$pair@$$CBKVROMDB@@@std@@@1@@Z 006192e0 f i ROMDB.obj
 0002:0013e370       ??0?$allocator@U?$pair@$$CBKVROMDB@@@std@@@std@@QAE@ABV01@@Z 00619370 f i ROMDB.obj
 0002:0013e3b0       ?_Buynode@?$_Tree@V?$_Tmap_traits@KVROMDB@@VROMDBCMP@@V?$allocator@U?$pair@$$CBKVROMDB@@@std@@@std@@$0A@@std@@@std@@IAEPAU_Node@?$_Tree_nod@V?$_Tmap_traits@KVROMDB@@VROMDBCMP@@V?$allocator@U?$pair@$$CBKVROMDB@@@std@@@std@@$0A@@std@@@2@XZ 006193b0 f i ROMDB.obj
 0002:0013e5f0       ?destroy@?$allocator@PAU_Node@?$_Tree_nod@V?$_Tmap_traits@KVROMDB@@VROMDBCMP@@V?$allocator@U?$pair@$$CBKVROMDB@@@std@@@std@@$0A@@std@@@std@@@std@@QAEXPAPAU_Node@?$_Tree_nod@V?$_Tmap_traits@KVROMDB@@VROMDBCMP@@V?$allocator@U?$pair@$$CBKVROMDB@@@std@@@std@@$0A@@std@@@2@@Z 006195f0 f i ROMDB.obj
 0002:0013e650       ??0?$_Tree_ptr@V?$_Tmap_traits@KVROMDB@@VROMDBCMP@@V?$allocator@U?$pair@$$CBKVROMDB@@@std@@@std@@$0A@@std@@@std@@QAE@ABVROMDBCMP@@V?$allocator@U?$pair@$$CBKVROMDB@@@std@@@1@@Z 00619650 f i ROMDB.obj
 0002:0013e6e0       ??0?$_Tree_nod@V?$_Tmap_traits@KVROMDB@@VROMDBCMP@@V?$allocator@U?$pair@$$CBKVROMDB@@@std@@@std@@$0A@@std@@@std@@IAE@ABVROMDBCMP@@V?$allocator@U?$pair@$$CBKVROMDB@@@std@@@1@@Z 006196e0 f i ROMDB.obj
 0002:0013e770       ?construct@?$allocator@PAU_Node@?$_Tree_nod@V?$_Tmap_traits@KVROMDB@@VROMDBCMP@@V?$allocator@U?$pair@$$CBKVROMDB@@@std@@@std@@$0A@@std@@@std@@@std@@QAEXPAPAU_Node@?$_Tree_nod@V?$_Tmap_traits@KVROMDB@@VROMDBCMP@@V?$allocator@U?$pair@$$CBKVROMDB@@@std@@@std@@$0A@@std@@@2@ABQAU342@@Z 00619770 f i ROMDB.obj
 0002:0013e7d0       ??0?$_Tmap_traits@KVROMDB@@VROMDBCMP@@V?$allocator@U?$pair@$$CBKVROMDB@@@std@@@std@@$0A@@std@@QAE@VROMDBCMP@@V?$allocator@U?$pair@$$CBKVROMDB@@@std@@@1@@Z 006197d0 f i ROMDB.obj
 0002:0013e840       ??0?$_Container_base_aux_alloc_empty@V?$allocator@U?$pair@$$CBKVROMDB@@@std@@@std@@@std@@IAE@V?$allocator@U?$pair@$$CBKVROMDB@@@std@@@1@@Z 00619840 f i ROMDB.obj
 0002:0013e8a0       ??$_Destroy@PAU_Node@?$_Tree_nod@V?$_Tmap_traits@KVROMDB@@VROMDBCMP@@V?$allocator@U?$pair@$$CBKVROMDB@@@std@@@std@@$0A@@std@@@std@@@std@@YAXPAPAU_Node@?$_Tree_nod@V?$_Tmap_traits@KVROMDB@@VROMDBCMP@@V?$allocator@U?$pair@$$CBKVROMDB@@@std@@@std@@$0A@@std@@@0@@Z 006198a0 f i ROMDB.obj
 0002:0013e8d0       ??$?0U?$pair@$$CBKVROMDB@@@std@@@?$allocator@PAU_Node@?$_Tree_nod@V?$_Tmap_traits@KVROMDB@@VROMDBCMP@@V?$allocator@U?$pair@$$CBKVROMDB@@@std@@@std@@$0A@@std@@@std@@@std@@QAE@ABV?$allocator@U?$pair@$$CBKVROMDB@@@std@@@1@@Z 006198d0 f i ROMDB.obj
 0002:0013e910       ??$?0U?$pair@$$CBKVROMDB@@@std@@@?$allocator@U_Node@?$_Tree_nod@V?$_Tmap_traits@KVROMDB@@VROMDBCMP@@V?$allocator@U?$pair@$$CBKVROMDB@@@std@@@std@@$0A@@std@@@std@@@std@@QAE@ABV?$allocator@U?$pair@$$CBKVROMDB@@@std@@@1@@Z 00619910 f i ROMDB.obj
 0002:0013e950       ??$_Construct@PAU_Node@?$_Tree_nod@V?$_Tmap_traits@KVROMDB@@VROMDBCMP@@V?$allocator@U?$pair@$$CBKVROMDB@@@std@@@std@@$0A@@std@@@std@@PAU123@@std@@YAXPAPAU_Node@?$_Tree_nod@V?$_Tmap_traits@KVROMDB@@VROMDBCMP@@V?$allocator@U?$pair@$$CBKVROMDB@@@std@@@std@@$0A@@std@@@0@ABQAU120@@Z 00619950 f i ROMDB.obj
 0002:0013e9f0       ??1ROMDATABASE@@QAE@XZ     006199f0 f i ROMDB.obj
 0002:0013ea40       ??1?$map@KVROMDB@@VROMDBCMP@@V?$allocator@U?$pair@$$CBKVROMDB@@@std@@@std@@@std@@QAE@XZ 00619a40 f i ROMDB.obj
 0002:0013ea90       ??1?$_Tree@V?$_Tmap_traits@KVROMDB@@VROMDBCMP@@V?$allocator@U?$pair@$$CBKVROMDB@@@std@@@std@@$0A@@std@@@std@@QAE@XZ 00619a90 f i ROMDB.obj
 0002:0013eb30       ?_Tidy@?$_Tree@V?$_Tmap_traits@KVROMDB@@VROMDBCMP@@V?$allocator@U?$pair@$$CBKVROMDB@@@std@@@std@@$0A@@std@@@std@@IAEXXZ 00619b30 f i ROMDB.obj
 0002:0013ed60       ?erase@?$_Tree@V?$_Tmap_traits@KVROMDB@@VROMDBCMP@@V?$allocator@U?$pair@$$CBKVROMDB@@@std@@@std@@$0A@@std@@@std@@QAE?AViterator@12@Vconst_iterator@12@0@Z 00619d60 f i ROMDB.obj
 0002:0013f090       ?_Make_iter@?$_Tree@V?$_Tmap_traits@KVROMDB@@VROMDBCMP@@V?$allocator@U?$pair@$$CBKVROMDB@@@std@@@std@@$0A@@std@@@std@@QBE?AViterator@12@Vconst_iterator@12@@Z 0061a090 f i ROMDB.obj
 0002:0013f1a0       ?erase@?$_Tree@V?$_Tmap_traits@KVROMDB@@VROMDBCMP@@V?$allocator@U?$pair@$$CBKVROMDB@@@std@@@std@@$0A@@std@@@std@@QAE?AViterator@12@Vconst_iterator@12@@Z 0061a1a0 f i ROMDB.obj
 0002:0013fc00       ??Econst_iterator@?$_Tree@V?$_Tmap_traits@KVROMDB@@VROMDBCMP@@V?$allocator@U?$pair@$$CBKVROMDB@@@std@@@std@@$0A@@std@@@std@@QAE?AV012@H@Z 0061ac00 f i ROMDB.obj
 0002:0013fd20       ??9const_iterator@?$_Tree@V?$_Tmap_traits@KVROMDB@@VROMDBCMP@@V?$allocator@U?$pair@$$CBKVROMDB@@@std@@@std@@$0A@@std@@@std@@QBE_NABV012@@Z 0061ad20 f i ROMDB.obj
 0002:0013fd90       ??$swap@D@std@@YAXAAD0@Z   0061ad90 f i ROMDB.obj
 0002:0013fdf0       ?NES_ROM_get_unifBoardID@@YAHPAD@Z 0061adf0 f   unif.obj
 0002:0013fea0       ?FindVSDipSwitchTable@@YAPAUVSDIPSWITCH@@K@Z 0061aea0 f   VsUnisystem.obj
 0002:001404c0       ?GetVSDefaultDipSwitchValue@@YAEK@Z 0061b4c0 f   VsUnisystem.obj
 0002:00140590       _unzStringFileNameCompare  0061b590 f   unzip.obj
 0002:00140710       _unzOpen                   0061b710 f   unzip.obj
 0002:00141070       _unzClose                  0061c070 f   unzip.obj
 0002:00141110       _unzGetGlobalInfo          0061c110 f   unzip.obj
 0002:00141170       _unzGetCurrentFileInfo     0061c170 f   unzip.obj
 0002:00141920       _unzGoToFirstFile          0061c920 f   unzip.obj
 0002:001419f0       _unzGoToNextFile           0061c9f0 f   unzip.obj
 0002:00141b10       _unzLocateFile             0061cb10 f   unzip.obj
 0002:00141cc0       _unzOpenCurrentFile        0061ccc0 f   unzip.obj
 0002:001423f0       _unzReadCurrentFile        0061d3f0 f   unzip.obj
 0002:00142800       _unztell                   0061d800 f   unzip.obj
 0002:00142870       _unzeof                    0061d870 f   unzip.obj
 0002:001428f0       _unzGetLocalExtrafield     0061d8f0 f   unzip.obj
 0002:00142a20       _unzCloseCurrentFile       0061da20 f   unzip.obj
 0002:00142b40       _unzGetGlobalComment       0061db40 f   unzip.obj
 0002:00142c52       _timeGetTime@0             0061dc52 f   winmm:WINMM.dll
 0002:00142c58       _timeBeginPeriod@4         0061dc58 f   winmm:WINMM.dll
 0002:00142c5e       _timeEndPeriod@4           0061dc5e f   winmm:WINMM.dll
 0002:00142c64       _ImageList_LoadImageA@28   0061dc64 f   comctl32:COMCTL32.dll
 0002:00142c6a       _ImageList_Destroy@4       0061dc6a f   comctl32:COMCTL32.dll
 0002:00142c70       _ImageList_ReplaceIcon@12  0061dc70 f   comctl32:COMCTL32.dll
 0002:00142c76       _ImageList_Create@20       0061dc76 f   comctl32:COMCTL32.dll
 0002:00142c7c       _CreateStatusWindowA@16    0061dc7c f   comctl32:COMCTL32.dll
 0002:00142c82       _InitCommonControls@0      0061dc82 f   comctl32:COMCTL32.dll
 0002:00142c88       _ImmAssociateContext@8     0061dc88 f   imm32:IMM32.dll
 0002:00144400       _PathFindExtensionA@4      0061f400 f   shlwapi:SHLWAPI.dll
 0002:00144406       _PathCanonicalizeA@8       0061f406 f   shlwapi:SHLWAPI.dll
 0002:0014440c       _PathAppendA@8             0061f40c f   shlwapi:SHLWAPI.dll
 0002:00144412       _PathIsRelativeA@4         0061f412 f   shlwapi:SHLWAPI.dll
 0002:00144418       _StrStrIA@8                0061f418 f   shlwapi:SHLWAPI.dll
 0002:0014441e       _StrCmpNIA@12              0061f41e f   shlwapi:SHLWAPI.dll
 0002:00144424       _PathUnquoteSpacesA@4      0061f424 f   shlwapi:SHLWAPI.dll
 0002:00144430       __RTC_CheckEsp             0061f430 f   libcmtd:_stack_.obj
 0002:00144460       @_RTC_CheckStackVars@8     0061f460 f   libcmtd:_stack_.obj
 0002:001444e0       @_RTC_AllocaHelper@12      0061f4e0 f   libcmtd:_stack_.obj
 0002:00144520       @_RTC_CheckStackVars2@12   0061f520 f   libcmtd:_stack_.obj
 0002:00144630       __RTC_InitBase             0061f630 f   libcmtd:_init_.obj
 0002:00144670       __RTC_Shutdown             0061f670 f   libcmtd:_init_.obj
 0002:00144690       ?_JumpToContinuation@@YGXPAXPAUEHRegistrationNode@@@Z 0061f690 f   libcmtd:_trnsctrl_.obj
 0002:001446e0       ?_CallMemberFunction0@@YGXPAX0@Z 0061f6e0 f   libcmtd:_trnsctrl_.obj
 0002:001446f0       ?_CallMemberFunction1@@YGXPAX00@Z 0061f6f0 f   libcmtd:_trnsctrl_.obj
 0002:00144700       ?_CallMemberFunction2@@YGXPAX00H@Z 0061f700 f   libcmtd:_trnsctrl_.obj
 0002:00144710       ?_UnwindNestedFrames@@YGXPAUEHRegistrationNode@@PAUEHExceptionRecord@@@Z 0061f710 f   libcmtd:_trnsctrl_.obj
 0002:00144780       ___CxxFrameHandler         0061f780 f   libcmtd:_trnsctrl_.obj
 0002:001447d0       ___CxxFrameHandler3        0061f7d0 f   libcmtd:_trnsctrl_.obj
 0002:00144820       ___CxxFrameHandler2        0061f820 f   libcmtd:_trnsctrl_.obj
 0002:00144870       ___CxxLongjmpUnwind@4      0061f870 f   libcmtd:_trnsctrl_.obj
 0002:001448b0       ?_CallCatchBlock2@@YAPAXPAUEHRegistrationNode@@PBU_s_FuncInfo@@PAXHK@Z 0061f8b0 f   libcmtd:_trnsctrl_.obj
 0002:001449a0       ?_CallSETranslator@@YAHPAUEHExceptionRecord@@PAUEHRegistrationNode@@PAX2PBU_s_FuncInfo@@H1@Z 0061f9a0 f   libcmtd:_trnsctrl_.obj
 0002:00144bb0       ?_GetRangeOfTrysToCheck@@YAPBU_s_TryBlockMapEntry@@PBU_s_FuncInfo@@HHPAI1@Z 0061fbb0 f   libcmtd:_trnsctrl_.obj
 0002:00144c50       __CreateFrameInfo          0061fc50 f   libcmtd:_trnsctrl_.obj
 0002:00144c90       __IsExceptionObjectToBeDestroyed 0061fc90 f   libcmtd:_trnsctrl_.obj
 0002:00144cd0       __FindAndUnlinkFrame       0061fcd0 f   libcmtd:_trnsctrl_.obj
 0002:00144d40       @__security_check_cookie@4 0061fd40 f   libcmtd:secchk.obj
 0002:00144d60       ??_U@YAPAXI@Z              0061fd60 f   libcmtd:new2.obj
 0002:00144d90       ??_V@YAXPAX@Z              0061fd90 f   libcmtd:delete2.obj
 0002:00144db0       __CxxThrowException@8      0061fdb0 f   libcmtd:throw.obj
 0002:00144e20       ?name@type_info@@QBEPBDPAU__type_info_node@@@Z 0061fe20 f   libcmtd:typinfo.obj
 0002:00144e50       ??1type_info@@UAE@XZ       0061fe50 f   libcmtd:typinfo.obj
 0002:00144e80       ??_Etype_info@@UAEPAXI@Z   0061fe80 f i libcmtd:typinfo.obj
 0002:00144e80       ??_Gtype_info@@UAEPAXI@Z   0061fe80 f i libcmtd:typinfo.obj
 0002:00144ec0       ?_name_internal_method@type_info@@QBEPBDPAU__type_info_node@@@Z 0061fec0 f   libcmtd:typinfo.obj
 0002:00144ef0       ?_type_info_dtor_internal_method@type_info@@QAEXXZ 0061fef0 f   libcmtd:typinfo.obj
 0002:00144f10       ??8type_info@@QBE_NABV0@@Z 0061ff10 f   libcmtd:typinfo.obj
 0002:00144f50       ??9type_info@@QBE_NABV0@@Z 0061ff50 f   libcmtd:typinfo.obj
 0002:00144f90       ?before@type_info@@QBEHABV1@@Z 0061ff90 f   libcmtd:typinfo.obj
 0002:00144fd0       ?raw_name@type_info@@QBEPBDXZ 0061ffd0 f   libcmtd:typinfo.obj
 0002:00144ff0       ??0type_info@@AAE@ABV0@@Z  0061fff0 f   libcmtd:typinfo.obj
 0002:00145020       ??4type_info@@AAEAAV0@ABV0@@Z 00620020 f   libcmtd:typinfo.obj
 0002:00145040       ??0exception@std@@QAE@XZ   00620040 f   libcmtd:stdexcpt.obj
 0002:00145080       ??_Eexception@std@@UAEPAXI@Z 00620080 f i libcmtd:stdexcpt.obj
 0002:00145080       ??_Gexception@std@@UAEPAXI@Z 00620080 f i libcmtd:stdexcpt.obj
 0002:001450c0       ??0exception@std@@QAE@ABQBD@Z 006200c0 f   libcmtd:stdexcpt.obj
 0002:00145170       ??0exception@std@@QAE@ABQBDH@Z 00620170 f   libcmtd:stdexcpt.obj
 0002:001451b0       ??0exception@std@@QAE@ABV01@@Z 006201b0 f   libcmtd:stdexcpt.obj
 0002:00145280       ??4exception@std@@QAEAAV01@ABV01@@Z 00620280 f   libcmtd:stdexcpt.obj
 0002:00145350       ??1exception@std@@UAE@XZ   00620350 f   libcmtd:stdexcpt.obj
 0002:00145390       ?what@exception@std@@UBEPBDXZ 00620390 f   libcmtd:stdexcpt.obj
 0002:001453c0       ??0bad_cast@std@@QAE@PBD@Z 006203c0 f   libcmtd:stdexcpt.obj
 0002:001453f0       ??_Ebad_cast@std@@UAEPAXI@Z 006203f0 f i libcmtd:stdexcpt.obj
 0002:001453f0       ??_Gbad_cast@std@@UAEPAXI@Z 006203f0 f i libcmtd:stdexcpt.obj
 0002:00145430       ??0bad_cast@std@@QAE@ABV01@@Z 00620430 f   libcmtd:stdexcpt.obj
 0002:00145460       ??1bad_cast@std@@UAE@XZ    00620460 f   libcmtd:stdexcpt.obj
 0002:00145490       ??0bad_typeid@std@@QAE@PBD@Z 00620490 f   libcmtd:stdexcpt.obj
 0002:001454c0       ??_Ebad_typeid@std@@UAEPAXI@Z 006204c0 f i libcmtd:stdexcpt.obj
 0002:001454c0       ??_Gbad_typeid@std@@UAEPAXI@Z 006204c0 f i libcmtd:stdexcpt.obj
 0002:00145500       ??0bad_typeid@std@@QAE@ABV01@@Z 00620500 f   libcmtd:stdexcpt.obj
 0002:00145530       ??1bad_typeid@std@@UAE@XZ  00620530 f   libcmtd:stdexcpt.obj
 0002:00145560       ??0__non_rtti_object@std@@QAE@PBD@Z 00620560 f   libcmtd:stdexcpt.obj
 0002:00145590       ??_E__non_rtti_object@std@@UAEPAXI@Z 00620590 f i libcmtd:stdexcpt.obj
 0002:00145590       ??_G__non_rtti_object@std@@UAEPAXI@Z 00620590 f i libcmtd:stdexcpt.obj
 0002:001455d0       ??0__non_rtti_object@std@@QAE@ABV01@@Z 006205d0 f   libcmtd:stdexcpt.obj
 0002:00145600       ??1__non_rtti_object@std@@UAE@XZ 00620600 f   libcmtd:stdexcpt.obj
 0002:00145630       ??3@YAXPAX@Z               00620630 f   libcmtd:dbgdel.obj
 0002:00145750       _strlen                    00620750 f   libcmtd:strlen.obj
 0002:00145800       _free                      00620800 f   libcmtd:dbgfree.obj
 0002:00145820       ??2@YAPAXI@Z               00620820 f   libcmtd:new.obj
 0002:001458c0       ??0bad_alloc@std@@QAE@XZ   006208c0 f i libcmtd:new.obj
 0002:00145900       _memcpy_s                  00620900 f   libcmtd:memcpy_s.obj
 0002:00145af0       _memmove_s                 00620af0 f   libcmtd:memmove_s.obj
 0002:00145ca0       _malloc                    00620ca0 f   libcmtd:dbgmalloc.obj
 0002:00145ce0       __stricmp_l                00620ce0 f   libcmtd:stricmp.obj
 0002:00145ef0       ??0_LocaleUpdate@@QAE@PAUlocaleinfo_struct@@@Z 00620ef0 f i libcmtd:stricmp.obj
 0002:00146000       ??1_LocaleUpdate@@QAE@XZ   00621000 f i libcmtd:stricmp.obj
 0002:00146040       ?GetLocaleT@_LocaleUpdate@@QAEPAUlocaleinfo_struct@@XZ 00621040 f i libcmtd:stricmp.obj
 0002:00146060       ___ascii_stricmp           00621060 f   libcmtd:stricmp.obj
 0002:001460f0       __stricmp                  006210f0 f   libcmtd:stricmp.obj
 0002:00146240       _fread_s                   00621240 f   libcmtd:fread.obj
 0002:001463c0       __fread_nolock_s           006213c0 f   libcmtd:fread.obj
 0002:00146b10       _fread                     00621b10 f   libcmtd:fread.obj
 0002:00146b40       __fread_nolock             00621b40 f   libcmtd:fread.obj
 0002:00146b70       _fclose                    00621b70 f   libcmtd:fclose.obj
 0002:00146cc0       __fclose_nolock            00621cc0 f   libcmtd:fclose.obj
 0002:00146e00       _ftell                     00621e00 f   libcmtd:ftell.obj
 0002:00146f20       __ftell_nolock             00621f20 f   libcmtd:ftell.obj
 0002:001472a0       _fseek                     006222a0 f   libcmtd:fseek.obj
 0002:00147470       __fseek_nolock             00622470 f   libcmtd:fseek.obj
 0002:00147590       __fsopen                   00622590 f   libcmtd:fopen.obj
 0002:00147820       _fopen                     00622820 f   libcmtd:fopen.obj
 0002:00147840       _fopen_s                   00622840 f   libcmtd:fopen.obj
 0002:00147910       __mbsinc_l                 00622910 f   libcmtd:mbsinc.obj
 0002:00147970       __mbsinc                   00622970 f   libcmtd:mbsinc.obj
 0002:00147a40       __mbsncpy_l                00622a40 f   libcmtd:mbsncpy.obj
 0002:00147d20       __mbsncpy                  00622d20 f   libcmtd:mbsncpy.obj
 0002:00147d50       _sprintf                   00622d50 f   libcmtd:sprintf.obj
 0002:00147f30       __sprintf_l                00622f30 f   libcmtd:sprintf.obj
 0002:00147f70       _sprintf_s                 00622f70 f   libcmtd:sprintf.obj
 0002:00147fb0       __sprintf_s_l              00622fb0 f   libcmtd:sprintf.obj
 0002:00147ff0       __snprintf_s               00622ff0 f   libcmtd:sprintf.obj
 0002:00148030       __snprintf_s_l             00623030 f   libcmtd:sprintf.obj
 0002:00148070       __sprintf_p                00623070 f   libcmtd:sprintf.obj
 0002:001480b0       __sprintf_p_l              006230b0 f   libcmtd:sprintf.obj
 0002:001480f0       __scprintf                 006230f0 f   libcmtd:sprintf.obj
 0002:00148120       __scprintf_p               00623120 f   libcmtd:sprintf.obj
 0002:00148150       __scprintf_l               00623150 f   libcmtd:sprintf.obj
 0002:00148180       __scprintf_p_l             00623180 f   libcmtd:sprintf.obj
 0002:001481b0       _memset                    006231b0 f   libcmtd:memset.obj
 0002:00148250       _strcpy                    00623250 f   libcmtd:strcat.obj
 0002:00148260       _strcat                    00623260 f   libcmtd:strcat.obj
 0002:00148390       __fpmath                   00623390 f   libcmtd:_fpinit_.obj
 0002:001483c0       __fpclear                  006233c0 f   libcmtd:_fpinit_.obj
 0002:001483d0       __cfltcvt_init             006233d0 f   libcmtd:_fpinit_.obj
 0002:00148460       ___setfflag                00623460 f   libcmtd:_fpinit_.obj
 0002:00148490       __ftol2_sse                00623490 f   libcmtd:ftol2.obj
 0002:00148499       __ftol2_pentium4           00623499 f   libcmtd:ftol2.obj
 0002:001484ac       __ftol2_sse_excpt          006234ac f   libcmtd:ftol2.obj
 0002:001484c6       __ftol2                    006234c6 f   libcmtd:ftol2.obj
 0002:00148570       _DebuggerKnownHandle       00623570 f   libcmtd:_error_.obj
 0002:00148650       ?_RTC_Failure@@YAXPAXH@Z   00623650 f   libcmtd:_error_.obj
 0002:00148a20       ?_RTC_StackFailure@@YAXPAXPBD@Z 00623a20 f   libcmtd:_error_.obj
 0002:00148b60       ?_RTC_AllocaFailure@@YAXPAXPAU_RTC_ALLOCA_NODE@@H@Z 00623b60 f   libcmtd:_error_.obj
 0002:00148d70       __RTC_UninitUse            00623d70 f   libcmtd:_error_.obj
 0002:00148ea0       _strtol                    00623ea0 f   libcmtd:strtol.obj
 0002:00149520       __strtol_l                 00624520 f   libcmtd:strtol.obj
 0002:00149550       _strtoul                   00624550 f   libcmtd:strtol.obj
 0002:001495b0       __strtoul_l                006245b0 f   libcmtd:strtol.obj
 0002:001495e0       _memcpy                    006245e0 f   libcmtd:memcpy.obj
 0002:00149a20       __alloca_probe             00624a20     libcmtd:chkstk.obj
 0002:00149a20       __chkstk                   00624a20 f   libcmtd:chkstk.obj
 0002:00149a60       __mbstok_l                 00624a60 f   libcmtd:mbstok.obj
 0002:00149aa0       __mbstok                   00624aa0 f   libcmtd:mbstok.obj
 0002:00149ac0       _fgets                     00624ac0 f   libcmtd:fgets.obj
 0002:00149f30       _fputs                     00624f30 f   libcmtd:fputs.obj
 0002:0014a270       _fprintf                   00625270 f   libcmtd:fprintf.obj
 0002:0014a5c0       __fprintf_l                006255c0 f   libcmtd:fprintf.obj
 0002:0014a600       __fprintf_s_l              00625600 f   libcmtd:fprintf.obj
 0002:0014a640       _fprintf_s                 00625640 f   libcmtd:fprintf.obj
 0002:0014a670       __fprintf_p_l              00625670 f   libcmtd:fprintf.obj
 0002:0014a6b0       __fprintf_p                006256b0 f   libcmtd:fprintf.obj
 0002:0014a6e0       __initp_misc_invarg        006256e0 f   libcmtd:invarg.obj
 0002:0014a700       __invalid_parameter        00625700 f   libcmtd:invarg.obj
 0002:0014a790       __invoke_watson            00625790 f   libcmtd:invarg.obj
 0002:0014a930       __set_invalid_parameter_handler 00625930 f   libcmtd:invarg.obj
 0002:0014a990       __get_invalid_parameter_handler 00625990 f   libcmtd:invarg.obj
 0002:0014a9d0       ?_invalid_parameter@@YAXPBG00II@Z 006259d0 f   libcmtd:invarg.obj
 0002:0014aa00       ?_invoke_watson@@YAXPBG00II@Z 00625a00 f   libcmtd:invarg.obj
 0002:0014aa30       __CrtSetReportHookW2       00625a30 f   libcmtd:dbgrptw.obj
 0002:0014ae20       __CrtDbgReportW            00625e20 f   libcmtd:dbgrptw.obj
 0002:0014ae70       __CrtDbgReportWV           00625e70 f i libcmtd:dbgrptw.obj
 0002:0014aea0       ___crtMessageWindowW       00625ea0 f   libcmtd:dbgrptw.obj
 0002:0014b3a0       __invoke_watson_if_error   006263a0 f i libcmtd:dbgrptw.obj
 0002:0014b3e0       __invoke_watson_if_oneof   006263e0 f i libcmtd:dbgrptw.obj
 0002:0014b440       ?_CrtDbgReportW@@YAHHPBGH00ZZ 00626440 f   libcmtd:dbgrptw.obj
 0002:0014b490       _srand                     00626490 f   libcmtd:rand.obj
 0002:0014b4b0       _rand                      006264b0 f   libcmtd:rand.obj
 0002:0014b500       __time64                   00626500 f   libcmtd:time64.obj
 0002:0014b5a0       __vsprintf_l               006265a0 f   libcmtd:vsprintf.obj
 0002:0014b770       _vsprintf                  00626770 f   libcmtd:vsprintf.obj
 0002:0014b7a0       __vscprintf_helper         006267a0 f   libcmtd:vsprintf.obj
 0002:0014b890       __vscprintf                00626890 f   libcmtd:vsprintf.obj
 0002:0014b8c0       __vscprintf_l              006268c0 f   libcmtd:vsprintf.obj
 0002:0014b8f0       __vscprintf_p              006268f0 f   libcmtd:vsprintf.obj
 0002:0014b920       __vscprintf_p_l            00626920 f   libcmtd:vsprintf.obj
 0002:0014b950       __toupper                  00626950 f   libcmtd:toupper.obj
 0002:0014b960       __toupper_l                00626960 f   libcmtd:toupper.obj
 0002:0014bbb0       _toupper                   00626bb0 f   libcmtd:toupper.obj
 0002:0014bc10       __onexit                   00626c10 f   libcmtd:onexit.obj
 0002:0014be60       _atexit                    00626e60 f   libcmtd:onexit.obj
 0002:0014be90       ___onexitinit              00626e90 f   libcmtd:onexit.obj
 0002:0014bf00       ??_M@YGXPAXIHP6EX0@Z@Z     00626f00 f   libcmtd:ehvecdtr.obj
 0002:0014bfe0       ?__ArrayUnwind@@YGXPAXIHP6EX0@Z@Z 00626fe0 f   libcmtd:ehvecdtr.obj
 0002:0014c0d0       ??_L@YGXPAXIHP6EX0@Z1@Z    006270d0 f   libcmtd:ehvecctr.obj
 0002:0014c1b0       __isleadbyte_l             006271b0 f i libcmtd:_wctype.obj
 0002:0014c210       _isleadbyte                00627210 f i libcmtd:_wctype.obj
 0002:0014c230       __iswalpha_l               00627230 f i libcmtd:_wctype.obj
 0002:0014c260       _iswalpha                  00627260 f i libcmtd:_wctype.obj
 0002:0014c280       __iswupper_l               00627280 f i libcmtd:_wctype.obj
 0002:0014c2a0       _iswupper                  006272a0 f i libcmtd:_wctype.obj
 0002:0014c2c0       __iswlower_l               006272c0 f i libcmtd:_wctype.obj
 0002:0014c2e0       _iswlower                  006272e0 f i libcmtd:_wctype.obj
 0002:0014c300       __iswdigit_l               00627300 f i libcmtd:_wctype.obj
 0002:0014c320       _iswdigit                  00627320 f i libcmtd:_wctype.obj
 0002:0014c340       __iswxdigit_l              00627340 f i libcmtd:_wctype.obj
 0002:0014c370       _iswxdigit                 00627370 f i libcmtd:_wctype.obj
 0002:0014c390       __iswspace_l               00627390 f i libcmtd:_wctype.obj
 0002:0014c3b0       _iswspace                  006273b0 f i libcmtd:_wctype.obj
 0002:0014c3d0       __iswpunct_l               006273d0 f i libcmtd:_wctype.obj
 0002:0014c3f0       _iswpunct                  006273f0 f i libcmtd:_wctype.obj
 0002:0014c410       __iswalnum_l               00627410 f i libcmtd:_wctype.obj
 0002:0014c440       _iswalnum                  00627440 f i libcmtd:_wctype.obj
 0002:0014c460       __iswprint_l               00627460 f i libcmtd:_wctype.obj
 0002:0014c490       _iswprint                  00627490 f i libcmtd:_wctype.obj
 0002:0014c4b0       __iswgraph_l               006274b0 f i libcmtd:_wctype.obj
 0002:0014c4e0       _iswgraph                  006274e0 f i libcmtd:_wctype.obj
 0002:0014c500       __iswcntrl_l               00627500 f i libcmtd:_wctype.obj
 0002:0014c520       _iswcntrl                  00627520 f i libcmtd:_wctype.obj
 0002:0014c540       _iswascii                  00627540 f i libcmtd:_wctype.obj
 0002:0014c560       __iswcsym_l                00627560 f i libcmtd:_wctype.obj
 0002:0014c5b0       ___iswcsym                 006275b0 f i libcmtd:_wctype.obj
 0002:0014c600       __iswcsymf_l               00627600 f i libcmtd:_wctype.obj
 0002:0014c650       ___iswcsymf                00627650 f i libcmtd:_wctype.obj
 0002:0014c6a0       __mbsupr_s_l               006276a0 f   libcmtd:mbsupr.obj
 0002:0014cb40       __mbsupr_s                 00627b40 f   libcmtd:mbsupr.obj
 0002:0014cb60       __mbsupr_l                 00627b60 f   libcmtd:mbsupr.obj
 0002:0014cba0       __mbsupr                   00627ba0 f   libcmtd:mbsupr.obj
 0002:0014cbd0       _strcmp                    00627bd0 f   libcmtd:strcmp.obj
 0002:0014cc80       _fwrite                    00627c80 f   libcmtd:fwrite.obj
 0002:0014cdd0       __fwrite_nolock            00627dd0 f   libcmtd:fwrite.obj
 0002:0014d290       _atol                      00628290 f   libcmtd:atox.obj
 0002:0014d2b0       __atol_l                   006282b0 f   libcmtd:atox.obj
 0002:0014d2e0       _atoi                      006282e0 f   libcmtd:atox.obj
 0002:0014d300       __atoi_l                   00628300 f   libcmtd:atox.obj
 0002:0014d320       __atoi64                   00628320 f   libcmtd:atox.obj
 0002:0014d340       __atoi64_l                 00628340 f   libcmtd:atox.obj
 0002:0014d370       _memcmp                    00628370 f   libcmtd:memcmp.obj
 0002:0014e090       __beginthread              00629090 f   libcmtd:thread.obj
 0002:0014e3c0       __endthread                006293c0 f   libcmtd:thread.obj
 0002:0014e440       __isalpha_l                00629440 f i libcmtd:_ctype.obj
 0002:0014e4f0       _isalpha                   006294f0 f i libcmtd:_ctype.obj
 0002:0014e530       __isupper_l                00629530 f i libcmtd:_ctype.obj
 0002:0014e5d0       _isupper                   006295d0 f i libcmtd:_ctype.obj
 0002:0014e610       __islower_l                00629610 f i libcmtd:_ctype.obj
 0002:0014e6b0       _islower                   006296b0 f i libcmtd:_ctype.obj
 0002:0014e6f0       __isdigit_l                006296f0 f i libcmtd:_ctype.obj
 0002:0014e790       _isdigit                   00629790 f i libcmtd:_ctype.obj
 0002:0014e7d0       __isxdigit_l               006297d0 f i libcmtd:_ctype.obj
 0002:0014e880       _isxdigit                  00629880 f i libcmtd:_ctype.obj
 0002:0014e8c0       __isspace_l                006298c0 f i libcmtd:_ctype.obj
 0002:0014e960       _isspace                   00629960 f i libcmtd:_ctype.obj
 0002:0014e9a0       __ispunct_l                006299a0 f i libcmtd:_ctype.obj
 0002:0014ea40       _ispunct                   00629a40 f i libcmtd:_ctype.obj
 0002:0014ea80       __isalnum_l                00629a80 f i libcmtd:_ctype.obj
 0002:0014eb30       _isalnum                   00629b30 f i libcmtd:_ctype.obj
 0002:0014eb70       __isprint_l                00629b70 f i libcmtd:_ctype.obj
 0002:0014ec20       _isprint                   00629c20 f i libcmtd:_ctype.obj
 0002:0014ec60       __isgraph_l                00629c60 f i libcmtd:_ctype.obj
 0002:0014ed10       _isgraph                   00629d10 f i libcmtd:_ctype.obj
 0002:0014ed50       __iscntrl_l                00629d50 f i libcmtd:_ctype.obj
 0002:0014edf0       _iscntrl                   00629df0 f i libcmtd:_ctype.obj
 0002:0014ee30       ___isascii                 00629e30 f i libcmtd:_ctype.obj
 0002:0014ee50       ___toascii                 00629e50 f i libcmtd:_ctype.obj
 0002:0014ee60       __iscsymf_l                00629e60 f i libcmtd:_ctype.obj
 0002:0014eeb0       ___iscsymf                 00629eb0 f i libcmtd:_ctype.obj
 0002:0014eef0       __iscsym_l                 00629ef0 f i libcmtd:_ctype.obj
 0002:0014ef40       ___iscsym                  00629f40 f i libcmtd:_ctype.obj
 0002:0014ef90       __ismbcprint_l             00629f90 f   libcmtd:ismbprn.obj
 0002:0014f150       __ismbcprint               0062a150 f   libcmtd:ismbprn.obj
 0002:0014f170       _fputc                     0062a170 f   libcmtd:fputc.obj
 0002:0014f460       _putc                      0062a460 f   libcmtd:fputc.obj
 0002:0014f750       __makepath                 0062a750 f   libcmtd:makepath.obj
 0002:0014f780       __splitpath                0062a780 f   libcmtd:splitpat.obj
 0002:0014fcd0       __ismbbkalnum_l            0062acd0 f   libcmtd:ismbbyte.obj
 0002:0014fd00       __ismbbkalnum              0062ad00 f   libcmtd:ismbbyte.obj
 0002:0014fd20       __ismbbkprint_l            0062ad20 f   libcmtd:ismbbyte.obj
 0002:0014fd50       __ismbbkprint              0062ad50 f   libcmtd:ismbbyte.obj
 0002:0014fd70       __ismbbkpunct_l            0062ad70 f   libcmtd:ismbbyte.obj
 0002:0014fda0       __ismbbkpunct              0062ada0 f   libcmtd:ismbbyte.obj
 0002:0014fdc0       __ismbbalnum_l             0062adc0 f   libcmtd:ismbbyte.obj
 0002:0014fdf0       __ismbbalnum               0062adf0 f   libcmtd:ismbbyte.obj
 0002:0014fe20       __ismbbalpha_l             0062ae20 f   libcmtd:ismbbyte.obj
 0002:0014fe50       __ismbbalpha               0062ae50 f   libcmtd:ismbbyte.obj
 0002:0014fe80       __ismbbgraph_l             0062ae80 f   libcmtd:ismbbyte.obj
 0002:0014feb0       __ismbbgraph               0062aeb0 f   libcmtd:ismbbyte.obj
 0002:0014fee0       __ismbbprint_l             0062aee0 f   libcmtd:ismbbyte.obj
 0002:0014ff10       __ismbbprint               0062af10 f   libcmtd:ismbbyte.obj
 0002:0014ff40       __ismbbpunct_l             0062af40 f   libcmtd:ismbbyte.obj
 0002:0014ff70       __ismbbpunct               0062af70 f   libcmtd:ismbbyte.obj
 0002:0014ff90       __ismbblead_l              0062af90 f   libcmtd:ismbbyte.obj
 0002:0014ffc0       __ismbblead                0062afc0 f   libcmtd:ismbbyte.obj
 0002:0014ffe0       __ismbbtrail_l             0062afe0 f   libcmtd:ismbbyte.obj
 0002:00150010       __ismbbtrail               0062b010 f   libcmtd:ismbbyte.obj
 0002:00150030       __ismbbkana_l              0062b030 f   libcmtd:ismbbyte.obj
 0002:001500c0       __ismbbkana                0062b0c0 f   libcmtd:ismbbyte.obj
 0002:001501e0       _strncmp                   0062b1e0 f   libcmtd:strncmp.obj
 0002:001503b0       __malloc_dbg               0062b3b0 f   libcmtd:dbgheap.obj
 0002:001503f0       __nh_malloc                0062b3f0 f   libcmtd:dbgheap.obj
 0002:00150420       __nh_malloc_dbg            0062b420 f   libcmtd:dbgheap.obj
 0002:00150510       __heap_alloc               0062b510 f   libcmtd:dbgheap.obj
 0002:001509d0       __heap_alloc_dbg           0062b9d0 f   libcmtd:dbgheap.obj
 0002:00150a40       __calloc_dbg_impl          0062ba40 f   libcmtd:dbgheap.obj
 0002:00150b40       __calloc_dbg               0062bb40 f   libcmtd:dbgheap.obj
 0002:00150bb0       __recalloc                 0062bbb0 f   libcmtd:dbgheap.obj
 0002:00150bf0       __realloc_dbg              0062bbf0 f   libcmtd:dbgheap.obj
 0002:00151430       __recalloc_dbg             0062c430 f   libcmtd:dbgheap.obj
 0002:00151570       __expand                   0062c570 f   libcmtd:dbgheap.obj
 0002:001515a0       __expand_dbg               0062c5a0 f   libcmtd:dbgheap.obj
 0002:001516f0       __free_nolock              0062c6f0 f   libcmtd:dbgheap.obj
 0002:00151710       __free_dbg                 0062c710 f   libcmtd:dbgheap.obj
 0002:001517b0       __free_dbg_nolock          0062c7b0 f   libcmtd:dbgheap.obj
 0002:00151dd0       __msize                    0062cdd0 f   libcmtd:dbgheap.obj
 0002:00151df0       __msize_dbg                0062cdf0 f   libcmtd:dbgheap.obj
 0002:00152050       __CrtSetBreakAlloc         0062d050 f   libcmtd:dbgheap.obj
 0002:00152080       __CrtSetDbgBlockType       0062d080 f   libcmtd:dbgheap.obj
 0002:001521a0       __CrtSetAllocHook          0062d1a0 f   libcmtd:dbgheap.obj
 0002:001521d0       __CrtGetAllocHook          0062d1d0 f   libcmtd:dbgheap.obj
 0002:00152240       __CrtCheckMemory           0062d240 f   libcmtd:dbgheap.obj
 0002:001527b0       __CrtSetDbgFlag            0062d7b0 f   libcmtd:dbgheap.obj
 0002:00152950       __CrtDoForAllClientObjects 0062d950 f   libcmtd:dbgheap.obj
 0002:00152ac0       __CrtIsValidPointer        0062dac0 f   libcmtd:dbgheap.obj
 0002:00152ae0       __CrtIsValidHeapPointer    0062dae0 f   libcmtd:dbgheap.obj
 0002:00152ba0       __CrtIsMemoryBlock         0062dba0 f   libcmtd:dbgheap.obj
 0002:00152d70       __CrtReportBlockType       0062dd70 f   libcmtd:dbgheap.obj
 0002:00152db0       __CrtSetDumpClient         0062ddb0 f   libcmtd:dbgheap.obj
 0002:00152de0       __CrtGetDumpClient         0062dde0 f   libcmtd:dbgheap.obj
 0002:00152df0       __CrtMemCheckpoint         0062ddf0 f   libcmtd:dbgheap.obj
 0002:00153090       __CrtMemDifference         0062e090 f   libcmtd:dbgheap.obj
 0002:00153330       __CrtMemDumpAllObjectsSince 0062e330 f   libcmtd:dbgheap.obj
 0002:00153960       __CrtDumpMemoryLeaks       0062e960 f   libcmtd:dbgheap.obj
 0002:001539f0       __CrtMemDumpStatistics     0062e9f0 f   libcmtd:dbgheap.obj
 0002:00153b40       __aligned_malloc           0062eb40 f   libcmtd:dbgheap.obj
 0002:00153b70       __aligned_malloc_dbg       0062eb70 f   libcmtd:dbgheap.obj
 0002:00153ba0       __aligned_realloc          0062eba0 f   libcmtd:dbgheap.obj
 0002:00153bd0       __aligned_recalloc         0062ebd0 f   libcmtd:dbgheap.obj
 0002:00153c00       __aligned_realloc_dbg      0062ec00 f   libcmtd:dbgheap.obj
 0002:00153c30       __aligned_recalloc_dbg     0062ec30 f   libcmtd:dbgheap.obj
 0002:00153c70       __aligned_offset_malloc    0062ec70 f   libcmtd:dbgheap.obj
 0002:00153ca0       __aligned_offset_malloc_dbg 0062eca0 f   libcmtd:dbgheap.obj
 0002:00153eb0       __aligned_offset_realloc   0062eeb0 f   libcmtd:dbgheap.obj
 0002:00153ee0       __aligned_offset_recalloc  0062eee0 f   libcmtd:dbgheap.obj
 0002:00153f10       __aligned_offset_realloc_dbg 0062ef10 f   libcmtd:dbgheap.obj
 0002:00154290       __aligned_offset_recalloc_dbg 0062f290 f   libcmtd:dbgheap.obj
 0002:001543e0       __aligned_free             0062f3e0 f   libcmtd:dbgheap.obj
 0002:00154400       __aligned_free_dbg         0062f400 f   libcmtd:dbgheap.obj
 0002:001544e0       __CrtSetDebugFillThreshold 0062f4e0 f   libcmtd:dbgheap.obj
 0002:00154510       __CrtSetCheckCount         0062f510 f   libcmtd:dbgheap.obj
 0002:00154530       __CrtGetCheckCount         0062f530 f   libcmtd:dbgheap.obj
 0002:00154540       __aligned_msize            0062f540 f   libcmtd:dbgheap.obj
 0002:00154570       __aligned_msize_dbg        0062f570 f   libcmtd:dbgheap.obj
 0002:001546c0       __purecall                 0062f6c0 f   libcmtd:purevirt.obj
 0002:00154710       __set_purecall_handler     0062f710 f   libcmtd:purevirt.obj
 0002:00154760       __get_purecall_handler     0062f760 f   libcmtd:purevirt.obj
 0002:00154780       _pow                       0062f780 f   libcmtd:_pow_.obj
 0002:001547c0       __CIpow                    0062f7c0 f   libcmtd:_pow_.obj
 0002:001547fb       __CIpow_default            0062f7fb f   libcmtd:_pow_.obj
 0002:00154814       __pow_default              0062f814     libcmtd:_pow_.obj
 0002:00154ab0       _abs                       0062fab0 f   libcmtd:abs.obj
 0002:00154ae0       __abs64                    0062fae0 f   libcmtd:abs.obj
 0002:00154b40       _calloc                    0062fb40 f   libcmtd:dbgcalloc.obj
 0002:00154b70       _log                       0062fb70 f   libcmtd:_log_.obj
 0002:00154bb0       __CIlog                    0062fbb0 f   libcmtd:_log_.obj
 0002:00154beb       __CIlog_default            0062fbeb f   libcmtd:_log_.obj
 0002:00154bff       __log_default              0062fbff     libcmtd:_log_.obj
 0002:00154d20       _sin                       0062fd20 f   libcmtd:_sin_.obj
 0002:00154d60       __CIsin                    0062fd60 f   libcmtd:_sin_.obj
 0002:00154d9b       __CIsin_default            0062fd9b f   libcmtd:_sin_.obj
 0002:00154daf       __sin_default              0062fdaf     libcmtd:_sin_.obj
 0002:00154ea0       _log10                     0062fea0 f   libcmtd:_log10_.obj
 0002:00154ee0       __CIlog10                  0062fee0 f   libcmtd:_log10_.obj
 0002:00154f1b       __CIlog10_default          0062ff1b f   libcmtd:_log10_.obj
 0002:00154f2f       __log10_default            0062ff2f     libcmtd:_log10_.obj
 0002:00155060       _strchr                    00630060 f   libcmtd:strchr.obj
 0002:00155066       ___from_strstr_to_strchr   00630066     libcmtd:strchr.obj
 0002:00155160       _floor                     00630160 f   libcmtd:_floor_pentium4_.obj
 0002:001551a0       __floor_pentium4           006301a0 f   libcmtd:_floor_pentium4_.obj
 0002:001552d0       __alldiv                   006302d0 f   libcmtd:lldiv.obj
 0002:001553b0       _fgetc                     006303b0 f   libcmtd:fgetc.obj
 0002:00155690       _getc                      00630690 f   libcmtd:fgetc.obj
 0002:00155970       __getc_nolock              00630970 f   libcmtd:fgetc.obj
 0002:001559e0       __mbsnbicmp_l              006309e0 f   libcmtd:mbsnbicm.obj
 0002:00155fb0       __mbsnbicmp                00630fb0 f   libcmtd:mbsnbicm.obj
 0002:00155fe0       _feof                      00630fe0 f   libcmtd:feoferr.obj
 0002:00156070       _ferror                    00631070 f   libcmtd:feoferr.obj
 0002:00156100       _WinMainCRTStartup         00631100 f   libcmtd:wincrt0.obj
 0002:00156450       __RTC_NumErrors            00631450 f   libcmtd:_userapi_.obj
 0002:00156460       __RTC_GetErrDesc           00631460 f   libcmtd:_userapi_.obj
 0002:00156480       __RTC_SetErrorType         00631480 f   libcmtd:_userapi_.obj
 0002:001564b0       __RTC_SetErrorFunc         006314b0 f   libcmtd:_userapi_.obj
 0002:001564e0       __RTC_SetErrorFuncW        006314e0 f   libcmtd:_userapi_.obj
 0002:00156510       ?_RTC_GetErrorFunc@@YAP6AHHPBDH00ZZPBX@Z 00631510 f   libcmtd:_userapi_.obj
 0002:00156520       ?_RTC_GetErrorFuncW@@YAP6AHHPB_WH00ZZPBX@Z 00631520 f   libcmtd:_userapi_.obj
 0002:00156530       __chkesp                   00631530 f   libcmtd:chkesp.obj
 0002:00156580       __CRT_RTC_INIT             00631580 f   libcmtd:chkesp.obj
 0002:00156590       __CRT_RTC_INITW            00631590 f   libcmtd:chkesp.obj
 0002:001565a0       ___InternalCxxFrameHandler 006315a0 f   libcmtd:frame.obj
 0002:00156d10       ??0bad_exception@std@@QAE@PBD@Z 00631d10 f i libcmtd:frame.obj
 0002:00156d40       ??1bad_exception@std@@UAE@XZ 00631d40 f i libcmtd:frame.obj
 0002:00156d70       ??_Gbad_exception@std@@UAEPAXI@Z 00631d70 f i libcmtd:frame.obj
 0002:00156d70       ??_Ebad_exception@std@@UAEPAXI@Z 00631d70 f i libcmtd:frame.obj
 0002:00156db0       ??0bad_exception@std@@QAE@ABV01@@Z 00631db0 f i libcmtd:frame.obj
 0002:00156fc0       ___TypeMatch               00631fc0 f   libcmtd:frame.obj
 0002:001570a0       ___FrameUnwindFilter       006320a0 f   libcmtd:frame.obj
 0002:00157130       ___FrameUnwindToState      00632130 f   libcmtd:frame.obj
 0002:001577c0       ___BuildCatchObjectHelper  006327c0 f   libcmtd:frame.obj
 0002:00157ad0       ___BuildCatchObject        00632ad0 f   libcmtd:frame.obj
 0002:00157c20       ___DestructExceptionObject 00632c20 f   libcmtd:frame.obj
 0002:00157d00       ___AdjustPointer           00632d00 f   libcmtd:frame.obj
 0002:00157d60       ?__uncaught_exception@@YA_NXZ 00632d60 f   libcmtd:frame.obj
 0002:00157d80       ___CxxExceptionFilter      00632d80 f   libcmtd:frame.obj
 0002:00157fe0       ___CxxRegisterExceptionObject 00632fe0 f   libcmtd:frame.obj
 0002:00158160       ___CxxDetectRethrow        00633160 f   libcmtd:frame.obj
 0002:00158210       ___CxxUnregisterExceptionObject 00633210 f   libcmtd:frame.obj
 0002:001583f0       ___CxxQueryExceptionSize   006333f0 f   libcmtd:frame.obj
 0002:00158400       ___CxxCallUnwindDtor       00633400 f   libcmtd:frame.obj
 0002:001584a0       ___CxxCallUnwindDelDtor    006334a0 f   libcmtd:frame.obj
 0002:00158540       ___CxxCallUnwindStdDelDtor 00633540 f   libcmtd:frame.obj
 0002:001585e0       ___CxxCallUnwindVecDtor    006335e0 f   libcmtd:frame.obj
 0002:001588b0       ?_is_exception_typeof@@YAHABVtype_info@@PAU_EXCEPTION_POINTERS@@@Z 006338b0 f   libcmtd:frame.obj
 0002:001589c0       __CallSettingFrame@12      006339c0 f   libcmtd:lowhelpr.obj
 0002:001589e7       __NLG_Return               006339e7     libcmtd:lowhelpr.obj
 0002:00158a20       __encode_pointer           00633a20 f   libcmtd:tidtable.obj
 0002:00158ae0       __crt_wait_module_handle   00633ae0 f i libcmtd:tidtable.obj
 0002:00158b20       __encoded_null             00633b20 f   libcmtd:tidtable.obj
 0002:00158b40       __decode_pointer           00633b40 f   libcmtd:tidtable.obj
 0002:00158c00       ___crtTlsAlloc@4           00633c00 f   libcmtd:tidtable.obj
 0002:00158c20       ___fls_getvalue@4          00633c20 f   libcmtd:tidtable.obj
 0002:00158c50       ___get_flsindex            00633c50 f   libcmtd:tidtable.obj
 0002:00158c60       ___set_flsgetvalue         00633c60 f   libcmtd:tidtable.obj
 0002:00158cc0       ___fls_setvalue@8          00633cc0 f   libcmtd:tidtable.obj
 0002:00158cf0       __mtinit                   00633cf0 f   libcmtd:tidtable.obj
 0002:00158f80       __mtterm                   00633f80 f   libcmtd:tidtable.obj
 0002:00158ff0       __initptd                  00633ff0 f   libcmtd:tidtable.obj
 0002:001591a0       __getptd_noexit            006341a0 f   libcmtd:tidtable.obj
 0002:00159290       __getptd                   00634290 f   libcmtd:tidtable.obj
 0002:001592c0       __freefls@4                006342c0 f   libcmtd:tidtable.obj
 0002:00159550       __freeptd                  00634550 f   libcmtd:tidtable.obj
 0002:001595f0       ___threadid                006345f0 f   libcmtd:tidtable.obj
 0002:00159600       ___threadhandle            00634600 f   libcmtd:tidtable.obj
 0002:00159610       __initp_eh_hooks           00634610 f   libcmtd:hooks.obj
 0002:00159630       ?terminate@@YAXXZ          00634630 f   libcmtd:hooks.obj
 0002:001596d0       ?unexpected@@YAXXZ         006346d0 f   libcmtd:hooks.obj
 0002:00159700       ?_inconsistency@@YAXXZ     00634700 f   libcmtd:hooks.obj
 0002:001597b0       ___report_gsfailure        006347b0 f   libcmtd:gs_report.obj
 0002:00159910       ?_Type_info_dtor@type_info@@CAXPAV1@@Z 00634910 f   libcmtd:typname.obj
 0002:00159a60       ?_Name_base@type_info@@CAPBDPBV1@PAU__type_info_node@@@Z 00634a60 f   libcmtd:typname.obj
 0002:00159c70       ?_Type_info_dtor_internal@type_info@@CAXPAV1@@Z 00634c70 f   libcmtd:typname.obj
 0002:00159dc0       ___unDNameHelper           00634dc0 f   libcmtd:typname.obj
 0002:00159e10       ?_Name_base_internal@type_info@@CAPBDPBV1@PAU__type_info_node@@@Z 00634e10 f   libcmtd:typname.obj
 0002:0015a040       ___clean_type_info_names_internal 00635040 f   libcmtd:typname.obj
 0002:0015a120       _strcpy_s                  00635120 f   libcmtd:strcpy_s.obj
 0002:0015a4b0       __mtinitlocks              006354b0 f   libcmtd:mlock.obj
 0002:0015a560       __mtdeletelocks            00635560 f   libcmtd:mlock.obj
 0002:0015a650       __mtinitlocknum            00635650 f   libcmtd:mlock.obj
 0002:0015a7f0       __lock                     006357f0 f   libcmtd:mlock.obj
 0002:0015a840       __unlock                   00635840 f   libcmtd:mlock.obj
 0002:0015a860       __lockerr_exit             00635860 f   libcmtd:mlock.obj
 0002:0015a890       __except_handler4          00635890 f   libcmtd:chandler4.obj
 0002:0015ab40       __initp_heap_handler       00635b40 f   libcmtd:handler.obj
 0002:0015ab60       ?_set_new_handler@@YAP6AHI@ZP6AHI@Z@Z 00635b60 f   libcmtd:handler.obj
 0002:0015abc0       ?_set_new_handler@@YAP6AHI@ZH@Z 00635bc0 f   libcmtd:handler.obj
 0002:0015ac10       ?_query_new_handler@@YAP6AHI@ZXZ 00635c10 f   libcmtd:handler.obj
 0002:0015ac30       __callnewh                 00635c30 f   libcmtd:handler.obj
 0002:0015ac80       __dosmaperr                00635c80 f   libcmtd:dosmap.obj
 0002:0015acc0       __get_errno_from_oserr     00635cc0 f   libcmtd:dosmap.obj
 0002:0015ad60       __set_errno                00635d60 f   libcmtd:dosmap.obj
 0002:0015ada0       __get_errno                00635da0 f   libcmtd:dosmap.obj
 0002:0015ae40       __set_doserrno             00635e40 f   libcmtd:dosmap.obj
 0002:0015ae80       __get_doserrno             00635e80 f   libcmtd:dosmap.obj
 0002:0015af20       __errno                    00635f20 f   libcmtd:dosmap.obj
 0002:0015af50       ___doserrno                00635f50 f   libcmtd:dosmap.obj
 0002:0015af80       _memmove                   00635f80 f   libcmtd:memmove.obj
 0002:0015b3c0       __tolower                  006363c0 f   libcmtd:tolower.obj
 0002:0015b3d0       __tolower_l                006363d0 f   libcmtd:tolower.obj
 0002:0015b620       _tolower                   00636620 f   libcmtd:tolower.obj
 0002:0015b680       ___updatetmbcinfo          00636680 f   libcmtd:mbctype.obj
 0002:0015b7d0       __setmbcp                  006367d0 f   libcmtd:mbctype.obj
 0002:0015bc60       __setmbcp_nolock           00636c60 f   libcmtd:mbctype.obj
 0002:0015c640       __getmbcp                  00637640 f   libcmtd:mbctype.obj
 0002:0015c6d0       ___initmbctable            006376d0 f   libcmtd:mbctype.obj
 0002:0015c700       ____setlc_active_func      00637700 f   libcmtd:setlocal.obj
 0002:0015c710       ____unguarded_readlc_active_add_func 00637710 f   libcmtd:setlocal.obj
 0002:0015c720       ___freetlocinfo            00637720 f   libcmtd:setlocal.obj
 0002:0015cac0       ___addlocaleref            00637ac0 f   libcmtd:setlocal.obj
 0002:0015cc30       ___removelocaleref         00637c30 f   libcmtd:setlocal.obj
 0002:0015cdb0       ___updatetlocinfo          00637db0 f   libcmtd:setlocal.obj
 0002:0015cf50       __configthreadlocale       00637f50 f   libcmtd:setlocal.obj
 0002:0015d0a0       __locterm                  006380a0 f   libcmtd:setlocal.obj
 0002:0015d160       __free_locale              00638160 f   libcmtd:setlocal.obj
 0002:0015d2f0       ___free_locale             006382f0 f   libcmtd:setlocal.obj
 0002:0015d310       __create_locale            00638310 f   libcmtd:setlocal.obj
 0002:0015d5c0       ___create_locale           006385c0 f   libcmtd:setlocal.obj
 0002:0015d5e0       __get_current_locale       006385e0 f   libcmtd:setlocal.obj
 0002:0015d740       ___get_current_locale      00638740 f   libcmtd:setlocal.obj
 0002:0015d750       _setlocale                 00638750 f   libcmtd:setlocal.obj
 0002:0015ea20       __expandlocale             00639a20 f   libcmtd:setlocal.obj
 0002:0015ed70       ___init_dummy              00639d70 f   libcmtd:setlocal.obj
 0002:0015ed80       __strcats                  00639d80 f   libcmtd:setlocal.obj
 0002:0015ee20       ___lc_strtolc              00639e20 f   libcmtd:setlocal.obj
 0002:0015f0a0       ___lc_lctostr              0063a0a0 f   libcmtd:setlocal.obj
 0002:0015f160       ___iob_func                0063a160 f   libcmtd:_file.obj
 0002:0015f170       ___initstdio               0063a170 f   libcmtd:_file.obj
 0002:0015f310       ___endstdio                0063a310 f   libcmtd:_file.obj
 0002:0015f350       __lock_file                0063a350 f   libcmtd:_file.obj
 0002:0015f3c0       __lock_file2               0063a3c0 f   libcmtd:_file.obj
 0002:0015f410       __unlock_file              0063a410 f   libcmtd:_file.obj
 0002:0015f480       __unlock_file2             0063a480 f   libcmtd:_file.obj
 0002:0015f4d0       __filbuf                   0063a4d0 f   libcmtd:_filbuf.obj
 0002:0015f7b0       __read                     0063a7b0 f   libcmtd:read.obj
 0002:0015faf0       __read_nolock              0063aaf0 f   libcmtd:read.obj
 0002:00160e10       __fileno                   0063be10 f   libcmtd:fileno.obj
 0002:00160ea0       __close                    0063bea0 f   libcmtd:close.obj
 0002:00161140       __close_nolock             0063c140 f   libcmtd:close.obj
 0002:00161240       __freebuf                  0063c240 f   libcmtd:_freebuf.obj
 0002:001612f0       _fflush                    0063c2f0 f   libcmtd:fflush.obj
 0002:001613b0       __fflush_nolock            0063c3b0 f   libcmtd:fflush.obj
 0002:00161420       __flush                    0063c420 f   libcmtd:fflush.obj
 0002:00161510       __flushall                 0063c510 f   libcmtd:fflush.obj
 0002:00161740       __ioinit                   0063c740 f   libcmtd:ioinit.obj
 0002:00161d10       __ioterm                   0063cd10 f   libcmtd:ioinit.obj
 0002:00161de0       __lseek                    0063cde0 f   libcmtd:lseek.obj
 0002:00162090       __lseek_nolock             0063d090 f   libcmtd:lseek.obj
 0002:001621a0       __openfile                 0063d1a0 f   libcmtd:_open.obj
 0002:00162b50       __getstream                0063db50 f   libcmtd:stream.obj
 0002:00162e44       __local_unwind4            0063de44 f   libcmtd:exsup4.obj
 0002:00162f1a       __seh_longjmp_unwind4@4    0063df1a f   libcmtd:exsup4.obj
 0002:00162f36       @_EH4_CallFilterFunc@8     0063df36 f   libcmtd:exsup4.obj
 0002:00162f4d       @_EH4_TransferToHandler@8  0063df4d f   libcmtd:exsup4.obj
 0002:00162f66       @_EH4_GlobalUnwind@4       0063df66 f   libcmtd:exsup4.obj
 0002:00162f80       @_EH4_LocalUnwind@16       0063df80 f   libcmtd:exsup4.obj
 0002:00162ff0       _strncpy                   0063dff0 f   libcmtd:strncpy.obj
 0002:00163160       __flsbuf                   0063e160 f   libcmtd:_flsbuf.obj
 0002:001634d0       __output_l                 0063e4d0 f   libcmtd:output.obj
 0002:00164e10       _get_int_arg               0063fe10 f i libcmtd:output.obj
 0002:00164e40       _get_int64_arg             0063fe40 f i libcmtd:output.obj
 0002:00164e70       _get_short_arg             0063fe70 f i libcmtd:output.obj
 0002:00164ea0       __vsnprintf_helper         0063fea0 f   libcmtd:vsnprnc.obj
 0002:001650e0       __vsnprintf_c              006400e0 f   libcmtd:vsnprnc.obj
 0002:00165140       __vsnprintf_c_l            00640140 f   libcmtd:vsnprnc.obj
 0002:001651a0       __vsprintf_s_l             006401a0 f   libcmtd:vsnprnc.obj
 0002:001654a0       _vsprintf_s                006404a0 f   libcmtd:vsnprnc.obj
 0002:001654d0       __vsnprintf_s_l            006404d0 f   libcmtd:vsnprnc.obj
 0002:00165950       __vsnprintf_s              00640950 f   libcmtd:vsnprnc.obj
 0002:00165980       __vsprintf_p               00640980 f   libcmtd:vsnprnc.obj
 0002:001659e0       __vsprintf_p_l             006409e0 f   libcmtd:vsnprnc.obj
 0002:00165a40       __VEC_memzero              00640a40 f   libcmtd:p4_memset.obj
 0002:00165b70       __get_sse2_info            00640b70 f   libcmtd:cpu_disp.obj
 0002:00165ce0       ___sse2_available_init     00640ce0 f   libcmtd:cpu_disp.obj
 0002:00165d00       __setdefaultprecision      00640d00 f   libcmtd:fp8.obj
 0002:00165d50       __ms_p5_test_fdiv          00640d50 f   libcmtd:_testfdiv_.obj
 0002:00165db0       __ms_p5_mp_test_fdiv       00640db0 f   libcmtd:_testfdiv_.obj
 0002:00165e10       __forcdecpt                00640e10 f   libcmtd:cvt.obj
 0002:00165e30       __forcdecpt_l              00640e30 f   libcmtd:cvt.obj
 0002:00165f20       __cropzeros                00640f20 f   libcmtd:cvt.obj
 0002:00165f40       __cropzeros_l              00640f40 f   libcmtd:cvt.obj
 0002:00166090       __positive                 00641090 f   libcmtd:cvt.obj
 0002:001660d0       __fassign_l                006410d0 f   libcmtd:cvt.obj
 0002:00166140       __fassign                  00641140 f   libcmtd:cvt.obj
 0002:00166170       __cftoe_l                  00641170 f   libcmtd:cvt.obj
 0002:00166810       __cftoe                    00641810 f   libcmtd:cvt.obj
 0002:00166840       __cftoa_l                  00641840 f   libcmtd:cvt.obj
 0002:00167210       ?strrchr@@YAPADPADH@Z      00642210 f i libcmtd:cvt.obj
 0002:00167230       __cftoa                    00642230 f   libcmtd:cvt.obj
 0002:00167260       __cftof_l                  00642260 f   libcmtd:cvt.obj
 0002:00167760       __cftof                    00642760 f   libcmtd:cvt.obj
 0002:00167790       __cftog_l                  00642790 f   libcmtd:cvt.obj
 0002:00167a50       __cftog                    00642a50 f   libcmtd:cvt.obj
 0002:00167a80       __cfltcvt_l                00642a80 f   libcmtd:cvt.obj
 0002:00167b70       __cfltcvt                  00642b70 f   libcmtd:cvt.obj
 0002:00167bf0       __initp_misc_cfltcvt_tab   00642bf0 f   libcmtd:cmiscdat.obj
 0002:00167c50       ?_RTC_GetSrcLine@@YAHPAEPA_WKPAH1K@Z 00642c50 f   libcmtd:_pdblkup_.obj
 0002:00168210       __chvalidator              00643210 f   libcmtd:isctype.obj
 0002:00168270       __chvalidator_l            00643270 f   libcmtd:isctype.obj
 0002:00168350       __isctype_l                00643350 f   libcmtd:isctype.obj
 0002:001684b0       __isctype                  006434b0 f   libcmtd:isctype.obj
 0002:00168500       __VEC_memcpy               00643500 f   libcmtd:p4_memcpy.obj
 0002:001686d0       __mbstok_s_l               006436d0 f   libcmtd:mbstok_s.obj
 0002:00168bf0       __mbstok_s                 00643bf0 f   libcmtd:mbstok_s.obj
 0002:00168c20       __stbuf                    00643c20 f   libcmtd:_sftbuf.obj
 0002:00168dd0       __ftbuf                    00643dd0 f   libcmtd:_sftbuf.obj
 0002:00168e80       _vfprintf_helper           00643e80 f   libcmtd:vfprintf.obj
 0002:001691c0       __vfprintf_l               006441c0 f   libcmtd:vfprintf.obj
 0002:001691f0       __vfprintf_s_l             006441f0 f   libcmtd:vfprintf.obj
 0002:00169220       __vfprintf_p_l             00644220 f   libcmtd:vfprintf.obj
 0002:00169250       _vfprintf                  00644250 f   libcmtd:vfprintf.obj
 0002:00169280       _vfprintf_s                00644280 f   libcmtd:vfprintf.obj
 0002:001692b0       __vfprintf_p               006442b0 f   libcmtd:vfprintf.obj
 0002:001692e0       __CrtDefaultAllocHook      006442e0 f   libcmtd:dbghook.obj
 0002:001692f0       __crt_debugger_hook        006442f0 f   libcmtd:dbghook.obj
 0002:00169310       __CrtDbgBreak              00644310 f   libcmtd:dbgrptt.obj
 0002:00169320       __CrtSetReportMode         00644320 f   libcmtd:dbgrptt.obj
 0002:001694b0       __CrtSetReportFile         006444b0 f   libcmtd:dbgrptt.obj
 0002:001695e0       __CrtSetReportHook         006445e0 f   libcmtd:dbgrptt.obj
 0002:00169610       __CrtGetReportHook         00644610 f   libcmtd:dbgrptt.obj
 0002:00169620       __VCrtDbgReportA           00644620 f   libcmtd:dbgrptt.obj
 0002:0016a050       __VCrtDbgReportW           00645050 f   libcmtd:dbgrptt.obj
 0002:0016abd0       __crt_waiting_on_module_handle 00645bd0 f   libcmtd:crt0dat.obj
 0002:0016ac40       __cinit                    00645c40 f   libcmtd:crt0dat.obj
 0002:0016ad10       _exit                      00645d10 f   libcmtd:crt0dat.obj
 0002:0016ad30       __exit                     00645d30 f   libcmtd:crt0dat.obj
 0002:0016ad50       __cexit                    00645d50 f   libcmtd:crt0dat.obj
 0002:0016ad70       __c_exit                   00645d70 f   libcmtd:crt0dat.obj
 0002:0016ad90       __amsg_exit                00645d90 f   libcmtd:crt0dat.obj
 0002:0016ade0       ___freeCrtMemory           00645de0 f   libcmtd:crt0dat.obj
 0002:0016b200       ___crtCorExitProcess       00646200 f   libcmtd:crt0dat.obj
 0002:0016b250       ___crtExitProcess          00646250 f   libcmtd:crt0dat.obj
 0002:0016b280       __lockexit                 00646280 f   libcmtd:crt0dat.obj
 0002:0016b2a0       __unlockexit               006462a0 f   libcmtd:crt0dat.obj
 0002:0016b2c0       __init_pointers            006462c0 f   libcmtd:crt0dat.obj
 0002:0016b3b0       __initterm_e               006463b0 f   libcmtd:crt0dat.obj
 0002:0016b400       __get_wpgmptr              00646400 f   libcmtd:crt0dat.obj
 0002:0016b530       __get_pgmptr               00646530 f   libcmtd:crt0dat.obj
 0002:0016b660       __initp_misc_winsig        00646660 f   libcmtd:winsig.obj
 0002:0016b6a0       _signal                    006466a0 f   libcmtd:winsig.obj
 0002:0016bc70       _raise                     00646c70 f   libcmtd:winsig.obj
 0002:0016c0c0       ___get_sigabrt             006470c0 f   libcmtd:winsig.obj
 0002:0016c0e0       ___fpecode                 006470e0 f   libcmtd:winsig.obj
 0002:0016c100       ___pxcptinfoptrs           00647100 f   libcmtd:winsig.obj
 0002:0016c120       ___crtMessageBoxW          00647120 f   libcmtd:crtmboxw.obj
 0002:0016c3d0       __swprintf                 006473d0 f   libcmtd:swprintf.obj
 0002:0016c620       ___swprintf_l              00647620 f   libcmtd:swprintf.obj
 0002:0016c660       _swprintf_s                00647660 f   libcmtd:swprintf.obj
 0002:0016c6a0       __snwprintf_s              006476a0 f   libcmtd:swprintf.obj
 0002:0016c6e0       __swprintf_p               006476e0 f   libcmtd:swprintf.obj
 0002:0016c720       __swprintf_s_l             00647720 f   libcmtd:swprintf.obj
 0002:0016c760       __snwprintf_s_l            00647760 f   libcmtd:swprintf.obj
 0002:0016c7a0       __swprintf_p_l             006477a0 f   libcmtd:swprintf.obj
 0002:0016c7e0       __scwprintf                006477e0 f   libcmtd:swprintf.obj
 0002:0016c810       __scwprintf_p              00647810 f   libcmtd:swprintf.obj
 0002:0016c840       __scwprintf_l              00647840 f   libcmtd:swprintf.obj
 0002:0016c870       __scwprintf_p_l            00647870 f   libcmtd:swprintf.obj
 0002:0016c8a0       _wcslen                    006478a0 f   libcmtd:wcslen.obj
 0002:0016c8e0       _wcscpy_s                  006478e0 f   libcmtd:wcscpy_s.obj
 0002:0016cc80       __aulldiv                  00647c80 f   libcmtd:ulldiv.obj
 0002:0016cd10       __validate_param_reuseA    00647d10 f   libcmtd:outputp.obj
 0002:0016d020       __output_p_l               00648020 f   libcmtd:outputp.obj
 0002:00171ae0       _get_crtdouble_arg         0064cae0 f i libcmtd:outputp.obj
 0002:00171b10       ___crtLCMapStringA         0064cb10 f   libcmtd:a_map.obj
 0002:001721c0       __MarkAllocaS              0064d1c0 f i libcmtd:a_map.obj
 0002:001721f0       __freea                    0064d1f0 f i libcmtd:a_map.obj
 0002:001722d0       __iswctype_l               0064d2d0 f   libcmtd:iswctype.obj
 0002:001723a0       _iswctype                  0064d3a0 f   libcmtd:iswctype.obj
 0002:00172450       _is_wctype                 0064d450 f   libcmtd:iswctype.obj
 0002:00172470       _strnlen                   0064d470 f   libcmtd:strlen_s.obj
 0002:001724c0       __write                    0064d4c0 f   libcmtd:write.obj
 0002:00172770       __write_nolock             0064d770 f   libcmtd:write.obj
 0002:00173580       __strtoi64                 0064e580 f   libcmtd:strtoq.obj
 0002:00173c50       __strtoi64_l               0064ec50 f   libcmtd:strtoq.obj
 0002:00173c80       __strtoui64                0064ec80 f   libcmtd:strtoq.obj
 0002:00173ce0       __strtoui64_l              0064ece0 f   libcmtd:strtoq.obj
 0002:00173d10       __ValidateImageBase        0064ed10 f   libcmtd:pesect.obj
 0002:00173d90       __FindPESection            0064ed90 f   libcmtd:pesect.obj
 0002:00173e30       __IsNonwritableInCurrentImage 0064ee30 f   libcmtd:pesect.obj
 0002:00173f90       __initp_misc_winxfltr      0064ef90 f   libcmtd:winxfltr.obj
 0002:00173fa0       ___CppXcptFilter           0064efa0 f   libcmtd:winxfltr.obj
 0002:00173fd0       __XcptFilter               0064efd0 f   libcmtd:winxfltr.obj
 0002:00174280       ___crtGetStringTypeA       0064f280 f   libcmtd:a_str.obj
 0002:001745b0       __makepath_s               0064f5b0 f   libcmtd:makepath_s.obj
 0002:00174a30       __mbsnbcpy_s               0064fa30 f   libcmtd:mbsnbcpy_s.obj
 0002:00174a60       _V6_HeapAlloc              0064fa60 f   libcmtd:malloc.obj
 0002:00174b20       __malloc_base              0064fb20 f   libcmtd:malloc.obj
 0002:00174bd0       __heap_alloc_base          0064fbd0 f i libcmtd:malloc.obj
 0002:00174cc0       __CrtSetReportHook2        0064fcc0 f   libcmtd:dbgrpt.obj
 0002:001750b0       __CrtDbgReport             006500b0 f   libcmtd:dbgrpt.obj
 0002:00175100       __CrtDbgReportV            00650100 f i libcmtd:dbgrpt.obj
 0002:00175130       ___crtMessageWindowA       00650130 f   libcmtd:dbgrpt.obj
 0002:00175630       __expand_base              00650630 f   libcmtd:expand.obj
 0002:001759b0       __realloc_base             006509b0 f   libcmtd:realloc.obj
 0002:00175e30       __free_base                00650e30 f   libcmtd:free.obj
 0002:00175fa0       __heapchk                  00650fa0 f   libcmtd:heapchk.obj
 0002:001760b0       __heapset                  006510b0 f   libcmtd:heapchk.obj
 0002:001760c0       ___heap_select             006510c0 f   libcmtd:heapinit.obj
 0002:001760e0       __heap_init                006510e0 f   libcmtd:heapinit.obj
 0002:00176180       __heap_term                00651180 f   libcmtd:heapinit.obj
 0002:00176250       __get_heap_handle          00651250 f   libcmtd:heapinit.obj
 0002:001762a0       __get_sbh_threshold        006512a0 f   libcmtd:sbheap.obj
 0002:00176300       __set_sbh_threshold        00651300 f   libcmtd:sbheap.obj
 0002:00176500       __set_amblksiz             00651500 f   libcmtd:sbheap.obj
 0002:00176650       __get_amblksiz             00651650 f   libcmtd:sbheap.obj
 0002:00176780       ___sbh_heap_init           00651780 f   libcmtd:sbheap.obj
 0002:00176800       ___sbh_find_block          00651800 f   libcmtd:sbheap.obj
 0002:00176870       ___sbh_verify_block        00651870 f   libcmtd:sbheap.obj
 0002:001768e0       ___sbh_free_block          006518e0 f   libcmtd:sbheap.obj
 0002:00177010       ___sbh_alloc_block         00652010 f   libcmtd:sbheap.obj
 0002:00177680       ___sbh_alloc_new_region    00652680 f   libcmtd:sbheap.obj
 0002:001777e0       ___sbh_alloc_new_group     006527e0 f   libcmtd:sbheap.obj
 0002:00177a50       ___sbh_resize_block        00652a50 f   libcmtd:sbheap.obj
 0002:00178190       ___sbh_heapmin             00653190 f   libcmtd:sbheap.obj
 0002:00178310       ___sbh_heap_check          00653310 f   libcmtd:sbheap.obj
 0002:00178940       _abort                     00653940 f   libcmtd:abort.obj
 0002:00178ac0       __set_abort_behavior       00653ac0 f   libcmtd:abort.obj
 0002:00178b00       __FF_MSGBANNER             00653b00 f   libcmtd:crt0msg.obj
 0002:00178b60       __NMSG_WRITE               00653b60 f   libcmtd:crt0msg.obj
 0002:00178ea0       __GET_RTERRMSG             00653ea0 f   libcmtd:crt0msg.obj
 0002:00178f00       ___getlocaleinfo           00653f00 f   libcmtd:inithelp.obj
 0002:00179250       __initp_misc_purevirt      00654250 f   libcmtd:inithelp.obj
 0002:00179270       __sse2_mathfcns_init       00654270 f   libcmtd:_mathfcns_.obj
 0002:001792a0       __set_SSE2_enable          006542a0 f   libcmtd:_mathfcns_.obj
 0002:001792d0       __CIpow_pentium4           006542d0 f   libcmtd:_pow_pentium4_.obj
 0002:001792e9       __pow_pentium4             006542e9     libcmtd:_pow_pentium4_.obj
 0002:0017a121       __fFEXP                    00655121     libcmtd:_87tran_.obj
 0002:0017a188       __rtinfpopse               00655188     libcmtd:_87tran_.obj
 0002:0017a18a       __rtinfnpopse              0065518a     libcmtd:_87tran_.obj
 0002:0017a19a       __fFLN                     0065519a     libcmtd:_87tran_.obj
 0002:0017a24f       __rtinfpop                 0065524f     libcmtd:_87tran_.obj
 0002:0017a251       __rtinfnpop                00655251     libcmtd:_87tran_.obj
 0002:0017a26e       __ffexpm1                  0065526e     libcmtd:_87tran_.obj
 0002:0017a3a0       __trandisp1                006553a0 f   libcmtd:_87disp_.obj
 0002:0017a407       __trandisp2                00655407 f   libcmtd:_87disp_.obj
 0002:0017a493       __rttospopde               00655493     libcmtd:_87disp_.obj
 0002:0017a498       __rttospop                 00655498     libcmtd:_87disp_.obj
 0002:0017a49a       __rtnospop                 0065549a     libcmtd:_87disp_.obj
 0002:0017a49c       __rttosnpop                0065549c     libcmtd:_87disp_.obj
 0002:0017a49d       __rtnospopde               0065549d     libcmtd:_87disp_.obj
 0002:0017a4a4       __rtzeropop                006554a4     libcmtd:_87disp_.obj
 0002:0017a4a6       __rtzeronpop               006554a6     libcmtd:_87disp_.obj
 0002:0017a4ab       __rtonepop                 006554ab     libcmtd:_87disp_.obj
 0002:0017a4ad       __rtonenpop                006554ad     libcmtd:_87disp_.obj
 0002:0017a4b2       __tosnan1                  006554b2     libcmtd:_87disp_.obj
 0002:0017a4dd       __nosnan2                  006554dd     libcmtd:_87disp_.obj
 0002:0017a4df       __tosnan2                  006554df     libcmtd:_87disp_.obj
 0002:0017a507       __nan2                     00655507     libcmtd:_87disp_.obj
 0002:0017a546       __rtindfpop                00655546     libcmtd:_87disp_.obj
 0002:0017a548       __rtindfnpop               00655548     libcmtd:_87disp_.obj
 0002:0017a559       __rttosnpopde              00655559     libcmtd:_87disp_.obj
 0002:0017a563       __rtchsifneg               00655563     libcmtd:_87disp_.obj
 0002:0017a5e0       __startTwoArgErrorHandling 006555e0 f   libcmtd:_genexcep_.obj
 0002:0017a5f7       __startOneArgErrorHandling 006555f7 f   libcmtd:_genexcep_.obj
 0002:0017a650       __twoToTOS                 00655650 f   libcmtd:_common_.obj
 0002:0017a665       __load_CW                  00655665 f   libcmtd:_common_.obj
 0002:0017a67c       __convertTOStoQNaN         0065567c f   libcmtd:_common_.obj
 0002:0017a695       __fload_withFB             00655695 f   libcmtd:_common_.obj
 0002:0017a6d8       __checkTOS_withFB          006556d8 f   libcmtd:_common_.obj
 0002:0017a6ee       __fast_exit                006556ee f   libcmtd:_common_.obj
 0002:0017a6fb       __math_exit                006556fb f   libcmtd:_common_.obj
 0002:0017a725       __check_overflow_exit      00655725 f   libcmtd:_common_.obj
 0002:0017a739       __check_range_exit         00655739 f   libcmtd:_common_.obj
 0002:0017a840       __powhlp                   00655840 f   libcmtd:_powhlp_.obj
 0002:0017aa50       __d_inttype                00655a50 f   libcmtd:_powhlp_.obj
 0002:0017ab00       __CIlog_pentium4           00655b00 f   libcmtd:_log_pentium4_.obj
 0002:0017ab18       __log_pentium4             00655b18     libcmtd:_log_pentium4_.obj
 0002:0017ae10       __CIsin_pentium4           00655e10 f   libcmtd:_sin_pentium4_.obj
 0002:0017ae28       __sin_pentium4             00655e28     libcmtd:_sin_pentium4_.obj
 0002:0017b050       __CIlog10_pentium4         00656050 f   libcmtd:_log10_pentium4_.obj
 0002:0017b068       __log10_pentium4           00656068     libcmtd:_log10_pentium4_.obj
 0002:0017b390       ___libm_setusermatherr     00656390 f   libcmtd:_libm_error_.obj
 0002:0017b3e0       ___libm_error_support      006563e0 f   libcmtd:_libm_error_.obj
 0002:0017c1f0       __floor_default            006571f0 f   libcmtd:_floor_.obj
 0002:0017c380       __strnicmp_l               00657380 f   libcmtd:strnicmp.obj
 0002:0017c650       __strnicmp                 00657650 f   libcmtd:strnicmp.obj
 0002:0017c840       ?__CxxUnhandledExceptionFilter@@YGJPAU_EXCEPTION_POINTERS@@@Z 00657840 f   libcmtd:unhandld.obj
 0002:0017c8c0       ___CxxSetUnhandledExceptionFilter 006578c0 f   libcmtd:unhandld.obj
 0002:0017c8e0       ___security_init_cookie    006578e0 f   libcmtd:gs_support.obj
 0002:0017ca00       __wincmdln                 00657a00 f   libcmtd:wincmdln.obj
 0002:0017cb00       __setenvp                  00657b00 f   libcmtd:stdenvp.obj
 0002:0017cd10       __setargv                  00657d10 f   libcmtd:stdargv.obj
 0002:0017ce70       __set_pgmptr               00657e70 f i libcmtd:stdargv.obj
 0002:0017d2d0       ___crtGetEnvironmentStringsA 006582d0 f   libcmtd:a_env.obj
 0002:0017d570       __RTC_Initialize           00658570 f   libcmtd:_initsect_.obj
 0002:0017d5a0       __RTC_Terminate            006585a0 f   libcmtd:_initsect_.obj
 0002:0017d5d0       ?_ValidateRead@@YAHPBXI@Z  006585d0 f   libcmtd:validate.obj
 0002:0017d600       ?_ValidateWrite@@YAHPAXI@Z 00658600 f   libcmtd:validate.obj
 0002:0017d630       ?_ValidateExecute@@YAHP6GHXZ@Z 00658630 f   libcmtd:validate.obj
 0002:0017d65c       __global_unwind2           0065865c f   libcmtd:exsup.obj
 0002:0017d6c1       __local_unwind2            006586c1 f   libcmtd:exsup.obj
 0002:0017d745       __abnormal_termination     00658745 f   libcmtd:exsup.obj
 0002:0017d768       __NLG_Notify1              00658768 f   libcmtd:exsup.obj
 0002:0017d771       __NLG_Notify               00658771 f   libcmtd:exsup.obj
 0002:0017d788       __NLG_Dispatch             00658788     libcmtd:exsup.obj
 0002:0017d788       __NLG_Dispatch2            00658788     libcmtd:exsup.obj
 0002:0017d790       __NLG_Call                 00658790 f   libcmtd:exsup.obj
 0002:0017d792       __NLG_Return2              00658792     libcmtd:exsup.obj
 0002:0017d7e0       ___unDName                 006587e0 f   libcmtd:undname.obj
 0002:0017d8f0       ?Constructor@HeapManager@@QAEXP6APAXI@ZP6AXPAX@Z@Z 006588f0 f i libcmtd:undname.obj
 0002:0017d940       ?Destructor@HeapManager@@QAEXXZ 00658940 f i libcmtd:undname.obj
 0002:0017d9a0       ___unDNameEx               006589a0 f   libcmtd:undname.obj
 0002:0017dab0       ??0UnDecorator@@QAE@PADPBDHP6APADJ@ZK@Z 00658ab0 f i libcmtd:undname.obj
 0002:0017db70       ??BUnDecorator@@QAEPADXZ   00658b70 f i libcmtd:undname.obj
 0002:0017de30       ?dbGetString@DName@@QBEPADXZ 00658e30 f   libcmtd:undname.obj
 0002:0017de60       ?getDecoratedName@UnDecorator@@CA?AVDName@@XZ 00658e60 f   libcmtd:undname.obj
 0002:0017e240       ?getSymbolName@UnDecorator@@CA?AVDName@@XZ 00659240 f i libcmtd:undname.obj
 0002:0017e2d0       ?getZName@UnDecorator@@CA?AVDName@@_N0@Z 006592d0 f   libcmtd:undname.obj
 0002:0017e620       ?getOperatorName@UnDecorator@@CA?AVDName@@_NPA_N@Z 00659620 f i libcmtd:undname.obj
 0002:0017f1e0       ?getStringEncoding@UnDecorator@@CA?AVDName@@PADH@Z 0065a1e0 f   libcmtd:undname.obj
 0002:0017f320       ?getScope@UnDecorator@@CA?AVDName@@XZ 0065a320 f   libcmtd:undname.obj
 0002:0017f7f0       ?getSignedDimension@UnDecorator@@CA?AVDName@@XZ 0065a7f0 f   libcmtd:undname.obj
 0002:0017f890       ?getDimension@UnDecorator@@CA?AVDName@@_N@Z 0065a890 f   libcmtd:undname.obj
 0002:0017fbf0       ?getNumberOfDimensions@UnDecorator@@CAHXZ 0065abf0 f   libcmtd:undname.obj
 0002:0017fd30       ?getTemplateName@UnDecorator@@CA?AVDName@@_N@Z 0065ad30 f   libcmtd:undname.obj
 0002:0017ff60       ?getTemplateArgumentList@UnDecorator@@CA?AVDName@@XZ 0065af60 f   libcmtd:undname.obj
 0002:00180280       ?getTemplateConstant@UnDecorator@@CA?AVDName@@XZ 0065b280 f   libcmtd:undname.obj
 0002:00180830       ?composeDeclaration@UnDecorator@@CA?AVDName@@ABV2@@Z 0065b830 f i libcmtd:undname.obj
 0002:001823a0       ?getTypeEncoding@UnDecorator@@CAHXZ 0065d3a0 f i libcmtd:undname.obj
 0002:00183070       ?getBasedType@UnDecorator@@CA?AVDName@@XZ 0065e070 f   libcmtd:undname.obj
 0002:00183160       ?getScopedName@UnDecorator@@CA?AVDName@@XZ 0065e160 f   libcmtd:undname.obj
 0002:001832c0       ?getCallingConvention@UnDecorator@@CA?AVDName@@XZ 0065e2c0 f   libcmtd:undname.obj
 0002:00183470       ?getReturnType@UnDecorator@@CA?AVDName@@PAV2@@Z 0065e470 f   libcmtd:undname.obj
 0002:001834d0       ?getDataType@UnDecorator@@CA?AVDName@@PAV2@@Z 0065e4d0 f   libcmtd:undname.obj
 0002:00183630       ?getPrimaryDataType@UnDecorator@@CA?AVDName@@ABV2@@Z 0065e630 f   libcmtd:undname.obj
 0002:00183980       ?getArgumentTypes@UnDecorator@@CA?AVDName@@XZ 0065e980 f   libcmtd:undname.obj
 0002:00183b30       ?getArgumentList@UnDecorator@@CA?AVDName@@XZ 0065eb30 f   libcmtd:undname.obj
 0002:00183cd0       ?getThrowTypes@UnDecorator@@CA?AVDName@@XZ 0065ecd0 f   libcmtd:undname.obj
 0002:00183db0       ?getBasicDataType@UnDecorator@@CA?AVDName@@ABV2@@Z 0065edb0 f   libcmtd:undname.obj
 0002:001844c0       ?getECSUDataType@UnDecorator@@CA?AVDName@@XZ 0065f4c0 f   libcmtd:undname.obj
 0002:00184710       ?getECSUName@UnDecorator@@CA?AVDName@@XZ 0065f710 f i libcmtd:undname.obj
 0002:00184730       ?getEnumType@UnDecorator@@CA?AVDName@@XZ 0065f730 f i libcmtd:undname.obj
 0002:001848d0       ?getFunctionIndirectType@UnDecorator@@CA?AVDName@@ABV2@@Z 0065f8d0 f   libcmtd:undname.obj
 0002:00184e20       ?getPtrRefType@UnDecorator@@CA?AVDName@@ABV2@0D@Z 0065fe20 f   libcmtd:undname.obj
 0002:00184fe0       ?getExtendedDataIndirectType@UnDecorator@@CA?AVDName@@AADAA_NH@Z 0065ffe0 f   libcmtd:undname.obj
 0002:00185270       ?getDataIndirectType@UnDecorator@@CA?AVDName@@ABV2@D0H@Z 00660270 f   libcmtd:undname.obj
 0002:00185b30       ?getPtrRefDataType@UnDecorator@@CA?AVDName@@ABV2@H@Z 00660b30 f i libcmtd:undname.obj
 0002:00185cc0       ?getArrayType@UnDecorator@@CA?AVDName@@ABV2@@Z 00660cc0 f i libcmtd:undname.obj
 0002:00185f80       ?getLexicalFrame@UnDecorator@@CA?AVDName@@XZ 00660f80 f i libcmtd:undname.obj
 0002:00185fd0       ?getThisType@UnDecorator@@CA?AVDName@@XZ 00660fd0 f i libcmtd:undname.obj
 0002:00186010       ?getPointerType@UnDecorator@@CA?AVDName@@ABV2@0@Z 00661010 f i libcmtd:undname.obj
 0002:00186040       ?getPointerTypeArray@UnDecorator@@CA?AVDName@@ABV2@0@Z 00661040 f i libcmtd:undname.obj
 0002:00186070       ?getReferenceType@UnDecorator@@CA?AVDName@@ABV2@0@Z 00661070 f i libcmtd:undname.obj
 0002:001860a0       ?getDisplacement@UnDecorator@@CA?AVDName@@XZ 006610a0 f i libcmtd:undname.obj
 0002:001860c0       ?getCallIndex@UnDecorator@@CA?AVDName@@XZ 006610c0 f i libcmtd:undname.obj
 0002:001860e0       ?getGuardNumber@UnDecorator@@CA?AVDName@@XZ 006610e0 f i libcmtd:undname.obj
 0002:00186100       ?getVbTableType@UnDecorator@@CA?AVDName@@ABV2@@Z 00661100 f i libcmtd:undname.obj
 0002:00186120       ?getVCallThunkType@UnDecorator@@CA?AVDName@@XZ 00661120 f i libcmtd:undname.obj
 0002:001861a0       ?getVfTableType@UnDecorator@@CA?AVDName@@ABV2@@Z 006611a0 f i libcmtd:undname.obj
 0002:001863d0       ?getStorageConvention@UnDecorator@@CA?AVDName@@XZ 006613d0 f i libcmtd:undname.obj
 0002:001863f0       ?getDataIndirectType@UnDecorator@@CA?AVDName@@XZ 006613f0 f i libcmtd:undname.obj
 0002:00186430       ?getVdispMapType@UnDecorator@@CA?AVDName@@ABV2@@Z 00661430 f i libcmtd:undname.obj
 0002:001864c0       ?getExternalDataType@UnDecorator@@CA?AVDName@@ABV2@@Z 006614c0 f i libcmtd:undname.obj
 0002:00186580       ?doMSKeywords@UnDecorator@@SAHXZ 00661580 f i libcmtd:undname.obj
 0002:001865a0       ?doPtr64@UnDecorator@@SAHXZ 006615a0 f i libcmtd:undname.obj
 0002:001865c0       ?doFunctionReturns@UnDecorator@@SAHXZ 006615c0 f i libcmtd:undname.obj
 0002:001865e0       ?doAllocationModel@UnDecorator@@SAHXZ 006615e0 f i libcmtd:undname.obj
 0002:00186600       ?doAllocationLanguage@UnDecorator@@SAHXZ 00661600 f i libcmtd:undname.obj
 0002:00186620       ?doThisTypes@UnDecorator@@SAHXZ 00661620 f i libcmtd:undname.obj
 0002:00186640       ?doAccessSpecifiers@UnDecorator@@SAHXZ 00661640 f i libcmtd:undname.obj
 0002:00186660       ?doThrowTypes@UnDecorator@@SAHXZ 00661660 f i libcmtd:undname.obj
 0002:00186680       ?doMemberTypes@UnDecorator@@SAHXZ 00661680 f i libcmtd:undname.obj
 0002:001866a0       ?doNameOnly@UnDecorator@@SAHXZ 006616a0 f i libcmtd:undname.obj
 0002:001866c0       ?doTypeOnly@UnDecorator@@SAHXZ 006616c0 f i libcmtd:undname.obj
 0002:001866e0       ?haveTemplateParameters@UnDecorator@@SAHXZ 006616e0 f i libcmtd:undname.obj
 0002:00186700       ?doEcsu@UnDecorator@@SAHXZ 00661700 f i libcmtd:undname.obj
 0002:00186720       ?doEllipsis@UnDecorator@@SAHXZ 00661720 f i libcmtd:undname.obj
 0002:00186740       ?UScore@UnDecorator@@SAPBDW4Tokens@@@Z 00661740 f   libcmtd:undname.obj
 0002:00186780       ?doUnderScore@UnDecorator@@SAHXZ 00661780 f i libcmtd:undname.obj
 0002:001867a0       ??2@YAPAXIAAVHeapManager@@H@Z 006617a0 f i libcmtd:undname.obj
 0002:001867c0       ?getMemory@HeapManager@@QAEPAXIH@Z 006617c0 f   libcmtd:undname.obj
 0002:00186910       ??0Block@HeapManager@@QAE@XZ 00661910 f i libcmtd:undname.obj
 0002:00186930       ??H@YA?AVDName@@DABV0@@Z   00661930 f i libcmtd:undname.obj
 0002:00186970       ??H@YA?AVDName@@W4DNameStatus@@ABV0@@Z 00661970 f i libcmtd:undname.obj
 0002:001869b0       ??H@YA?AVDName@@PBDABV0@@Z 006619b0 f i libcmtd:undname.obj
 0002:001869f0       ??0DName@@QAE@XZ           006619f0 f i libcmtd:undname.obj
 0002:00186ae0       ??0DName@@QAE@D@Z          00661ae0 f   libcmtd:undname.obj
 0002:00186bf0       ??0DName@@QAE@ABV0@@Z      00661bf0 f i libcmtd:undname.obj
 0002:00186c20       ??0DName@@QAE@PAV0@@Z      00661c20 f   libcmtd:undname.obj
 0002:00186da0       ??0DName@@QAE@PBD@Z        00661da0 f   libcmtd:undname.obj
 0002:00186ec0       ??0DName@@QAE@AAPBDD@Z     00661ec0 f   libcmtd:undname.obj
 0002:00187230       ?doNoIdentCharCheck@UnDecorator@@SAHXZ 00662230 f i libcmtd:undname.obj
 0002:00187250       ??0DName@@QAE@_K@Z         00662250 f   libcmtd:undname.obj
 0002:001873e0       ??0DName@@QAE@_J@Z         006623e0 f   libcmtd:undname.obj
 0002:001875c0       ??0DName@@QAE@W4DNameStatus@@@Z 006625c0 f   libcmtd:undname.obj
 0002:00187720       ?isValid@DName@@QBEHXZ     00662720 f i libcmtd:undname.obj
 0002:00187750       ?isEmpty@DName@@QBEHXZ     00662750 f i libcmtd:undname.obj
 0002:00187770       ?status@DName@@QBE?AW4DNameStatus@@XZ 00662770 f i libcmtd:undname.obj
 0002:00187790       ?setPtrRef@DName@@QAEAAV1@XZ 00662790 f i libcmtd:undname.obj
 0002:001877c0       ?isPtrRef@DName@@QBEHXZ    006627c0 f i libcmtd:undname.obj
 0002:001877e0       ?isUDC@DName@@QBEHXZ       006627e0 f i libcmtd:undname.obj
 0002:00187830       ?setIsUDC@DName@@QAEXXZ    00662830 f i libcmtd:undname.obj
 0002:00187870       ?isUDTThunk@DName@@QBEHXZ  00662870 f i libcmtd:undname.obj
 0002:001878c0       ?setIsArray@DName@@QAEXXZ  006628c0 f i libcmtd:undname.obj
 0002:001878f0       ?isArray@DName@@QBEHXZ     006628f0 f i libcmtd:undname.obj
 0002:00187910       ?isNoTE@DName@@QBEHXZ      00662910 f i libcmtd:undname.obj
 0002:00187930       ?setIsNoTE@DName@@QAEXXZ   00662930 f i libcmtd:undname.obj
 0002:00187960       ?isPinPtr@DName@@QBEHXZ    00662960 f i libcmtd:undname.obj
 0002:00187980       ?setIsPinPtr@DName@@QAEXXZ 00662980 f i libcmtd:undname.obj
 0002:001879b0       ?isComArray@DName@@QBEHXZ  006629b0 f i libcmtd:undname.obj
 0002:001879d0       ?setIsComArray@DName@@QAEXXZ 006629d0 f i libcmtd:undname.obj
 0002:00187a00       ?isVCallThunk@DName@@QBEHXZ 00662a00 f i libcmtd:undname.obj
 0002:00187a20       ?setIsVCallThunk@DName@@QAEXXZ 00662a20 f i libcmtd:undname.obj
 0002:00187a50       ?length@DName@@QBEHXZ      00662a50 f i libcmtd:undname.obj
 0002:00187a90       ?getLastChar@DName@@QBEDXZ 00662a90 f i libcmtd:undname.obj
 0002:00187ad0       ?getString@DName@@QBEPADPADH@Z 00662ad0 f i libcmtd:undname.obj
 0002:00187b80       ?getString@DName@@QBEPADPAD0@Z 00662b80 f i libcmtd:undname.obj
 0002:00187bd0       ??HDName@@QBE?AV0@D@Z      00662bd0 f   libcmtd:undname.obj
 0002:00187c20       ??HDName@@QBE?AV0@PBD@Z    00662c20 f   libcmtd:undname.obj
 0002:00187c70       ??HDName@@QBE?AV0@ABV0@@Z  00662c70 f   libcmtd:undname.obj
 0002:00187cc0       ??HDName@@QBE?AV0@PAV0@@Z  00662cc0 f   libcmtd:undname.obj
 0002:00187d10       ??HDName@@QBE?AV0@W4DNameStatus@@@Z 00662d10 f   libcmtd:undname.obj
 0002:00187d60       ?append@DName@@AAEXPAVDNameNode@@@Z 00662d60 f   libcmtd:undname.obj
 0002:00187e10       ??YDName@@QAEAAV0@D@Z      00662e10 f   libcmtd:undname.obj
 0002:00187ec0       ??YDName@@QAEAAV0@PBD@Z    00662ec0 f   libcmtd:undname.obj
 0002:00187f80       ??YDName@@QAEAAV0@ABV0@@Z  00662f80 f   libcmtd:undname.obj
 0002:00188000       ??YDName@@QAEAAV0@PAV0@@Z  00663000 f   libcmtd:undname.obj
 0002:001880e0       ??YDName@@QAEAAV0@W4DNameStatus@@@Z 006630e0 f   libcmtd:undname.obj
 0002:00188160       ??_5DName@@QAEAAV0@ABV0@@Z 00663160 f   libcmtd:undname.obj
 0002:001881d0       ??4DName@@QAEAAV0@D@Z      006631d0 f i libcmtd:undname.obj
 0002:001882e0       ??4DName@@QAEAAV0@PBD@Z    006632e0 f   libcmtd:undname.obj
 0002:001883f0       ??4DName@@QAEAAV0@ABV0@@Z  006633f0 f   libcmtd:undname.obj
 0002:00188420       ??4DName@@QAEAAV0@PAV0@@Z  00663420 f   libcmtd:undname.obj
 0002:001885a0       ??4DName@@QAEAAV0@W4DNameStatus@@@Z 006635a0 f   libcmtd:undname.obj
 0002:001886e0       ?doPchar@DName@@AAEXPBDH@Z 006636e0 f   libcmtd:undname.obj
 0002:00188870       ?isFull@Replicator@@QBEHXZ 00663870 f i libcmtd:undname.obj
 0002:00188890       ??0Replicator@@QAE@XZ      00663890 f i libcmtd:undname.obj
 0002:001888b0       ??YReplicator@@QAEAAV0@ABVDName@@@Z 006638b0 f   libcmtd:undname.obj
 0002:00188960       ??AReplicator@@QBE?AVDName@@H@Z 00663960 f   libcmtd:undname.obj
 0002:001889e0       ??0DNameNode@@IAE@XZ       006639e0 f   libcmtd:undname.obj
 0002:00188a00       ??0charNode@@QAE@D@Z       00663a00 f   libcmtd:undname.obj
 0002:00188a40       ?length@charNode@@UBEHXZ   00663a40 f i libcmtd:undname.obj
 0002:00188a60       ?getLastChar@charNode@@UBEDXZ 00663a60 f i libcmtd:undname.obj
 0002:00188a80       ?getString@charNode@@UBEPADPAD0@Z 00663a80 f i libcmtd:undname.obj
 0002:00188ac0       ??0pcharNode@@QAE@PBDH@Z   00663ac0 f   libcmtd:undname.obj
 0002:00188b80       ?length@pcharNode@@UBEHXZ  00663b80 f i libcmtd:undname.obj
 0002:00188ba0       ?getLastChar@pcharNode@@UBEDXZ 00663ba0 f i libcmtd:undname.obj
 0002:00188bf0       ?getString@pcharNode@@UBEPADPAD0@Z 00663bf0 f i libcmtd:undname.obj
 0002:00188c30       ?getStringHelper@@YAPADPAD00H@Z 00663c30 f i libcmtd:undname.obj
 0002:00188c80       ??0pDNameNode@@QAE@PAVDName@@@Z 00663c80 f   libcmtd:undname.obj
 0002:00188d00       ?length@pDNameNode@@UBEHXZ 00663d00 f i libcmtd:undname.obj
 0002:00188d40       ?getLastChar@pDNameNode@@UBEDXZ 00663d40 f i libcmtd:undname.obj
 0002:00188d80       ?getString@pDNameNode@@UBEPADPAD0@Z 00663d80 f i libcmtd:undname.obj
 0002:00188dd0       ??0DNameStatusNode@@AAE@W4DNameStatus@@@Z 00663dd0 f   libcmtd:undname.obj
 0002:00188e30       ?length@DNameStatusNode@@UBEHXZ 00663e30 f i libcmtd:undname.obj
 0002:00188e50       ?getLastChar@DNameStatusNode@@UBEDXZ 00663e50 f i libcmtd:undname.obj
 0002:00188e80       ?getString@DNameStatusNode@@UBEPADPAD0@Z 00663e80 f i libcmtd:undname.obj
 0002:00188ed0       ?make@DNameStatusNode@@SAPAV1@W4DNameStatus@@@Z 00663ed0 f i libcmtd:undname.obj
 0002:00188fb0       ??0pairNode@@QAE@PAVDNameNode@@0@Z 00663fb0 f   libcmtd:undname.obj
 0002:00189000       ?length@pairNode@@UBEHXZ   00664000 f i libcmtd:undname.obj
 0002:00189060       ?getLastChar@pairNode@@UBEDXZ 00664060 f i libcmtd:undname.obj
 0002:001890c0       ?getString@pairNode@@UBEPADPAD0@Z 006640c0 f i libcmtd:undname.obj
 0002:00189240       __initp_misc_initcrit      00664240 f   libcmtd:initcrit.obj
 0002:00189260       ___crtInitCritSecAndSpinCount 00664260 f   libcmtd:initcrit.obj
 0002:00189330       ___pwctype_func            00664330 f   libcmtd:ctype.obj
 0002:00189340       ___pctype_func             00664340 f   libcmtd:ctype.obj
 0002:001893a0       ___init_time               006643a0 f   libcmtd:inittime.obj
 0002:00189c80       ___free_lc_time            00664c80 f   libcmtd:inittime.obj
 0002:0018a050       ___init_numeric            00665050 f   libcmtd:initnum.obj
 0002:0018a480       ___free_lconv_num          00665480 f   libcmtd:initnum.obj
 0002:0018a510       ___init_monetary           00665510 f   libcmtd:initmon.obj
 0002:0018ab50       ___free_lconv_mon          00665b50 f   libcmtd:initmon.obj
 0002:0018ac80       ___init_ctype              00665c80 f   libcmtd:initctyp.obj
 0002:0018b3a0       ____mb_cur_max_func        006663a0 f   libcmtd:initctyp.obj
 0002:0018b400       ____mb_cur_max_l_func      00666400 f   libcmtd:initctyp.obj
 0002:0018b440       ____lc_codepage_func       00666440 f   libcmtd:initctyp.obj
 0002:0018b4a0       ____lc_collate_cp_func     006664a0 f   libcmtd:initctyp.obj
 0002:0018b500       ____lc_handle_func         00666500 f   libcmtd:initctyp.obj
 0002:0018b560       ___init_collate            00666560 f   libcmtd:initcoll.obj
 0002:0018b570       __Getdays_l                00666570 f   libcmtd:strftime.obj
 0002:0018b7a0       __Getdays                  006667a0 f   libcmtd:strftime.obj
 0002:0018b7c0       __Getmonths_l              006667c0 f   libcmtd:strftime.obj
 0002:0018b9f0       __Getmonths                006669f0 f   libcmtd:strftime.obj
 0002:0018ba10       __Gettnames_l              00666a10 f   libcmtd:strftime.obj
 0002:0018c0d0       __Gettnames                006670d0 f   libcmtd:strftime.obj
 0002:0018c0f0       __strftime_l               006670f0 f   libcmtd:strftime.obj
 0002:0018c120       _strftime                  00667120 f   libcmtd:strftime.obj
 0002:0018c150       __Strftime                 00667150 f   libcmtd:strftime.obj
 0002:0018c180       __Strftime_l               00667180 f   libcmtd:strftime.obj
 0002:0018e700       _localeconv                00669700 f   libcmtd:lconv.obj
 0002:0018e760       _strncpy_s                 00669760 f   libcmtd:strncpy_s.obj
 0002:0018ec50       _strcspn                   00669c50 f   libcmtd:strcspn.obj
 0002:0018ecb0       _strpbrk                   00669cb0 f   libcmtd:strpbrk.obj
 0002:0018ed00       _strcat_s                  00669d00 f   libcmtd:strcat_s.obj
 0002:0018f1d0       ___get_qualified_locale    0066a1d0 f   libcmtd:getqloc.obj
 0002:001903f0       __fcloseall                0066b3f0 f   libcmtd:closeall.obj
 0002:00190570       __getbuf                   0066b570 f   libcmtd:_getbuf.obj
 0002:00190660       __alloc_osfhnd             0066b660 f   libcmtd:osfinfo.obj
 0002:001909c0       __set_osfhnd               0066b9c0 f   libcmtd:osfinfo.obj
 0002:00190ac0       __free_osfhnd              0066bac0 f   libcmtd:osfinfo.obj
 0002:00190be0       __get_osfhandle            0066bbe0 f   libcmtd:osfinfo.obj
 0002:00190da0       __open_osfhandle           0066bda0 f   libcmtd:osfinfo.obj
 0002:00191060       ___lock_fhandle            0066c060 f   libcmtd:osfinfo.obj
 0002:001911a0       __unlock_fhandle           0066c1a0 f   libcmtd:osfinfo.obj
 0002:001911e0       __lseeki64                 0066c1e0 f   libcmtd:lseeki64.obj
 0002:001914c0       __lseeki64_nolock          0066c4c0 f   libcmtd:lseeki64.obj
 0002:001915f0       __commit                   0066c5f0 f   libcmtd:commit.obj
 0002:00191890       __open                     0066c890 f   libcmtd:open.obj
 0002:00191a70       __sopen_helper             0066ca70 f   libcmtd:open.obj
 0002:00193160       __sopen                    0066e160 f   libcmtd:open.obj
 0002:001931f0       __sopen_s                  0066e1f0 f   libcmtd:open.obj
 0002:00193220       __mbsnbcmp_l               0066e220 f   libcmtd:mbsnbcmp.obj
 0002:001935c0       __mbsnbcmp                 0066e5c0 f   libcmtd:mbsnbcmp.obj
 0002:001935f0       __isatty                   0066e5f0 f   libcmtd:isatty.obj
 0002:00193710       _printf                    0066e710 f   libcmtd:printf.obj
 0002:001938a0       __printf_l                 0066e8a0 f   libcmtd:printf.obj
 0002:001938d0       __printf_s_l               0066e8d0 f   libcmtd:printf.obj
 0002:00193900       _printf_s                  0066e900 f   libcmtd:printf.obj
 0002:00193930       __printf_p_l               0066e930 f   libcmtd:printf.obj
 0002:00193960       __printf_p                 0066e960 f   libcmtd:printf.obj
 0002:00193990       __set_printf_count_output  0066e990 f   libcmtd:printf.obj
 0002:001939f0       __get_printf_count_output  0066e9f0 f   libcmtd:printf.obj
 0002:00193a20       __wctomb_s_l               0066ea20 f   libcmtd:wctomb.obj
 0002:00193de0       _wctomb_s                  0066ede0 f   libcmtd:wctomb.obj
 0002:00193e10       __wctomb_l                 0066ee10 f   libcmtd:wctomb.obj
 0002:00193eb0       _wctomb                    0066eeb0 f   libcmtd:wctomb.obj
 0002:00193f10       __aullrem                  0066ef10 f   libcmtd:ullrem.obj
 0002:00193fb0       __output_s_l               0066efb0 f   libcmtd:outputs.obj
 0002:00195aa0       __controlfp_s              00670aa0 f   libcmtd:_contrlfp_.obj
 0002:00195bc0       __atodbl_l                 00670bc0 f   libcmtd:atodbl.obj
 0002:00195d10       __atodbl                   00670d10 f   libcmtd:atodbl.obj
 0002:00195d30       __atoldbl_l                00670d30 f   libcmtd:atodbl.obj
 0002:00195e80       __atoldbl                  00670e80 f   libcmtd:atodbl.obj
 0002:00195ea0       __atoflt_l                 00670ea0 f   libcmtd:atodbl.obj
 0002:00195ff0       __atoflt                   00670ff0 f   libcmtd:atodbl.obj
 0002:00196010       __fptostr                  00671010 f   libcmtd:_fptostr.obj
 0002:00196360       __fltout2                  00671360 f   libcmtd:_cfout_.obj
 0002:00196440       ___dtold                   00671440 f   libcmtd:_cfout_.obj
 0002:001965f0       __set_output_format        006715f0 f   libcmtd:outputformat.obj
 0002:00196690       __get_output_format        00671690 f   libcmtd:outputformat.obj
 0002:001966a0       __allrem                   006716a0 f   libcmtd:llrem.obj
 0002:00196780       __allshl                   00671780 f   libcmtd:llshl.obj
 0002:001967b0       __aullshr                  006717b0 f   libcmtd:ullshr.obj
 0002:001967e0       _strrchr                   006717e0 f   libcmtd:strrchr.obj
 0002:00196820       __fptrap                   00671820 f   libcmtd:crt0fp.obj
 0002:00196840       _strtok_s                  00671840 f   libcmtd:strtok_s.obj
 0002:00196b60       __mbstowcs_l_helper        00671b60 f   libcmtd:mbstowcs.obj
 0002:00196f90       __mbstowcs_l               00671f90 f   libcmtd:mbstowcs.obj
 0002:00196fc0       _mbstowcs                  00671fc0 f   libcmtd:mbstowcs.obj
 0002:00197020       __mbstowcs_s_l             00672020 f   libcmtd:mbstowcs.obj
 0002:00197480       _mbstowcs_s                00672480 f   libcmtd:mbstowcs.obj
 0002:001974b0       __itoa_s                   006724b0 f   libcmtd:xtoas.obj
 0002:00197960       __ltoa_s                   00672960 f   libcmtd:xtoas.obj
 0002:001979b0       __ultoa_s                  006729b0 f   libcmtd:xtoas.obj
 0002:001979e0       __i64toa_s                 006729e0 f   libcmtd:xtoas.obj
 0002:00197ee0       __ui64toa_s                00672ee0 f   libcmtd:xtoas.obj
 0002:00197f10       __wcstombs_l_helper        00672f10 f   libcmtd:wcstombs.obj
 0002:00198540       __wcstombs_l               00673540 f   libcmtd:wcstombs.obj
 0002:00198570       _wcstombs                  00673570 f   libcmtd:wcstombs.obj
 0002:001985a0       __wcstombs_s_l             006735a0 f   libcmtd:wcstombs.obj
 0002:00198990       _wcstombs_s                00673990 f   libcmtd:wcstombs.obj
 0002:001989c0       _wcscat_s                  006739c0 f   libcmtd:wcscat_s.obj
 0002:00198ea0       __vswprintf_helper         00673ea0 f   libcmtd:vswprnc.obj
 0002:00199160       __vswprintf_c              00674160 f   libcmtd:vswprnc.obj
 0002:001991c0       __vswprintf_c_l            006741c0 f   libcmtd:vswprnc.obj
 0002:00199220       __vswprintf_s_l            00674220 f   libcmtd:vswprnc.obj
 0002:00199520       _vswprintf_s               00674520 f   libcmtd:vswprnc.obj
 0002:00199550       __vsnwprintf_s_l           00674550 f   libcmtd:vswprnc.obj
 0002:001999f0       __vsnwprintf_s             006749f0 f   libcmtd:vswprnc.obj
 0002:00199a20       __vswprintf_p              00674a20 f   libcmtd:vswprnc.obj
 0002:00199a80       __vswprintf_p_l            00674a80 f   libcmtd:vswprnc.obj
 0002:00199ae0       __itow_s                   00674ae0 f   libcmtd:xtows.obj
 0002:00199fb0       __ltow_s                   00674fb0 f   libcmtd:xtows.obj
 0002:0019a000       __ultow_s                  00675000 f   libcmtd:xtows.obj
 0002:0019a030       __i64tow_s                 00675030 f   libcmtd:xtows.obj
 0002:0019a550       __ui64tow_s                00675550 f   libcmtd:xtows.obj
 0002:0019a580       __initp_misc_rand_s        00675580 f   libcmtd:rand_s.obj
 0002:0019a5a0       _rand_s                    006755a0 f   libcmtd:rand_s.obj
 0002:0019a850       __woutput_l                00675850 f   libcmtd:woutput.obj
 0002:0019beb0       __vswprintf_l              00676eb0 f   libcmtd:vswprint.obj
 0002:0019c0f0       __vswprintf                006770f0 f   libcmtd:vswprint.obj
 0002:0019c120       ___vswprintf_l             00677120 f   libcmtd:vswprint.obj
 0002:0019c150       __vscwprintf_helper        00677150 f   libcmtd:vswprint.obj
 0002:0019c240       __vscwprintf               00677240 f   libcmtd:vswprint.obj
 0002:0019c270       __vscwprintf_l             00677270 f   libcmtd:vswprint.obj
 0002:0019c2a0       __vscwprintf_p             006772a0 f   libcmtd:vswprint.obj
 0002:0019c2d0       __vscwprintf_p_l           006772d0 f   libcmtd:vswprint.obj
 0002:0019c300       ___ansicp                  00677300 f   libcmtd:convrtcp.obj
 0002:0019c370       ___convertcp               00677370 f   libcmtd:convrtcp.obj
 0002:0019c650       ___crtGetStringTypeW       00677650 f   libcmtd:w_str.obj
 0002:0019c6f0       __putwch                   006776f0 f   libcmtd:putwch.obj
 0002:0019c7a0       __putwch_nolock            006777a0 f   libcmtd:putwch.obj
 0002:0019c8e0       __cputws                   006778e0 f   libcmtd:putwch.obj
 0002:0019ca80       __mbtowc_l                 00677a80 f   libcmtd:mbtowc.obj
 0002:0019cd20       _mbtowc                    00677d20 f   libcmtd:mbtowc.obj
 0002:0019cd50       __allmul                   00677d50 f   libcmtd:llmul.obj
 0002:0019cda0       __mbsdec_l                 00677da0 f   libcmtd:mbsdec.obj
 0002:0019cf70       __mbsdec                   00677f70 f   libcmtd:mbsdec.obj
 0002:0019cf90       __mbsnbcpy_s_l             00677f90 f   libcmtd:mbsnbcpy_s_l.obj
 0002:0019d7b0       ___crtMessageBoxA          006787b0 f   libcmtd:crtmbox.obj
 0002:0019da60       __set_error_mode           00678a60 f   libcmtd:errmode.obj
 0002:0019db50       ___set_app_type            00678b50 f   libcmtd:errmode.obj
 0002:0019db70       ___get_app_type            00678b70 f   libcmtd:errmode.obj
 0002:0019db80       ___crtGetLocaleInfoW       00678b80 f   libcmtd:w_loc.obj
 0002:0019dc10       ___crtGetLocaleInfoA       00678c10 f   libcmtd:a_loc.obj
 0002:0019de60       _fdiv_main_routine         00678e60 f   libcmtd:_adj_fdiv_.obj
 0002:0019df77       __adj_fdiv_r               00678f77 f   libcmtd:_adj_fdiv_.obj
 0002:0019e416       __fdivp_sti_st             00679416 f   libcmtd:_adj_fdiv_.obj
 0002:0019e429       __fdivrp_sti_st            00679429 f   libcmtd:_adj_fdiv_.obj
 0002:0019e43c       __adj_fdiv_m32             0067943c f   libcmtd:_adj_fdiv_.obj
 0002:0019e488       __adj_fdiv_m64             00679488 f   libcmtd:_adj_fdiv_.obj
 0002:0019e4d4       __adj_fdiv_m16i            006794d4 f   libcmtd:_adj_fdiv_.obj
 0002:0019e508       __adj_fdiv_m32i            00679508 f   libcmtd:_adj_fdiv_.obj
 0002:0019e53c       __adj_fdivr_m32            0067953c f   libcmtd:_adj_fdiv_.obj
 0002:0019e588       __adj_fdivr_m64            00679588 f   libcmtd:_adj_fdiv_.obj
 0002:0019e5d4       __adj_fdivr_m16i           006795d4 f   libcmtd:_adj_fdiv_.obj
 0002:0019e608       __adj_fdivr_m32i           00679608 f   libcmtd:_adj_fdiv_.obj
 0002:0019e63c       __safe_fdiv                0067963c f   libcmtd:_adj_fdiv_.obj
 0002:0019e651       __safe_fdivr               00679651 f   libcmtd:_adj_fdiv_.obj
 0002:0019e666       __fprem_common             00679666 f   libcmtd:_adj_fdiv_.obj
 0002:0019e86c       __adj_fprem                0067986c f   libcmtd:_adj_fdiv_.obj
 0002:0019e91e       __fprem1_common            0067991e f   libcmtd:_adj_fdiv_.obj
 0002:0019eb24       __adj_fprem1               00679b24 f   libcmtd:_adj_fdiv_.obj
 0002:0019ebd9       __safe_fprem               00679bd9 f   libcmtd:_adj_fdiv_.obj
 0002:0019ebdf       __safe_fprem1              00679bdf f   libcmtd:_adj_fdiv_.obj
 0002:0019ebe5       __adj_fpatan               00679be5 f   libcmtd:_adj_fdiv_.obj
 0002:0019ebe8       __adj_fptan                00679be8 f   libcmtd:_adj_fdiv_.obj
 0002:0019ef50       __87except                 00679f50 f   libcmtd:_87except_.obj
 0002:0019f170       __set_exp                  0067a170 f   libcmtd:_util_.obj
 0002:0019f1c0       __get_exp                  0067a1c0 f   libcmtd:_util_.obj
 0002:0019f200       __add_exp                  0067a200 f   libcmtd:_util_.obj
 0002:0019f240       __set_bexp                 0067a240 f   libcmtd:_util_.obj
 0002:0019f280       __sptype                   0067a280 f   libcmtd:_util_.obj
 0002:0019f320       __decomp                   0067a320 f   libcmtd:_util_.obj
 0002:0019f490       __frnd                     0067a490 f   libcmtd:_frnd_.obj
 0002:0019f4b0       __copysign                 0067a4b0 f   libcmtd:_ieeemisc_.obj
 0002:0019f4f0       __chgsign                  0067a4f0 f   libcmtd:_ieeemisc_.obj
 0002:0019f530       __scalb                    0067a530 f   libcmtd:_ieeemisc_.obj
 0002:0019f560       __logb                     0067a560 f   libcmtd:_ieeemisc_.obj
 0002:0019f6e0       __nextafter                0067a6e0 f   libcmtd:_ieeemisc_.obj
 0002:0019fad0       __finite                   0067aad0 f   libcmtd:_ieeemisc_.obj
 0002:0019fb00       __isnan                    0067ab00 f   libcmtd:_ieeemisc_.obj
 0002:0019fb60       __fpclass                  0067ab60 f   libcmtd:_ieeemisc_.obj
 0002:0019fc60       __matherr                  0067ac60 f   libcmtd:_matherr_.obj
 0002:0019fc70       __handle_qnan1             0067ac70 f   libcmtd:_fpexcept_.obj
 0002:0019fcf0       __handle_qnan2             0067acf0 f   libcmtd:_fpexcept_.obj
 0002:0019fd80       __except1                  0067ad80 f   libcmtd:_fpexcept_.obj
 0002:0019fec0       __except2                  0067aec0 f   libcmtd:_fpexcept_.obj
 0002:001a0010       __raise_exc_ex             0067b010 f   libcmtd:_fpexcept_.obj
 0002:001a0690       __raise_exc                0067b690 f   libcmtd:_fpexcept_.obj
 0002:001a06d0       __raise_excf               0067b6d0 f   libcmtd:_fpexcept_.obj
 0002:001a0710       __handle_exc               0067b710 f   libcmtd:_fpexcept_.obj
 0002:001a0ae0       __umatherr                 0067bae0 f   libcmtd:_fpexcept_.obj
 0002:001a0bb0       __set_errno_from_matherr   0067bbb0 f   libcmtd:_fpexcept_.obj
 0002:001a0c60       __errcode                  0067bc60 f   libcmtd:_fpexcept_.obj
 0002:001a0cf0       __statfp                   0067bcf0 f   libcmtd:_fpctrl_.obj
 0002:001a0d10       __clrfp                    0067bd10 f   libcmtd:_fpctrl_.obj
 0002:001a0d30       __ctrlfp                   0067bd30 f   libcmtd:_fpctrl_.obj
 0002:001a0d70       __set_statfp               0067bd70 f   libcmtd:_fpctrl_.obj
 0002:001a0df0       ___get_fpsr_sse2           0067bdf0 f   libcmtd:_fpctrl_.obj
 0002:001a0e20       ___set_fpsr_sse2           0067be20 f   libcmtd:_fpctrl_.obj
 0002:001a0f30       ___fclrf_sse2              0067bf30 f   libcmtd:_fpctrl_.obj
 0002:001a0f60       ___statfp_sse2             0067bf60 f   libcmtd:_fpctrl_.obj
 0002:001a0fa0       ___clrfp_sse2              0067bfa0 f   libcmtd:_fpctrl_.obj
 0002:001a0ff0       ___ctrlfp_sse2             0067bff0 f   libcmtd:_fpctrl_.obj
 0002:001a1060       ___set_statfp_sse2         0067c060 f   libcmtd:_fpctrl_.obj
 0002:001a10a0       ___ascii_strnicmp          0067c0a0 f   libcmtd:_strnicm.obj
 0002:001a1120       __get_daylight             0067c120 f   libcmtd:timeset.obj
 0002:001a11c0       __get_dstbias              0067c1c0 f   libcmtd:timeset.obj
 0002:001a1260       __get_timezone             0067c260 f   libcmtd:timeset.obj
 0002:001a1300       __get_tzname               0067c300 f   libcmtd:timeset.obj
 0002:001a1550       ___daylight                0067c550 f   libcmtd:timeset.obj
 0002:001a1560       ___dstbias                 0067c560 f   libcmtd:timeset.obj
 0002:001a1570       ___timezone                0067c570 f   libcmtd:timeset.obj
 0002:001a1580       ___tzname                  0067c580 f   libcmtd:timeset.obj
 0002:001a1590       ___tzset                   0067c590 f   libcmtd:tzset.obj
 0002:001a1650       __tzset                    0067c650 f   libcmtd:tzset.obj
 0002:001a1d60       __set_daylight             0067cd60 f i libcmtd:tzset.obj
 0002:001a1d80       __set_dstbias              0067cd80 f i libcmtd:tzset.obj
 0002:001a1da0       __set_timezone             0067cda0 f i libcmtd:tzset.obj
 0002:001a1dc0       __isindst                  0067cdc0 f   libcmtd:tzset.obj
 0002:001a2610       __chsize_s                 0067d610 f   libcmtd:chsize.obj
 0002:001a2950       __chsize_nolock            0067d950 f   libcmtd:chsize.obj
 0002:001a2c90       __chsize                   0067dc90 f   libcmtd:chsize.obj
 0002:001a2cc0       __setmode                  0067dcc0 f   libcmtd:setmode.obj
 0002:001a2ff0       __setmode_nolock           0067dff0 f   libcmtd:setmode.obj
 0002:001a32f0       __set_fmode                0067e2f0 f   libcmtd:setmode.obj
 0002:001a33d0       __get_fmode                0067e3d0 f   libcmtd:setmode.obj
 0002:001a3470       _vprintf_helper            0067e470 f   libcmtd:vprintf.obj
 0002:001a35d0       __vprintf_l                0067e5d0 f   libcmtd:vprintf.obj
 0002:001a3600       __vprintf_s_l              0067e600 f   libcmtd:vprintf.obj
 0002:001a3630       __vprintf_p_l              0067e630 f   libcmtd:vprintf.obj
 0002:001a3660       _vprintf                   0067e660 f   libcmtd:vprintf.obj
 0002:001a3690       _vprintf_s                 0067e690 f   libcmtd:vprintf.obj
 0002:001a36c0       __vprintf_p                0067e6c0 f   libcmtd:vprintf.obj
 0002:001a36f0       __statusfp2                0067e6f0 f   libcmtd:_ieee87_.obj
 0002:001a3740       __statusfp                 0067e740 f   libcmtd:_ieee87_.obj
 0002:001a37a0       __clearfp                  0067e7a0 f   libcmtd:_ieee87_.obj
 0002:001a3800       ___control87_2             0067e800 f   libcmtd:_ieee87_.obj
 0002:001a38d0       __controlfp                0067e8d0 f   libcmtd:_ieee87_.obj
 0002:001a3900       __control87                0067e900 f i libcmtd:_ieee87_.obj
 0002:001a39e0       __set_controlfp            0067e9e0 f   libcmtd:_ieee87_.obj
 0002:001a3a90       __fpreset                  0067ea90 f   libcmtd:_ieee87_.obj
 0002:001a4430       __ld12tod                  0067f430 f   libcmtd:_intrncvt_.obj
 0002:001a4460       __ld12cvt                  0067f460 f i libcmtd:_intrncvt_.obj
 0002:001a4740       __RoundMan                 0067f740 f i libcmtd:_intrncvt_.obj
 0002:001a4850       __ZeroTail                 0067f850 f i libcmtd:_intrncvt_.obj
 0002:001a4900       __IncMan                   0067f900 f i libcmtd:_intrncvt_.obj
 0002:001a49e0       ___addl                    0067f9e0 f i libcmtd:_intrncvt_.obj
 0002:001a4a30       __CopyMan                  0067fa30 f i libcmtd:_intrncvt_.obj
 0002:001a4aa0       __FillZeroMan              0067faa0 f i libcmtd:_intrncvt_.obj
 0002:001a4ae0       __IsZeroMan                0067fae0 f i libcmtd:_intrncvt_.obj
 0002:001a4b30       __ShrMan                   0067fb30 f i libcmtd:_intrncvt_.obj
 0002:001a4c60       __ld12tof                  0067fc60 f   libcmtd:_intrncvt_.obj
 0002:001a4c90       __ld12told                 0067fc90 f   libcmtd:_intrncvt_.obj
 0002:001a4d70       ___strgtold12_l            0067fd70 f   libcmtd:_strgtold_.obj
 0002:001a5ad0       ___multtenpow12            00680ad0 f i libcmtd:_strgtold_.obj
 0002:001a5be0       ___ld12mul                 00680be0 f i libcmtd:_strgtold_.obj
 0002:001a60e0       ___shl_12                  006810e0 f i libcmtd:_strgtold_.obj
 0002:001a6160       ___shr_12                  00681160 f i libcmtd:_strgtold_.obj
 0002:001a61e0       ___STRINGTOLD_L            006811e0 f   libcmtd:_strgtold_.obj
 0002:001a6270       _$I10_OUTPUT               00681270 f   libcmtd:_x10fout_.obj
 0002:001a6980       ___add_12                  00681980 f i libcmtd:_x10fout_.obj
 0002:001a6a60       __woutput_s_l              00681a60 f   libcmtd:woutputs.obj
 0002:001a8270       __validate_param_reuseW    00683270 f   libcmtd:woutputp.obj
 0002:001a8580       __woutput_p_l              00683580 f   libcmtd:woutputp.obj
 0002:001acad0       _fputwc                    00687ad0 f   libcmtd:fputwc.obj
 0002:001acc10       __fputwc_nolock            00687c10 f   libcmtd:fputwc.obj
 0002:001acfb0       _putwc                     00687fb0 f   libcmtd:fputwc.obj
 0002:001acfd0       ___initconin               00687fd0 f   libcmtd:initcon.obj
 0002:001ad000       ___initconout              00688000 f   libcmtd:initcon.obj
 0002:001ad030       ___termcon                 00688030 f   libcmtd:initcon.obj
 0002:001ad090       _ldexp                     00688090 f   libcmtd:_ldexp_.obj
 0002:001ad400       _getenv                    00688400 f   libcmtd:getenv.obj
 0002:001ad5b0       __getenv_helper_nolock     006885b0 f   libcmtd:getenv.obj
 0002:001ad710       _getenv_s                  00688710 f   libcmtd:getenv.obj
 0002:001ad9c0       __dupenv_s                 006889c0 f   libcmtd:getenv.obj
 0002:001ad9f0       __dupenv_s_dbg             006889f0 f   libcmtd:getenv.obj
 0002:001adcd0       ___mtold12                 00688cd0 f   libcmtd:_mantold_.obj
 0002:001ade80       _wcstol                    00688e80 f   libcmtd:wcstol.obj
 0002:001ae420       __wcstol_l                 00689420 f   libcmtd:wcstol.obj
 0002:001ae450       _wcstoul                   00689450 f   libcmtd:wcstol.obj
 0002:001ae4b0       __wcstoul_l                006894b0 f   libcmtd:wcstol.obj
 0002:001ae4e0       __flswbuf                  006894e0 f   libcmtd:_flswbuf.obj
 0002:001ae870       __mbsnbicoll_l             00689870 f   libcmtd:mbsnbico.obj
 0002:001aeb40       __mbsnbicoll               00689b40 f   libcmtd:mbsnbico.obj
 0002:001aeb70       ___wtomb_environ           00689b70 f   libcmtd:wtombenv.obj
 0002:001aeca0       __wchartodigit             00689ca0 f   libcmtd:wchtodig.obj
 0002:001af090       ___crtCompareStringA       0068a090 f   libcmtd:a_cmp.obj
 0002:001af7b0       __strnicoll_l              0068a7b0 f   libcmtd:strnicol.obj
 0002:001afa90       __strnicoll                0068aa90 f   libcmtd:strnicol.obj
 0002:001afae0       ___crtsetenv               0068aae0 f   libcmtd:setenv.obj
 0002:001b0300       __mbschr_l                 0068b300 f   libcmtd:mbschr.obj
 0002:001b04f0       __mbschr                   0068b4f0 f   libcmtd:mbschr.obj
 0002:001b0510       _lstrcpyA@8                0068b510 f   kernel32:KERNEL32.dll
 0002:001b0516       _lstrlenA@4                0068b516 f   kernel32:KERNEL32.dll
 0002:001b051c       _DeleteFileA@4             0068b51c f   kernel32:KERNEL32.dll
 0002:001b0522       _GetTempPathA@8            0068b522 f   kernel32:KERNEL32.dll
 0002:001b0528       _GetProcAddress@8          0068b528 f   kernel32:KERNEL32.dll
 0002:001b052e       _LoadLibraryA@4            0068b52e f   kernel32:KERNEL32.dll
 0002:001b0534       _FreeLibrary@4             0068b534 f   kernel32:KERNEL32.dll
 0002:001b053a       _CloseHandle@4             0068b53a f   kernel32:KERNEL32.dll
 0002:001b0540       _WaitForSingleObject@8     0068b540 f   kernel32:KERNEL32.dll
 0002:001b0546       _CreateDirectoryA@8        0068b546 f   kernel32:KERNEL32.dll
 0002:001b054c       _TerminateThread@8         0068b54c f   kernel32:KERNEL32.dll
 0002:001b0552       _ResumeThread@4            0068b552 f   kernel32:KERNEL32.dll
 0002:001b0558       _CreateThread@24           0068b558 f   kernel32:KERNEL32.dll
 0002:001b055e       _Sleep@4                   0068b55e f   kernel32:KERNEL32.dll
 0002:001b0564       _lstrcmpiA@8               0068b564 f   kernel32:KERNEL32.dll
 0002:001b056a       _OutputDebugStringA@4      0068b56a f   kernel32:KERNEL32.dll
 0002:001b0570       _SetThreadPriority@8       0068b570 f   kernel32:KERNEL32.dll
 0002:001b0576       _SetEvent@4                0068b576 f   kernel32:KERNEL32.dll
 0002:001b057c       _ResetEvent@4              0068b57c f   kernel32:KERNEL32.dll
 0002:001b0582       _CreateEventA@16           0068b582 f   kernel32:KERNEL32.dll
 0002:001b0588       _FindNextFileA@8           0068b588 f   kernel32:KERNEL32.dll
 0002:001b058e       _FindFirstFileA@8          0068b58e f   kernel32:KERNEL32.dll
 0002:001b0594       _FileTimeToSystemTime@8    0068b594 f   kernel32:KERNEL32.dll
 0002:001b059a       _FileTimeToLocalFileTime@8 0068b59a f   kernel32:KERNEL32.dll
 0002:001b05a0       _GetFileInformationByHandle@8 0068b5a0 f   kernel32:KERNEL32.dll
 0002:001b05a6       _CreateFileA@28            0068b5a6 f   kernel32:KERNEL32.dll
 0002:001b05ac       _QueryPerformanceFrequency@4 0068b5ac f   kernel32:KERNEL32.dll
 0002:001b05b2       _QueryPerformanceCounter@4 0068b5b2 f   kernel32:KERNEL32.dll
 0002:001b05b8       _GetUserDefaultLCID@0      0068b5b8 f   kernel32:KERNEL32.dll
 0002:001b05be       _FindClose@4               0068b5be f   kernel32:KERNEL32.dll
 0002:001b05c4       _GetPrivateProfileIntA@16  0068b5c4 f   kernel32:KERNEL32.dll
 0002:001b05ca       _GetPrivateProfileStringA@24 0068b5ca f   kernel32:KERNEL32.dll
 0002:001b05d0       _GetPrivateProfileStructA@20 0068b5d0 f   kernel32:KERNEL32.dll
 0002:001b05d6       _WritePrivateProfileStringA@16 0068b5d6 f   kernel32:KERNEL32.dll
 0002:001b05dc       _WritePrivateProfileStructA@20 0068b5dc f   kernel32:KERNEL32.dll
 0002:001b05e2       _GetVersionExA@4           0068b5e2 f   kernel32:KERNEL32.dll
 0002:001b05e8       _ReleaseMutex@4            0068b5e8 f   kernel32:KERNEL32.dll
 0002:001b05ee       _GetLastError@0            0068b5ee f   kernel32:KERNEL32.dll
 0002:001b05f4       _CreateMutexA@12           0068b5f4 f   kernel32:KERNEL32.dll
 0002:001b05fa       _GetModuleFileNameA@12     0068b5fa f   kernel32:KERNEL32.dll
 0002:001b0600       _GetCurrentThreadId@0      0068b600 f   kernel32:KERNEL32.dll
 0002:001b0606       _GetLocalTime@4            0068b606 f   kernel32:KERNEL32.dll
 0002:001b060c       _RtlUnwind@16              0068b60c f   kernel32:KERNEL32.dll
 0002:001b0612       _RaiseException@16         0068b612 f   kernel32:KERNEL32.dll
 0002:001b0618       _IsDebuggerPresent@0       0068b618 f   kernel32:KERNEL32.dll
 0002:001b061e       _DebugBreak@0              0068b61e f   kernel32:KERNEL32.dll
 0002:001b0624       _WideCharToMultiByte@32    0068b624 f   kernel32:KERNEL32.dll
 0002:001b062a       _MultiByteToWideChar@24    0068b62a f   kernel32:KERNEL32.dll
 0002:001b0630       _TerminateProcess@8        0068b630 f   kernel32:KERNEL32.dll
 0002:001b0636       _GetCurrentProcess@0       0068b636 f   kernel32:KERNEL32.dll
 0002:001b063c       _UnhandledExceptionFilter@4 0068b63c f   kernel32:KERNEL32.dll
 0002:001b0642       _SetUnhandledExceptionFilter@4 0068b642 f   kernel32:KERNEL32.dll
 0002:001b0648       _GetModuleFileNameW@12     0068b648 f   kernel32:KERNEL32.dll
 0002:001b064e       _GetSystemTimeAsFileTime@4 0068b64e f   kernel32:KERNEL32.dll
 0002:001b0654       _ExitThread@4              0068b654 f   kernel32:KERNEL32.dll
 0002:001b065a       _HeapValidate@12           0068b65a f   kernel32:KERNEL32.dll
 0002:001b0660       _IsBadReadPtr@8            0068b660 f   kernel32:KERNEL32.dll
 0002:001b0666       _GetCommandLineA@0         0068b666 f   kernel32:KERNEL32.dll
 0002:001b066c       _GetStartupInfoA@4         0068b66c f   kernel32:KERNEL32.dll
 0002:001b0672       _TlsGetValue@4             0068b672 f   kernel32:KERNEL32.dll
 0002:001b0678       _GetModuleHandleW@4        0068b678 f   kernel32:KERNEL32.dll
 0002:001b067e       _TlsAlloc@0                0068b67e f   kernel32:KERNEL32.dll
 0002:001b0684       _TlsSetValue@8             0068b684 f   kernel32:KERNEL32.dll
 0002:001b068a       _TlsFree@4                 0068b68a f   kernel32:KERNEL32.dll
 0002:001b0690       _InterlockedIncrement@4    0068b690 f   kernel32:KERNEL32.dll
 0002:001b0696       _SetLastError@4            0068b696 f   kernel32:KERNEL32.dll
 0002:001b069c       _InterlockedDecrement@4    0068b69c f   kernel32:KERNEL32.dll
 0002:001b06a2       _GetCurrentThread@0        0068b6a2 f   kernel32:KERNEL32.dll
 0002:001b06a8       _DeleteCriticalSection@4   0068b6a8 f   kernel32:KERNEL32.dll
 0002:001b06ae       _EnterCriticalSection@4    0068b6ae f   kernel32:KERNEL32.dll
 0002:001b06b4       _LeaveCriticalSection@4    0068b6b4 f   kernel32:KERNEL32.dll
 0002:001b06ba       _FatalAppExitA@8           0068b6ba f   kernel32:KERNEL32.dll
 0002:001b06c0       _GetACP@0                  0068b6c0 f   kernel32:KERNEL32.dll
 0002:001b06c6       _GetOEMCP@0                0068b6c6 f   kernel32:KERNEL32.dll
 0002:001b06cc       _GetCPInfo@8               0068b6cc f   kernel32:KERNEL32.dll
 0002:001b06d2       _IsValidCodePage@4         0068b6d2 f   kernel32:KERNEL32.dll
 0002:001b06d8       _ReadFile@20               0068b6d8 f   kernel32:KERNEL32.dll
 0002:001b06de       _SetHandleCount@4          0068b6de f   kernel32:KERNEL32.dll
 0002:001b06e4       _GetStdHandle@4            0068b6e4 f   kernel32:KERNEL32.dll
 0002:001b06ea       _GetFileType@4             0068b6ea f   kernel32:KERNEL32.dll
 0002:001b06f0       _SetFilePointer@16         0068b6f0 f   kernel32:KERNEL32.dll
 0002:001b06f6       _GetModuleHandleA@4        0068b6f6 f   kernel32:KERNEL32.dll
 0002:001b06fc       _HeapFree@12               0068b6fc f   kernel32:KERNEL32.dll
 0002:001b0702       _HeapAlloc@12              0068b702 f   kernel32:KERNEL32.dll
 0002:001b0708       _GetProcessHeap@0          0068b708 f   kernel32:KERNEL32.dll
 0002:001b070e       _VirtualQuery@12           0068b70e f   kernel32:KERNEL32.dll
 0002:001b0714       _WriteFile@20              0068b714 f   kernel32:KERNEL32.dll
 0002:001b071a       _WriteConsoleW@20          0068b71a f   kernel32:KERNEL32.dll
 0002:001b0720       _OutputDebugStringW@4      0068b720 f   kernel32:KERNEL32.dll
 0002:001b0726       _ExitProcess@4             0068b726 f   kernel32:KERNEL32.dll
 0002:001b072c       _SetConsoleCtrlHandler@8   0068b72c f   kernel32:KERNEL32.dll
 0002:001b0732       _LoadLibraryW@4            0068b732 f   kernel32:KERNEL32.dll
 0002:001b0738       _LCMapStringA@24           0068b738 f   kernel32:KERNEL32.dll
 0002:001b073e       _LCMapStringW@24           0068b73e f   kernel32:KERNEL32.dll
 0002:001b0744       _GetConsoleCP@0            0068b744 f   kernel32:KERNEL32.dll
 0002:001b074a       _GetConsoleMode@8          0068b74a f   kernel32:KERNEL32.dll
 0002:001b0750       _GetStringTypeA@20         0068b750 f   kernel32:KERNEL32.dll
 0002:001b0756       _GetStringTypeW@16         0068b756 f   kernel32:KERNEL32.dll
 0002:001b075c       _HeapSize@12               0068b75c f   kernel32:KERNEL32.dll
 0002:001b0762       _HeapReAlloc@16            0068b762 f   kernel32:KERNEL32.dll
 0002:001b0768       _HeapDestroy@4             0068b768 f   kernel32:KERNEL32.dll
 0002:001b076e       _HeapCreate@12             0068b76e f   kernel32:KERNEL32.dll
 0002:001b0774       _VirtualFree@12            0068b774 f   kernel32:KERNEL32.dll
 0002:001b077a       _VirtualAlloc@16           0068b77a f   kernel32:KERNEL32.dll
 0002:001b0780       _GetTickCount@0            0068b780 f   kernel32:KERNEL32.dll
 0002:001b0786       _GetCurrentProcessId@0     0068b786 f   kernel32:KERNEL32.dll
 0002:001b078c       _FreeEnvironmentStringsA@4 0068b78c f   kernel32:KERNEL32.dll
 0002:001b0792       _GetEnvironmentStrings@0   0068b792 f   kernel32:KERNEL32.dll
 0002:001b0798       _FreeEnvironmentStringsW@4 0068b798 f   kernel32:KERNEL32.dll
 0002:001b079e       _GetEnvironmentStringsW@0  0068b79e f   kernel32:KERNEL32.dll
 0002:001b07a4       _InitializeCriticalSectionAndSpinCount@8 0068b7a4 f   kernel32:KERNEL32.dll
 0002:001b07aa       _GetTimeFormatA@24         0068b7aa f   kernel32:KERNEL32.dll
 0002:001b07b0       _GetDateFormatA@24         0068b7b0 f   kernel32:KERNEL32.dll
 0002:001b07b6       _GetLocaleInfoA@16         0068b7b6 f   kernel32:KERNEL32.dll
 0002:001b07bc       _IsValidLocale@8           0068b7bc f   kernel32:KERNEL32.dll
 0002:001b07c2       _EnumSystemLocalesA@8      0068b7c2 f   kernel32:KERNEL32.dll
 0002:001b07c8       _SetStdHandle@8            0068b7c8 f   kernel32:KERNEL32.dll
 0002:001b07ce       _FlushFileBuffers@4        0068b7ce f   kernel32:KERNEL32.dll
 0002:001b07d4       _InterlockedExchange@8     0068b7d4 f   kernel32:KERNEL32.dll
 0002:001b07da       _WriteConsoleA@20          0068b7da f   kernel32:KERNEL32.dll
 0002:001b07e0       _GetConsoleOutputCP@0      0068b7e0 f   kernel32:KERNEL32.dll
 0002:001b07e6       _GetLocaleInfoW@16         0068b7e6 f   kernel32:KERNEL32.dll
 0002:001b07ec       _GetTimeZoneInformation@4  0068b7ec f   kernel32:KERNEL32.dll
 0002:001b07f2       _SetEndOfFile@4            0068b7f2 f   kernel32:KERNEL32.dll
 0002:001b07f8       _CompareStringA@24         0068b7f8 f   kernel32:KERNEL32.dll
 0002:001b07fe       _CompareStringW@24         0068b7fe f   kernel32:KERNEL32.dll
 0002:001b0804       _SetEnvironmentVariableA@8 0068b804 f   kernel32:KERNEL32.dll
 0002:001b080a       _DialogBoxParamA@20        0068b80a f   user32:USER32.dll
 0002:001b0810       _GetDlgItem@8              0068b810 f   user32:USER32.dll
 0002:001b0816       _SetDlgItemTextA@12        0068b816 f   user32:USER32.dll
 0002:001b081c       _wsprintfA                 0068b81c f   user32:USER32.dll
 0002:001b0822       _SendDlgItemMessageA@20    0068b822 f   user32:USER32.dll
 0002:001b0828       _LoadIconA@8               0068b828 f   user32:USER32.dll
 0002:001b082e       _SetWindowLongA@12         0068b82e f   user32:USER32.dll
 0002:001b0834       _GetWindowLongA@8          0068b834 f   user32:USER32.dll
 0002:001b083a       _LoadCursorA@8             0068b83a f   user32:USER32.dll
 0002:001b0840       _SendMessageA@16           0068b840 f   user32:USER32.dll
 0002:001b0846       _OffsetRect@12             0068b846 f   user32:USER32.dll
 0002:001b084c       _DrawTextA@20              0068b84c f   user32:USER32.dll
 0002:001b0852       _GetDC@4                   0068b852 f   user32:USER32.dll
 0002:001b0858       _GetClientRect@8           0068b858 f   user32:USER32.dll
 0002:001b085e       _IsWindow@4                0068b85e f   user32:USER32.dll
 0002:001b0864       _EndPaint@8                0068b864 f   user32:USER32.dll
 0002:001b086a       _BeginPaint@8              0068b86a f   user32:USER32.dll
 0002:001b0870       _SetCursor@4               0068b870 f   user32:USER32.dll
 0002:001b0876       _PtInRect@12               0068b876 f   user32:USER32.dll
 0002:001b087c       _CallWindowProcA@20        0068b87c f   user32:USER32.dll
 0002:001b0882       _EndDialog@8               0068b882 f   user32:USER32.dll
 0002:001b0888       _LoadStringA@16            0068b888 f   user32:USER32.dll
 0002:001b088e       _DefWindowProcA@16         0068b88e f   user32:USER32.dll
 0002:001b0894       _GetWindowTextA@12         0068b894 f   user32:USER32.dll
 0002:001b089a       _EnableWindow@8            0068b89a f   user32:USER32.dll
 0002:001b08a0       _SetWindowTextA@8          0068b8a0 f   user32:USER32.dll
 0002:001b08a6       _KillTimer@8               0068b8a6 f   user32:USER32.dll
 0002:001b08ac       _GetDlgItemTextA@16        0068b8ac f   user32:USER32.dll
 0002:001b08b2       _MessageBoxA@16            0068b8b2 f   user32:USER32.dll
 0002:001b08b8       _SetTimer@16               0068b8b8 f   user32:USER32.dll
 0002:001b08be       _PostMessageA@16           0068b8be f   user32:USER32.dll
 0002:001b08c4       _CreateDialogParamA@20     0068b8c4 f   user32:USER32.dll
 0002:001b08ca       _DestroyWindow@4           0068b8ca f   user32:USER32.dll
 0002:001b08d0       _GetWindowRect@8           0068b8d0 f   user32:USER32.dll
 0002:001b08d6       _GetWindowTextLengthA@4    0068b8d6 f   user32:USER32.dll
 0002:001b08dc       _MessageBeep@4             0068b8dc f   user32:USER32.dll
 0002:001b08e2       _GetFocus@0                0068b8e2 f   user32:USER32.dll
 0002:001b08e8       _ShowWindow@8              0068b8e8 f   user32:USER32.dll
 0002:001b08ee       _SetWindowPos@28           0068b8ee f   user32:USER32.dll
 0002:001b08f4       _ScreenToClient@8          0068b8f4 f   user32:USER32.dll
 0002:001b08fa       _MoveWindow@24             0068b8fa f   user32:USER32.dll
 0002:001b0900       _SetFocus@4                0068b900 f   user32:USER32.dll
 0002:001b0906       _DestroyMenu@4             0068b906 f   user32:USER32.dll
 0002:001b090c       _InvalidateRect@12         0068b90c f   user32:USER32.dll
 0002:001b0912       _IsDlgButtonChecked@8      0068b912 f   user32:USER32.dll
 0002:001b0918       _GetSubMenu@8              0068b918 f   user32:USER32.dll
 0002:001b091e       _GetSystemMetrics@4        0068b91e f   user32:USER32.dll
 0002:001b0924       _CheckDlgButton@12         0068b924 f   user32:USER32.dll
 0002:001b092a       _LoadMenuA@8               0068b92a f   user32:USER32.dll
 0002:001b0930       _TrackPopupMenu@28         0068b930 f   user32:USER32.dll
 0002:001b0936       _GetParent@4               0068b936 f   user32:USER32.dll
 0002:001b093c       _ReleaseDC@8               0068b93c f   user32:USER32.dll
 0002:001b0942       _FindWindowA@8             0068b942 f   user32:USER32.dll
 0002:001b0948       _SetRect@20                0068b948 f   user32:USER32.dll
 0002:001b094e       _ClientToScreen@8          0068b94e f   user32:USER32.dll
 0002:001b0954       _GetCursorPos@4            0068b954 f   user32:USER32.dll
 0002:001b095a       _GetAsyncKeyState@4        0068b95a f   user32:USER32.dll
 0002:001b0960       _GetMenuItemID@8           0068b960 f   user32:USER32.dll
 0002:001b0966       _GetMenuItemCount@4        0068b966 f   user32:USER32.dll
 0002:001b096c       _CheckMenuItem@12          0068b96c f   user32:USER32.dll
 0002:001b0972       _SetDlgItemInt@16          0068b972 f   user32:USER32.dll
 0002:001b0978       _GetDlgItemInt@16          0068b978 f   user32:USER32.dll
 0002:001b097e       _CreateWindowExA@48        0068b97e f   user32:USER32.dll
 0002:001b0984       _RegisterClassExA@4        0068b984 f   user32:USER32.dll
 0002:001b098a       _SetMenu@8                 0068b98a f   user32:USER32.dll
 0002:001b0990       _PostQuitMessage@4         0068b990 f   user32:USER32.dll
 0002:001b0996       _DrawMenuBar@4             0068b996 f   user32:USER32.dll
 0002:001b099c       _GetWindowPlacement@8      0068b99c f   user32:USER32.dll
 0002:001b09a2       _SetForegroundWindow@4     0068b9a2 f   user32:USER32.dll
 0002:001b09a8       _IsWindowVisible@4         0068b9a8 f   user32:USER32.dll
 0002:001b09ae       _RedrawWindow@16           0068b9ae f   user32:USER32.dll
 0002:001b09b4       _SetWindowPlacement@8      0068b9b4 f   user32:USER32.dll
 0002:001b09ba       _ShowCursor@4              0068b9ba f   user32:USER32.dll
 0002:001b09c0       _ModifyMenuA@20            0068b9c0 f   user32:USER32.dll
 0002:001b09c6       _GetMenuStringA@20         0068b9c6 f   user32:USER32.dll
 0002:001b09cc       _EnableMenuItem@12         0068b9cc f   user32:USER32.dll
 0002:001b09d2       _SetScrollInfo@16          0068b9d2 f   user32:USER32.dll
 0002:001b09d8       _GetScrollInfo@12          0068b9d8 f   user32:USER32.dll
 0002:001b09de       _FillRect@12               0068b9de f   user32:USER32.dll
 0002:001b09e4       _InvertRect@8              0068b9e4 f   user32:USER32.dll
 0002:001b09ea       _CheckRadioButton@16       0068b9ea f   user32:USER32.dll
 0002:001b09f0       _DrawEdge@16               0068b9f0 f   user32:USER32.dll
 0002:001b09f6       _InsertMenuA@20            0068b9f6 f   user32:USER32.dll
 0002:001b09fc       _DeleteMenu@12             0068b9fc f   user32:USER32.dll
 0002:001b0a02       _DispatchMessageA@4        0068ba02 f   user32:USER32.dll
 0002:001b0a08       _TranslateMessage@4        0068ba08 f   user32:USER32.dll
 0002:001b0a0e       _GetMessageA@16            0068ba0e f   user32:USER32.dll
 0002:001b0a14       _UpdateWindow@4            0068ba14 f   user32:USER32.dll
 0002:001b0a1a       _IsDialogMessageA@8        0068ba1a f   user32:USER32.dll
 0002:001b0a20       _SetWindowsHookExA@16      0068ba20 f   user32:USER32.dll
 0002:001b0a26       _UnhookWindowsHookEx@4     0068ba26 f   user32:USER32.dll
 0002:001b0a2c       _CallNextHookEx@16         0068ba2c f   user32:USER32.dll
 0002:001b0a32       _CreateFontIndirectA@4     0068ba32 f   gdi32:GDI32.dll
 0002:001b0a38       _GetObjectA@12             0068ba38 f   gdi32:GDI32.dll
 0002:001b0a3e       _SelectObject@8            0068ba3e f   gdi32:GDI32.dll
 0002:001b0a44       _SetTextColor@8            0068ba44 f   gdi32:GDI32.dll
 0002:001b0a4a       _SetBkMode@8               0068ba4a f   gdi32:GDI32.dll
 0002:001b0a50       _DeleteObject@4            0068ba50 f   gdi32:GDI32.dll
 0002:001b0a56       _GetStockObject@4          0068ba56 f   gdi32:GDI32.dll
 0002:001b0a5c       _SetBkColor@8              0068ba5c f   gdi32:GDI32.dll
 0002:001b0a62       _ExtTextOutA@32            0068ba62 f   gdi32:GDI32.dll
 0002:001b0a68       _CreatePalette@4           0068ba68 f   gdi32:GDI32.dll
 0002:001b0a6e       _GetSystemPaletteEntries@16 0068ba6e f   gdi32:GDI32.dll
 0002:001b0a74       _RealizePalette@4          0068ba74 f   gdi32:GDI32.dll
 0002:001b0a7a       _SelectPalette@12          0068ba7a f   gdi32:GDI32.dll
 0002:001b0a80       _AnimatePalette@16         0068ba80 f   gdi32:GDI32.dll
 0002:001b0a86       _StretchDIBits@52          0068ba86 f   gdi32:GDI32.dll
 0002:001b0a8c       _TextOutA@20               0068ba8c f   gdi32:GDI32.dll
 0002:001b0a92       _GetOpenFileNameA@4        0068ba92 f   comdlg32:COMDLG32.dll
 0002:001b0a98       _GetSaveFileNameA@4        0068ba98 f   comdlg32:COMDLG32.dll
 0002:001b0a9e       _RegCloseKey@4             0068ba9e f   advapi32:ADVAPI32.dll
 0002:001b0aa4       _RegCreateKeyExA@36        0068baa4 f   advapi32:ADVAPI32.dll
 0002:001b0aaa       _RegOpenKeyExA@20          0068baaa f   advapi32:ADVAPI32.dll
 0002:001b0ab0       _RegQueryValueExA@24       0068bab0 f   advapi32:ADVAPI32.dll
 0002:001b0ab6       _RegEnumValueA@32          0068bab6 f   advapi32:ADVAPI32.dll
 0002:001b0abc       _RegEnumKeyExA@32          0068babc f   advapi32:ADVAPI32.dll
 0002:001b0ac2       _ShellExecuteA@24          0068bac2 f   shell32:SHELL32.dll
 0002:001b0ac8       _DragAcceptFiles@8         0068bac8 f   shell32:SHELL32.dll
 0002:001b0ace       _DragFinish@4              0068bace f   shell32:SHELL32.dll
 0002:001b0ad4       _DragQueryFileA@16         0068bad4 f   shell32:SHELL32.dll
 0002:001b0ada       _SHGetMalloc@4             0068bada f   shell32:SHELL32.dll
 0002:001b0ae0       _SHGetPathFromIDListA@8    0068bae0 f   shell32:SHELL32.dll
 0002:001b0ae6       _SHBrowseForFolderA@4      0068bae6 f   shell32:SHELL32.dll
 0002:001b0aec       _CoInitialize@4            0068baec f   ole32:ole32.dll
 0002:001b0af2       _CoUninitialize@0          0068baf2 f   ole32:ole32.dll
 0002:001b0af8       _CoCreateInstance@20       0068baf8 f   ole32:ole32.dll
 0002:001b0b00       _compress2                 0068bb00 f   zlib:compress.obj
 0002:001b0bb0       _compress                  0068bbb0 f   zlib:compress.obj
 0002:001b0c10       _get_crc_table             0068bc10 f   zlib:crc32.obj
 0002:001b0c20       _crc32                     0068bc20 f   zlib:crc32.obj
 0002:001b0dc0       _inflateReset              0068bdc0 f   zlib:inflate.obj
 0002:001b0e10       _inflateEnd                0068be10 f   zlib:inflate.obj
 0002:001b0e60       _inflateInit2_             0068be60 f   zlib:inflate.obj
 0002:001b0f70       _inflateInit_              0068bf70 f   zlib:inflate.obj
 0002:001b0f90       _inflate                   0068bf90 f   zlib:inflate.obj
 0002:001b13c0       _inflateSetDictionary      0068c3c0 f   zlib:inflate.obj
 0002:001b1450       _inflateSync               0068c450 f   zlib:inflate.obj
 0002:001b1520       _inflateSyncPoint          0068c520 f   zlib:inflate.obj
 0002:001b1740       _deflateInit_              0068c740 f   zlib:deflate.obj
 0002:001b1770       _deflateInit2_             0068c770 f   zlib:deflate.obj
 0002:001b1970       _deflateSetDictionary      0068c970 f   zlib:deflate.obj
 0002:001b1a70       _deflateReset              0068ca70 f   zlib:deflate.obj
 0002:001b1af0       _deflateParams             0068caf0 f   zlib:deflate.obj
 0002:001b1bc0       _deflate                   0068cbc0 f   zlib:deflate.obj
 0002:001b1f20       _deflateEnd                0068cf20 f   zlib:deflate.obj
 0002:001b1fd0       _deflateCopy               0068cfd0 f   zlib:deflate.obj
 0002:001b33b0       _inflate_blocks_reset      0068e3b0 f   zlib:infblock.obj
 0002:001b3430       _inflate_blocks_new        0068e430 f   zlib:infblock.obj
 0002:001b34d0       _inflate_blocks            0068e4d0 f   zlib:infblock.obj
 0002:001b41e0       _inflate_blocks_free       0068f1e0 f   zlib:infblock.obj
 0002:001b4220       _inflate_set_dictionary    0068f220 f   zlib:infblock.obj
 0002:001b4260       _inflate_blocks_sync_point 0068f260 f   zlib:infblock.obj
 0002:001b4620       _adler32                   0068f620 f   zlib:adler32.obj
 0002:001b47a0       _zlibVersion               0068f7a0 f   zlib:zutil.obj
 0002:001b47b0       _zError                    0068f7b0 f   zlib:zutil.obj
 0002:001b47d0       _zcalloc                   0068f7d0 f   zlib:zutil.obj
 0002:001b47f0       _zcfree                    0068f7f0 f   zlib:zutil.obj
 0002:001b4820       __tr_init                  0068f820 f   zlib:trees.obj
 0002:001b4910       __tr_stored_block          0068f910 f   zlib:trees.obj
 0002:001b49b0       __tr_align                 0068f9b0 f   zlib:trees.obj
 0002:001b4c10       __tr_flush_block           0068fc10 f   zlib:trees.obj
 0002:001b5d20       __tr_tally                 00690d20 f   zlib:trees.obj
 0002:001b6b70       _inflate_codes_new         00691b70 f   zlib:infcodes.obj
 0002:001b6bb0       _inflate_codes             00691bb0 f   zlib:infcodes.obj
 0002:001b7360       _inflate_codes_free        00692360 f   zlib:infcodes.obj
 0002:001b7590       _inflate_trees_bits        00692590 f   zlib:inftrees.obj
 0002:001b7b00       _inflate_trees_dynamic     00692b00 f   zlib:inftrees.obj
 0002:001b7c90       _inflate_trees_fixed       00692c90 f   zlib:inftrees.obj
 0002:001b7e90       _inflate_flush             00692e90 f   zlib:infutil.obj
 0002:001b8020       _inflate_fast              00693020 f   zlib:inffast.obj
 0002:001b84f0       ??2@YAPAXIABU_DebugHeapTag_t@std@@PADH@Z 006934f0 f   libcpmtd:xdebug.obj
 0002:001b8590       ??_U@YAPAXIABU_DebugHeapTag_t@std@@PADH@Z 00693590 f   libcpmtd:xdebug.obj
 0002:001b85c0       ??3@YAXPAXABU_DebugHeapTag_t@std@@PADH@Z 006935c0 f   libcpmtd:xdebug.obj
 0002:001b85e0       ??_V@YAXPAXABU_DebugHeapTag_t@std@@PADH@Z 006935e0 f   libcpmtd:xdebug.obj
 0002:001b8610       ?_DebugHeapTag_func@std@@YAABU_DebugHeapTag_t@1@XZ 00693610 f   libcpmtd:xdebug.obj
 0002:001b8620       ??0_Init_locks@std@@QAE@XZ 00693620 f   libcpmtd:xlock.obj
 0002:001b8690       ??1_Init_locks@std@@QAE@XZ 00693690 f   libcpmtd:xlock.obj
 0002:001b86f0       ?_Init_locks_ctor@_Init_locks@std@@CAXPAV12@@Z 006936f0 f   libcpmtd:xlock.obj
 0002:001b8750       ?_Init_locks_dtor@_Init_locks@std@@CAXPAV12@@Z 00693750 f   libcpmtd:xlock.obj
 0002:001b87b0       ??0_Lockit@std@@QAE@XZ     006937b0 f   libcpmtd:xlock.obj
 0002:001b87e0       ??0_Lockit@std@@QAE@H@Z    006937e0 f   libcpmtd:xlock.obj
 0002:001b8830       ??1_Lockit@std@@QAE@XZ     00693830 f   libcpmtd:xlock.obj
 0002:001b8870       ?_Lockit_ctor@_Lockit@std@@CAXPAV12@@Z 00693870 f   libcpmtd:xlock.obj
 0002:001b8890       ?_Lockit_ctor@_Lockit@std@@CAXPAV12@H@Z 00693890 f   libcpmtd:xlock.obj
 0002:001b88d0       ?_Lockit_dtor@_Lockit@std@@CAXPAV12@@Z 006938d0 f   libcpmtd:xlock.obj
 0002:001b8900       ?_Lockit_ctor@_Lockit@std@@SAXH@Z 00693900 f   libcpmtd:xlock.obj
 0002:001b8930       ?_Lockit_dtor@_Lockit@std@@SAXH@Z 00693930 f   libcpmtd:xlock.obj
 0002:001b8960       ?_Xlen@_String_base@std@@SAXXZ 00693960 f   libcpmtd:string.obj
 0002:001b89f0       ?_Xran@_String_base@std@@SAXXZ 006939f0 f   libcpmtd:string.obj
 0002:001b8a80       ??0out_of_range@std@@QAE@ABV?$basic_string@DU?$char_traits@D@std@@V?$allocator@D@2@@1@@Z 00693a80 f i libcpmtd:string.obj
 0002:001b8ab0       ??1out_of_range@std@@UAE@XZ 00693ab0 f i libcpmtd:string.obj
 0002:001b8ae0       ??_Gout_of_range@std@@UAEPAXI@Z 00693ae0 f i libcpmtd:string.obj
 0002:001b8ae0       ??_Eout_of_range@std@@UAEPAXI@Z 00693ae0 f i libcpmtd:string.obj
 0002:001b8b20       ??0out_of_range@std@@QAE@ABV01@@Z 00693b20 f i libcpmtd:string.obj
 0002:001b8b50       ?_Xinvarg@_String_base@std@@SAXXZ 00693b50 f   libcpmtd:string.obj
 0002:001b8be0       ??0invalid_argument@std@@QAE@ABV?$basic_string@DU?$char_traits@D@std@@V?$allocator@D@2@@1@@Z 00693be0 f i libcpmtd:string.obj
 0002:001b8c10       ??1invalid_argument@std@@UAE@XZ 00693c10 f i libcpmtd:string.obj
 0002:001b8c40       ??_Einvalid_argument@std@@UAEPAXI@Z 00693c40 f i libcpmtd:string.obj
 0002:001b8c40       ??_Ginvalid_argument@std@@UAEPAXI@Z 00693c40 f i libcpmtd:string.obj
 0002:001b8c80       ??0invalid_argument@std@@QAE@ABV01@@Z 00693c80 f i libcpmtd:string.obj
 0002:001b8cb0       ?_Debug_message@std@@YAXPBD0@Z 00693cb0 f   libcpmtd:stdthrow.obj
 0002:001b8d40       ?_Debug_message@std@@YAXPB_W0I@Z 00693d40 f   libcpmtd:stdthrow.obj
 0002:001b8d70       ?_Debug_message@std@@YAXPBG0I@Z 00693d70 f   libcpmtd:stdthrow.obj
 0002:001b8da0       ?_Throw@std@@YAXABVexception@stdext@@@Z 00693da0 f   libcpmtd:stdthrow.obj
 0002:001b8dd0       __Once                     00693dd0 f   libcpmtd:xmtx.obj
 0002:001b8e40       __Mtxinit                  00693e40 f   libcpmtd:xmtx.obj
 0002:001b8e60       __Mtxdst                   00693e60 f   libcpmtd:xmtx.obj
 0002:001b8e80       __Mtxlock                  00693e80 f   libcpmtd:xmtx.obj
 0002:001b8ea0       __Mtxunlock                00693ea0 f   libcpmtd:xmtx.obj
 0002:001b8eb6       _AVIFileInit@0             00693eb6 f   vfw32:AVIFIL32.dll
 0002:001b8ebc       _AVIFileExit@0             00693ebc f   vfw32:AVIFIL32.dll
 0002:001b8ec2       _AVIStreamSetFormat@16     00693ec2 f   vfw32:AVIFIL32.dll
 0002:001b8ec8       _AVIMakeCompressedStream@16 00693ec8 f   vfw32:AVIFIL32.dll
 0002:001b8ece       _AVIFileCreateStreamA@12   00693ece f   vfw32:AVIFIL32.dll
 0002:001b8ed4       _AVIFileOpenA@16           00693ed4 f   vfw32:AVIFIL32.dll
 0002:001b8eda       _AVIFileRelease@4          00693eda f   vfw32:AVIFIL32.dll
 0002:001b8ee0       _AVIStreamRelease@4        00693ee0 f   vfw32:AVIFIL32.dll
 0002:001b8ee6       _ICCompressorFree@4        00693ee6 f   vfw32:MSVFW32.dll
 0002:001b8eec       _ICCompressorChoose@24     00693eec f   vfw32:MSVFW32.dll
 0002:001b8ef2       _AVIStreamWrite@32         00693ef2 f   vfw32:AVIFIL32.dll
 0002:001b8ef8       _WSACleanup@0              00693ef8 f   wsock32:WSOCK32.dll
 0002:001b8efe       _WSAStartup@8              00693efe f   wsock32:WSOCK32.dll
 0002:001b8f04       _WSAAsyncGetHostByName@20  00693f04 f   wsock32:WSOCK32.dll
 0002:001b8f0a       _inet_addr@4               00693f0a f   wsock32:WSOCK32.dll
 0002:001b8f10       _WSAGetLastError@0         00693f10 f   wsock32:WSOCK32.dll
 0002:001b8f16       _connect@12                00693f16 f   wsock32:WSOCK32.dll
 0002:001b8f1c       _listen@8                  00693f1c f   wsock32:WSOCK32.dll
 0002:001b8f22       _WSAAsyncSelect@16         00693f22 f   wsock32:WSOCK32.dll
 0002:001b8f28       _ioctlsocket@12            00693f28 f   wsock32:WSOCK32.dll
 0002:001b8f2e       _bind@12                   00693f2e f   wsock32:WSOCK32.dll
 0002:001b8f34       _htons@4                   00693f34 f   wsock32:WSOCK32.dll
 0002:001b8f3a       _htonl@4                   00693f3a f   wsock32:WSOCK32.dll
 0002:001b8f40       _closesocket@4             00693f40 f   wsock32:WSOCK32.dll
 0002:001b8f46       _setsockopt@20             00693f46 f   wsock32:WSOCK32.dll
 0002:001b8f4c       _socket@12                 00693f4c f   wsock32:WSOCK32.dll
 0002:001b8f52       _shutdown@8                00693f52 f   wsock32:WSOCK32.dll
 0002:001b8f58       _WSACancelAsyncRequest@4   00693f58 f   wsock32:WSOCK32.dll
 0002:001b8f5e       _send@16                   00693f5e f   wsock32:WSOCK32.dll
 0002:001b8f64       _recv@16                   00693f64 f   wsock32:WSOCK32.dll
 0002:001b8f6a       _sendto@24                 00693f6a f   wsock32:WSOCK32.dll
 0002:001b8f70       _recvfrom@24               00693f70 f   wsock32:WSOCK32.dll
 0002:001b8f76       _accept@12                 00693f76 f   wsock32:WSOCK32.dll
 0002:001b8f7c       _inet_ntoa@4               00693f7c f   wsock32:WSOCK32.dll
 0002:001b8f82       _GetFileVersionInfoSizeA@8 00693f82 f   version:VERSION.dll
 0002:001b8f88       _InitializeCriticalSection@4 00693f88 f   kernel32:KERNEL32.dll
 0003:00000000       ___xc_a                    0069e000     libcmtd:crt0init.obj
 0003:00000354       ___xc_z                    0069e354     libcmtd:crt0init.obj
 0003:00000458       ___xi_a                    0069e458     libcmtd:crt0init.obj
 0003:00000778       ___xi_z                    0069e778     libcmtd:crt0init.obj
 0003:0000087c       ___xp_a                    0069e87c     libcmtd:crt0init.obj
 0003:00000b90       ___xp_z                    0069eb90     libcmtd:crt0init.obj
 0003:00000c94       ___xt_a                    0069ec94     libcmtd:crt0init.obj
 0003:00000d98       ___xt_z                    0069ed98     libcmtd:crt0init.obj
 0003:00000ebc       ??_C@_0P@GHFPNOJB@bad?5allocation?$AA@ 0069eebc     AboutDlg.obj
 0003:00000ece       ?_Value@?$_Is_swap_move@U_Swap_move_tag@std@@@std@@2_NB 0069eece     AboutDlg.obj
 0003:00000ed0       ?collate@?$_Locbase@H@std@@2HB 0069eed0     AboutDlg.obj
 0003:00000ed4       ?ctype@?$_Locbase@H@std@@2HB 0069eed4     AboutDlg.obj
 0003:00000ed8       ?monetary@?$_Locbase@H@std@@2HB 0069eed8     AboutDlg.obj
 0003:00000edc       ?numeric@?$_Locbase@H@std@@2HB 0069eedc     AboutDlg.obj
 0003:00000ee0       ?time@?$_Locbase@H@std@@2HB 0069eee0     AboutDlg.obj
 0003:00000ee4       ?messages@?$_Locbase@H@std@@2HB 0069eee4     AboutDlg.obj
 0003:00000ee8       ?all@?$_Locbase@H@std@@2HB 0069eee8     AboutDlg.obj
 0003:00000eec       ?none@?$_Locbase@H@std@@2HB 0069eeec     AboutDlg.obj
 0003:00000ef0       ?table_size@?$ctype@D@std@@2IB 0069eef0     AboutDlg.obj
 0003:00000ef4       ?skipws@?$_Iosb@H@std@@2W4_Fmtflags@12@B 0069eef4     AboutDlg.obj
 0003:00000ef8       ?unitbuf@?$_Iosb@H@std@@2W4_Fmtflags@12@B 0069eef8     AboutDlg.obj
 0003:00000efc       ?uppercase@?$_Iosb@H@std@@2W4_Fmtflags@12@B 0069eefc     AboutDlg.obj
 0003:00000f00       ?showbase@?$_Iosb@H@std@@2W4_Fmtflags@12@B 0069ef00     AboutDlg.obj
 0003:00000f04       ?showpoint@?$_Iosb@H@std@@2W4_Fmtflags@12@B 0069ef04     AboutDlg.obj
 0003:00000f08       ?showpos@?$_Iosb@H@std@@2W4_Fmtflags@12@B 0069ef08     AboutDlg.obj
 0003:00000f0c       ?left@?$_Iosb@H@std@@2W4_Fmtflags@12@B 0069ef0c     AboutDlg.obj
 0003:00000f10       ?right@?$_Iosb@H@std@@2W4_Fmtflags@12@B 0069ef10     AboutDlg.obj
 0003:00000f14       ?internal@?$_Iosb@H@std@@2W4_Fmtflags@12@B 0069ef14     AboutDlg.obj
 0003:00000f18       ?dec@?$_Iosb@H@std@@2W4_Fmtflags@12@B 0069ef18     AboutDlg.obj
 0003:00000f1c       ?oct@?$_Iosb@H@std@@2W4_Fmtflags@12@B 0069ef1c     AboutDlg.obj
 0003:00000f20       ?hex@?$_Iosb@H@std@@2W4_Fmtflags@12@B 0069ef20     AboutDlg.obj
 0003:00000f24       ?scientific@?$_Iosb@H@std@@2W4_Fmtflags@12@B 0069ef24     AboutDlg.obj
 0003:00000f28       ?fixed@?$_Iosb@H@std@@2W4_Fmtflags@12@B 0069ef28     AboutDlg.obj
 0003:00000f2c       ?hexfloat@?$_Iosb@H@std@@2W4_Fmtflags@12@B 0069ef2c     AboutDlg.obj
 0003:00000f30       ?boolalpha@?$_Iosb@H@std@@2W4_Fmtflags@12@B 0069ef30     AboutDlg.obj
 0003:00000f34       ?_Stdio@?$_Iosb@H@std@@2W4_Fmtflags@12@B 0069ef34     AboutDlg.obj
 0003:00000f38       ?adjustfield@?$_Iosb@H@std@@2W4_Fmtflags@12@B 0069ef38     AboutDlg.obj
 0003:00000f3c       ?basefield@?$_Iosb@H@std@@2W4_Fmtflags@12@B 0069ef3c     AboutDlg.obj
 0003:00000f40       ?floatfield@?$_Iosb@H@std@@2W4_Fmtflags@12@B 0069ef40     AboutDlg.obj
 0003:00000f44       ?goodbit@?$_Iosb@H@std@@2W4_Iostate@12@B 0069ef44     AboutDlg.obj
 0003:00000f48       ?eofbit@?$_Iosb@H@std@@2W4_Iostate@12@B 0069ef48     AboutDlg.obj
 0003:00000f4c       ?failbit@?$_Iosb@H@std@@2W4_Iostate@12@B 0069ef4c     AboutDlg.obj
 0003:00000f50       ?badbit@?$_Iosb@H@std@@2W4_Iostate@12@B 0069ef50     AboutDlg.obj
 0003:00000f54       ?_Hardfail@?$_Iosb@H@std@@2W4_Iostate@12@B 0069ef54     AboutDlg.obj
 0003:00000f58       ?in@?$_Iosb@H@std@@2W4_Openmode@12@B 0069ef58     AboutDlg.obj
 0003:00000f5c       ?out@?$_Iosb@H@std@@2W4_Openmode@12@B 0069ef5c     AboutDlg.obj
 0003:00000f60       ?ate@?$_Iosb@H@std@@2W4_Openmode@12@B 0069ef60     AboutDlg.obj
 0003:00000f64       ?app@?$_Iosb@H@std@@2W4_Openmode@12@B 0069ef64     AboutDlg.obj
 0003:00000f68       ?trunc@?$_Iosb@H@std@@2W4_Openmode@12@B 0069ef68     AboutDlg.obj
 0003:00000f6c       ?_Nocreate@?$_Iosb@H@std@@2W4_Openmode@12@B 0069ef6c     AboutDlg.obj
 0003:00000f70       ?_Noreplace@?$_Iosb@H@std@@2W4_Openmode@12@B 0069ef70     AboutDlg.obj
 0003:00000f74       ?binary@?$_Iosb@H@std@@2W4_Openmode@12@B 0069ef74     AboutDlg.obj
 0003:00000f78       ?beg@?$_Iosb@H@std@@2W4_Seekdir@12@B 0069ef78     AboutDlg.obj
 0003:00000f7c       ?cur@?$_Iosb@H@std@@2W4_Seekdir@12@B 0069ef7c     AboutDlg.obj
 0003:00000f80       ?end@?$_Iosb@H@std@@2W4_Seekdir@12@B 0069ef80     AboutDlg.obj
 0003:00000f84       ?value@?$integral_constant@_N$0A@@tr1@std@@2_NB 0069ef84     AboutDlg.obj
 0003:00000f85       ?value@?$integral_constant@_N$00@tr1@std@@2_NB 0069ef85     AboutDlg.obj
 0003:00000f88       ??_C@_07NLEHDNM@mailto?3?$AA@ 0069ef88     AboutDlg.obj
 0003:00000f94       ??_C@_0M@MEKAEDEP@yahoo?4co?4jp?$AA@ 0069ef94     AboutDlg.obj
 0003:00000fa4       ??_C@_01EOFPKCAF@?$EA?$AA@ 0069efa4     AboutDlg.obj
 0003:00000fa8       ??_C@_07EAIECIGL@norix_v?$AA@ 0069efa8     AboutDlg.obj
 0003:00000fb4       ??_C@_0CD@MEGODFIP@http?3?1?1virtuanes?4s1?4xrea?4com?3808@ 0069efb4     AboutDlg.obj
 0003:00000fe0       ??_C@_0CC@CKGBPFG@VirtuaNES?5version?5?$CF01d?4?$CF01d?$CF01d?$CF@ 0069efe0     AboutDlg.obj
 0003:00001008       ??_C@_00CNPNBAHC@?$AA@     0069f008     AboutDlg.obj
 0003:0000100c       ??_C@_04PMOCAHAA@open?$AA@ 0069f00c     AboutDlg.obj
 0003:00001014       ??_C@_0DP@DDGDHHOD@c?3?2program?5files?2microsoft?5visua@ 0069f014     AboutDlg.obj
 0003:00001064       ??_7bad_alloc@std@@6B@     0069f064     AboutDlg.obj
 0003:00001070       ??_C@_1IA@LLBMBDOH@?$AAc?$AA?3?$AA?2?$AAp?$AAr?$AAo?$AAg?$AAr?$AAa?$AAm?$AA?5?$AAf?$AAi?$AAl?$AAe?$AAs?$AA?2?$AAm?$AAi?$AAc?$AAr?$AAo?$AAs?$AAo?$AAf?$AAt?$AA?5?$AAv?$AAi?$AAs?$AAu?$AAa@ 0069f070     AboutDlg.obj
 0003:0000110c       ?npos@?$basic_string@DU?$char_traits@D@std@@V?$allocator@D@2@@std@@2IB 0069f10c     AboutDlg.obj
 0003:00001110       ??_C@_1CK@EOPGIILJ@?$AAi?$AAn?$AAv?$AAa?$AAl?$AAi?$AAd?$AA?5?$AAn?$AAu?$AAl?$AAl?$AA?5?$AAp?$AAo?$AAi?$AAn?$AAt?$AAe?$AAr?$AA?$AA@ 0069f110     AboutDlg.obj
 0003:00001144       ??_C@_05CIBCHDHB@?$CK?4nsf?$AA@ 0069f144     Archive.obj
 0003:0000114c       ??_C@_05MDHKAIHP@?$CK?4fds?$AA@ 0069f14c     Archive.obj
 0003:00001154       ??_C@_05LLPEJDMM@?$CK?4unf?$AA@ 0069f154     Archive.obj
 0003:0000115c       ??_C@_05HAMEKKH@?$CK?4nes?$AA@ 0069f15c     Archive.obj
 0003:00001164       ??_C@_0BF@DCDPLBGA@?9x?5?9j?5?$CC?$CFs?$CC?5?$CC?$CFs?$CC?5?$CC?$CFs?$CC?$AA@ 0069f164     Archive.obj
 0003:00001180       ??_C@_0BF@LFHLLGEA@?9e?5?9u?5?$CC?$CFs?$CC?5?$CC?$CFs?$CC?5?$CC?$CFs?$CC?$AA@ 0069f180     Archive.obj
 0003:0000119c       ??_C@_03EJMEHPAC@Cab?$AA@  0069f19c     Archive.obj
 0003:000011a0       ??_C@_05KBFGNMEA@Unrar?$AA@ 0069f1a0     Archive.obj
 0003:000011a8       ??_C@_05PIPFGIKL@UnZip?$AA@ 0069f1a8     Archive.obj
 0003:000011b0       ??_C@_05HPKOIGPB@Unlha?$AA@ 0069f1b0     Archive.obj
 0003:000011b8       ??_C@_05FICCMIGJ@CAB32?$AA@ 0069f1b8     Archive.obj
 0003:000011c0       ??_C@_07BNKDMDIE@UNRAR32?$AA@ 0069f1c0     Archive.obj
 0003:000011cc       ??_C@_07GLIJMCKD@UNZIP32?$AA@ 0069f1cc     Archive.obj
 0003:000011d8       ??_C@_07GLMDDKGP@UNLHA32?$AA@ 0069f1d8     Archive.obj
 0003:000011e4       ??_C@_04PJMFADJP@?4nsf?$AA@ 0069f1e4     Archive.obj
 0003:000011ec       ??_C@_04BCKNHIJB@?4fds?$AA@ 0069f1ec     Archive.obj
 0003:000011f4       ??_C@_04GKCDODCC@?4unf?$AA@ 0069f1f4     Archive.obj
 0003:000011fc       ??_C@_04NGNLDKEJ@?4nes?$AA@ 0069f1fc     Archive.obj
 0003:00001204       ??_C@_02JDPG@rb?$AA@       0069f204     Archive.obj
 0003:00001208       ??_C@_0N@FEHHIGAB@?$CFsExtractMem?$AA@ 0069f208     Archive.obj
 0003:00001218       ??_C@_09DPACILDJ@?$CC?$CFs?$CC?5?$CC?$CFs?$CC?$AA@ 0069f218     Archive.obj
 0003:00001224       ??_C@_0P@FHODNPHB@?$CFsCloseArchive?$AA@ 0069f224     Archive.obj
 0003:00001238       ??_C@_0M@CLHFMFEM@?$CFsFindFirst?$AA@ 0069f238     Archive.obj
 0003:00001248       ??_C@_0O@MIDNBODH@?$CFsOpenArchive?$AA@ 0069f248     Archive.obj
 0003:00001258       ??_C@_0P@FJCGOGPA@?$CFsCheckArchive?$AA@ 0069f258     Archive.obj
 0003:00001270       ??_7CAviConvDlg@@6B@       0069f270     AviConvDlg.obj
 0003:00001294       ??_C@_0BD@KHPIFBKH@?$CFd?4?$CF03dKHz?5?$CF2dbits?$AA@ 0069f294     AviConvDlg.obj
 0003:000012ac       ??_C@_07LKPINGHC@1?16?5FPS?$AA@ 0069f2ac     AviConvDlg.obj
 0003:000012b8       ??_C@_07DMGMKENM@1?15?5FPS?$AA@ 0069f2b8     AviConvDlg.obj
 0003:000012c4       ??_C@_07PHDAHHHJ@1?14?5FPS?$AA@ 0069f2c4     AviConvDlg.obj
 0003:000012d0       ??_C@_07OKDFEHMB@1?13?5FPS?$AA@ 0069f2d0     AviConvDlg.obj
 0003:000012dc       ??_C@_07CBGJJEGE@1?12?5FPS?$AA@ 0069f2dc     AviConvDlg.obj
 0003:000012e8       ??_C@_08OBHKOPFK@Full?5FPS?$AA@ 0069f2e8     AviConvDlg.obj
 0003:000012f8       ??_C@_0JH@KJJBMFBA@All?5Support?5Types?$AA?$CK?4nes?$DL?$CK?4unf?$DL?$CK?4@ 0069f2f8     AviConvDlg.obj
 0003:000013b0       ??_C@_0CN@EIFFBJMJ@Movie?5Files?$CI?$CK?4vmv?$CJ?$AA?$CK?4vmv?$AAAll?5Fil@ 0069f3b0     AviConvDlg.obj
 0003:000013e8       ??_C@_03KJIFFJKA@vmv?$AA@  0069f3e8     AviConvDlg.obj
 0003:000013ec       ??_C@_0CN@BEOFKOPD@Movie?5Files?$CI?$CK?4avi?$CJ?$AA?$CK?4avi?$AAAll?5Fil@ 0069f3ec     AviConvDlg.obj
 0003:00001424       ??_C@_03LJGCHEIJ@avi?$AA@  0069f424     AviConvDlg.obj
 0003:00001428       ??_C@_09MNFMJIJB@VirtuaNES?$AA@ 0069f428     AviConvDlg.obj
 0003:00001434       ??_C@_0CG@GGABNJIB@Convert?5Finished?4?5Time?3?$CF02d?3?$CF02d@ 0069f434     AviConvDlg.obj
 0003:00001464       ??_C@_0BF@CHPBOCFC@CreateThread?5failed?4?$AA@ 0069f464     AviConvDlg.obj
 0003:00001480       ??_C@_0BB@FBFDNGG@MoviePlay?5error?4?$AA@ 0069f480     AviConvDlg.obj
